Archive member included to satisfy reference by file (symbol)

c:/renesas/ra/e2studio_v2021-04_fsp_v3.0.0/toolchains/gcc_arm/9_2020q2/bin/../lib/gcc/arm-none-eabi/9.3.1/thumb/v8-m.main+fp/hard\libgcc.a(_aeabi_ldivmod.o)
                              ./ra/fsp/src/r_sci_uart/r_sci_uart.o (__aeabi_ldivmod)
c:/renesas/ra/e2studio_v2021-04_fsp_v3.0.0/toolchains/gcc_arm/9_2020q2/bin/../lib/gcc/arm-none-eabi/9.3.1/thumb/v8-m.main+fp/hard\libgcc.a(_udivmoddi4.o)
                              c:/renesas/ra/e2studio_v2021-04_fsp_v3.0.0/toolchains/gcc_arm/9_2020q2/bin/../lib/gcc/arm-none-eabi/9.3.1/thumb/v8-m.main+fp/hard\libgcc.a(_aeabi_ldivmod.o) (__udivmoddi4)
c:/renesas/ra/e2studio_v2021-04_fsp_v3.0.0/toolchains/gcc_arm/9_2020q2/bin/../lib/gcc/arm-none-eabi/9.3.1/thumb/v8-m.main+fp/hard\libgcc.a(_dvmd_tls.o)
                              c:/renesas/ra/e2studio_v2021-04_fsp_v3.0.0/toolchains/gcc_arm/9_2020q2/bin/../lib/gcc/arm-none-eabi/9.3.1/thumb/v8-m.main+fp/hard\libgcc.a(_aeabi_ldivmod.o) (__aeabi_ldiv0)
c:/renesas/ra/e2studio_v2021-04_fsp_v3.0.0/toolchains/gcc_arm/9_2020q2/bin/../lib/gcc/arm-none-eabi/9.3.1/../../../../arm-none-eabi/lib/thumb/v8-m.main+fp/hard\libg_nano.a(lib_a-errno.o)
                              ./ra/fsp/src/bsp/mcu/all/bsp_sbrk.o (__errno)
c:/renesas/ra/e2studio_v2021-04_fsp_v3.0.0/toolchains/gcc_arm/9_2020q2/bin/../lib/gcc/arm-none-eabi/9.3.1/../../../../arm-none-eabi/lib/thumb/v8-m.main+fp/hard\libg_nano.a(lib_a-exit.o)
                              c:/renesas/ra/e2studio_v2021-04_fsp_v3.0.0/toolchains/gcc_arm/9_2020q2/bin/../lib/gcc/arm-none-eabi/9.3.1/../../../../arm-none-eabi/lib/thumb/v8-m.main+fp/hard/rdimon-crt0.o (exit)
c:/renesas/ra/e2studio_v2021-04_fsp_v3.0.0/toolchains/gcc_arm/9_2020q2/bin/../lib/gcc/arm-none-eabi/9.3.1/../../../../arm-none-eabi/lib/thumb/v8-m.main+fp/hard\libg_nano.a(lib_a-impure.o)
                              c:/renesas/ra/e2studio_v2021-04_fsp_v3.0.0/toolchains/gcc_arm/9_2020q2/bin/../lib/gcc/arm-none-eabi/9.3.1/../../../../arm-none-eabi/lib/thumb/v8-m.main+fp/hard\libg_nano.a(lib_a-exit.o) (_global_impure_ptr)
c:/renesas/ra/e2studio_v2021-04_fsp_v3.0.0/toolchains/gcc_arm/9_2020q2/bin/../lib/gcc/arm-none-eabi/9.3.1/../../../../arm-none-eabi/lib/thumb/v8-m.main+fp/hard\libg_nano.a(lib_a-init.o)
                              c:/renesas/ra/e2studio_v2021-04_fsp_v3.0.0/toolchains/gcc_arm/9_2020q2/bin/../lib/gcc/arm-none-eabi/9.3.1/../../../../arm-none-eabi/lib/thumb/v8-m.main+fp/hard/rdimon-crt0.o (__libc_init_array)
c:/renesas/ra/e2studio_v2021-04_fsp_v3.0.0/toolchains/gcc_arm/9_2020q2/bin/../lib/gcc/arm-none-eabi/9.3.1/../../../../arm-none-eabi/lib/thumb/v8-m.main+fp/hard\libg_nano.a(lib_a-memcmp.o)
                              ./tray/tray_upper.o (memcmp)
c:/renesas/ra/e2studio_v2021-04_fsp_v3.0.0/toolchains/gcc_arm/9_2020q2/bin/../lib/gcc/arm-none-eabi/9.3.1/../../../../arm-none-eabi/lib/thumb/v8-m.main+fp/hard\libg_nano.a(lib_a-memcpy-stub.o)
                              ./tray/flow.o (memcpy)
c:/renesas/ra/e2studio_v2021-04_fsp_v3.0.0/toolchains/gcc_arm/9_2020q2/bin/../lib/gcc/arm-none-eabi/9.3.1/../../../../arm-none-eabi/lib/thumb/v8-m.main+fp/hard\libg_nano.a(lib_a-memset.o)
                              c:/renesas/ra/e2studio_v2021-04_fsp_v3.0.0/toolchains/gcc_arm/9_2020q2/bin/../lib/gcc/arm-none-eabi/9.3.1/../../../../arm-none-eabi/lib/thumb/v8-m.main+fp/hard/rdimon-crt0.o (memset)
c:/renesas/ra/e2studio_v2021-04_fsp_v3.0.0/toolchains/gcc_arm/9_2020q2/bin/../lib/gcc/arm-none-eabi/9.3.1/../../../../arm-none-eabi/lib/thumb/v8-m.main+fp/hard\libg_nano.a(lib_a-sprintf.o)
                              ./tray/func.o (sprintf)
c:/renesas/ra/e2studio_v2021-04_fsp_v3.0.0/toolchains/gcc_arm/9_2020q2/bin/../lib/gcc/arm-none-eabi/9.3.1/../../../../arm-none-eabi/lib/thumb/v8-m.main+fp/hard\libg_nano.a(lib_a-strcmp.o)
                              ./mlos/services/mlos_log.o (strcmp)
c:/renesas/ra/e2studio_v2021-04_fsp_v3.0.0/toolchains/gcc_arm/9_2020q2/bin/../lib/gcc/arm-none-eabi/9.3.1/../../../../arm-none-eabi/lib/thumb/v8-m.main+fp/hard\libg_nano.a(lib_a-strcpy.o)
                              ./mlos/os/mlos_task.o (strcpy)
c:/renesas/ra/e2studio_v2021-04_fsp_v3.0.0/toolchains/gcc_arm/9_2020q2/bin/../lib/gcc/arm-none-eabi/9.3.1/../../../../arm-none-eabi/lib/thumb/v8-m.main+fp/hard\libg_nano.a(lib_a-strlen.o)
                              ./mlos/services/mlos_shell.o (strlen)
c:/renesas/ra/e2studio_v2021-04_fsp_v3.0.0/toolchains/gcc_arm/9_2020q2/bin/../lib/gcc/arm-none-eabi/9.3.1/../../../../arm-none-eabi/lib/thumb/v8-m.main+fp/hard\libg_nano.a(lib_a-vsnprintf.o)
                              ./tray/log.o (vsnprintf)
c:/renesas/ra/e2studio_v2021-04_fsp_v3.0.0/toolchains/gcc_arm/9_2020q2/bin/../lib/gcc/arm-none-eabi/9.3.1/../../../../arm-none-eabi/lib/thumb/v8-m.main+fp/hard\libg_nano.a(lib_a-vsprintf.o)
                              ./mlos/services/mlos_log.o (vsprintf)
c:/renesas/ra/e2studio_v2021-04_fsp_v3.0.0/toolchains/gcc_arm/9_2020q2/bin/../lib/gcc/arm-none-eabi/9.3.1/../../../../arm-none-eabi/lib/thumb/v8-m.main+fp/hard\libg_nano.a(lib_a-nano-svfprintf.o)
                              c:/renesas/ra/e2studio_v2021-04_fsp_v3.0.0/toolchains/gcc_arm/9_2020q2/bin/../lib/gcc/arm-none-eabi/9.3.1/../../../../arm-none-eabi/lib/thumb/v8-m.main+fp/hard\libg_nano.a(lib_a-sprintf.o) (_svfprintf_r)
c:/renesas/ra/e2studio_v2021-04_fsp_v3.0.0/toolchains/gcc_arm/9_2020q2/bin/../lib/gcc/arm-none-eabi/9.3.1/../../../../arm-none-eabi/lib/thumb/v8-m.main+fp/hard\libg_nano.a(lib_a-nano-vfprintf_i.o)
                              c:/renesas/ra/e2studio_v2021-04_fsp_v3.0.0/toolchains/gcc_arm/9_2020q2/bin/../lib/gcc/arm-none-eabi/9.3.1/../../../../arm-none-eabi/lib/thumb/v8-m.main+fp/hard\libg_nano.a(lib_a-nano-svfprintf.o) (_printf_i)
c:/renesas/ra/e2studio_v2021-04_fsp_v3.0.0/toolchains/gcc_arm/9_2020q2/bin/../lib/gcc/arm-none-eabi/9.3.1/../../../../arm-none-eabi/lib/thumb/v8-m.main+fp/hard\libg_nano.a(lib_a-memchr-stub.o)
                              c:/renesas/ra/e2studio_v2021-04_fsp_v3.0.0/toolchains/gcc_arm/9_2020q2/bin/../lib/gcc/arm-none-eabi/9.3.1/../../../../arm-none-eabi/lib/thumb/v8-m.main+fp/hard\libg_nano.a(lib_a-nano-svfprintf.o) (memchr)
c:/renesas/ra/e2studio_v2021-04_fsp_v3.0.0/toolchains/gcc_arm/9_2020q2/bin/../lib/gcc/arm-none-eabi/9.3.1/../../../../arm-none-eabi/lib/thumb/v8-m.main+fp/hard\libg_nano.a(lib_a-memmove.o)
                              c:/renesas/ra/e2studio_v2021-04_fsp_v3.0.0/toolchains/gcc_arm/9_2020q2/bin/../lib/gcc/arm-none-eabi/9.3.1/../../../../arm-none-eabi/lib/thumb/v8-m.main+fp/hard\libg_nano.a(lib_a-nano-svfprintf.o) (memmove)
c:/renesas/ra/e2studio_v2021-04_fsp_v3.0.0/toolchains/gcc_arm/9_2020q2/bin/../lib/gcc/arm-none-eabi/9.3.1/../../../../arm-none-eabi/lib/thumb/v8-m.main+fp/hard\libg_nano.a(lib_a-nano-freer.o)
                              c:/renesas/ra/e2studio_v2021-04_fsp_v3.0.0/toolchains/gcc_arm/9_2020q2/bin/../lib/gcc/arm-none-eabi/9.3.1/../../../../arm-none-eabi/lib/thumb/v8-m.main+fp/hard\libg_nano.a(lib_a-nano-svfprintf.o) (_free_r)
c:/renesas/ra/e2studio_v2021-04_fsp_v3.0.0/toolchains/gcc_arm/9_2020q2/bin/../lib/gcc/arm-none-eabi/9.3.1/../../../../arm-none-eabi/lib/thumb/v8-m.main+fp/hard\libg_nano.a(lib_a-nano-mallocr.o)
                              c:/renesas/ra/e2studio_v2021-04_fsp_v3.0.0/toolchains/gcc_arm/9_2020q2/bin/../lib/gcc/arm-none-eabi/9.3.1/../../../../arm-none-eabi/lib/thumb/v8-m.main+fp/hard\libg_nano.a(lib_a-nano-svfprintf.o) (_malloc_r)
c:/renesas/ra/e2studio_v2021-04_fsp_v3.0.0/toolchains/gcc_arm/9_2020q2/bin/../lib/gcc/arm-none-eabi/9.3.1/../../../../arm-none-eabi/lib/thumb/v8-m.main+fp/hard\libg_nano.a(lib_a-nano-reallocr.o)
                              c:/renesas/ra/e2studio_v2021-04_fsp_v3.0.0/toolchains/gcc_arm/9_2020q2/bin/../lib/gcc/arm-none-eabi/9.3.1/../../../../arm-none-eabi/lib/thumb/v8-m.main+fp/hard\libg_nano.a(lib_a-nano-svfprintf.o) (_realloc_r)
c:/renesas/ra/e2studio_v2021-04_fsp_v3.0.0/toolchains/gcc_arm/9_2020q2/bin/../lib/gcc/arm-none-eabi/9.3.1/../../../../arm-none-eabi/lib/thumb/v8-m.main+fp/hard\libg_nano.a(lib_a-sbrkr.o)
                              c:/renesas/ra/e2studio_v2021-04_fsp_v3.0.0/toolchains/gcc_arm/9_2020q2/bin/../lib/gcc/arm-none-eabi/9.3.1/../../../../arm-none-eabi/lib/thumb/v8-m.main+fp/hard\libg_nano.a(lib_a-nano-mallocr.o) (_sbrk_r)
c:/renesas/ra/e2studio_v2021-04_fsp_v3.0.0/toolchains/gcc_arm/9_2020q2/bin/../lib/gcc/arm-none-eabi/9.3.1/../../../../arm-none-eabi/lib/thumb/v8-m.main+fp/hard\libg_nano.a(lib_a-mlock.o)
                              c:/renesas/ra/e2studio_v2021-04_fsp_v3.0.0/toolchains/gcc_arm/9_2020q2/bin/../lib/gcc/arm-none-eabi/9.3.1/../../../../arm-none-eabi/lib/thumb/v8-m.main+fp/hard\libg_nano.a(lib_a-nano-freer.o) (__malloc_lock)
c:/renesas/ra/e2studio_v2021-04_fsp_v3.0.0/toolchains/gcc_arm/9_2020q2/bin/../lib/gcc/arm-none-eabi/9.3.1/../../../../arm-none-eabi/lib/thumb/v8-m.main+fp/hard\libg_nano.a(lib_a-nano-msizer.o)
                              c:/renesas/ra/e2studio_v2021-04_fsp_v3.0.0/toolchains/gcc_arm/9_2020q2/bin/../lib/gcc/arm-none-eabi/9.3.1/../../../../arm-none-eabi/lib/thumb/v8-m.main+fp/hard\libg_nano.a(lib_a-nano-reallocr.o) (_malloc_usable_size_r)
c:/renesas/ra/e2studio_v2021-04_fsp_v3.0.0/toolchains/gcc_arm/9_2020q2/bin/../lib/gcc/arm-none-eabi/9.3.1/../../../../arm-none-eabi/lib/thumb/v8-m.main+fp/hard\libg_nano.a(lib_a-reent.o)
                              c:/renesas/ra/e2studio_v2021-04_fsp_v3.0.0/toolchains/gcc_arm/9_2020q2/bin/../lib/gcc/arm-none-eabi/9.3.1/../../../../arm-none-eabi/lib/thumb/v8-m.main+fp/hard\libg_nano.a(lib_a-sbrkr.o) (errno)
c:/renesas/ra/e2studio_v2021-04_fsp_v3.0.0/toolchains/gcc_arm/9_2020q2/bin/../lib/gcc/arm-none-eabi/9.3.1/../../../../arm-none-eabi/lib/thumb/v8-m.main+fp/hard\libg_nano.a(lib_a-lock.o)
                              c:/renesas/ra/e2studio_v2021-04_fsp_v3.0.0/toolchains/gcc_arm/9_2020q2/bin/../lib/gcc/arm-none-eabi/9.3.1/../../../../arm-none-eabi/lib/thumb/v8-m.main+fp/hard\libg_nano.a(lib_a-mlock.o) (__retarget_lock_acquire_recursive)
c:/renesas/ra/e2studio_v2021-04_fsp_v3.0.0/toolchains/gcc_arm/9_2020q2/bin/../lib/gcc/arm-none-eabi/9.3.1/../../../../arm-none-eabi/lib/thumb/v8-m.main+fp/hard\librdimon_nano.a(rdimon-syscalls.o)
                              c:/renesas/ra/e2studio_v2021-04_fsp_v3.0.0/toolchains/gcc_arm/9_2020q2/bin/../lib/gcc/arm-none-eabi/9.3.1/../../../../arm-none-eabi/lib/thumb/v8-m.main+fp/hard/rdimon-crt0.o (initialise_monitor_handles)
c:/renesas/ra/e2studio_v2021-04_fsp_v3.0.0/toolchains/gcc_arm/9_2020q2/bin/../lib/gcc/arm-none-eabi/9.3.1/../../../../arm-none-eabi/lib/thumb/v8-m.main+fp/hard\librdimon_nano.a(rdimon-_exit.o)
                              c:/renesas/ra/e2studio_v2021-04_fsp_v3.0.0/toolchains/gcc_arm/9_2020q2/bin/../lib/gcc/arm-none-eabi/9.3.1/../../../../arm-none-eabi/lib/thumb/v8-m.main+fp/hard\libg_nano.a(lib_a-exit.o) (_exit)
c:/renesas/ra/e2studio_v2021-04_fsp_v3.0.0/toolchains/gcc_arm/9_2020q2/bin/../lib/gcc/arm-none-eabi/9.3.1/../../../../arm-none-eabi/lib/thumb/v8-m.main+fp/hard\librdimon_nano.a(rdimon-_kill.o)
                              c:/renesas/ra/e2studio_v2021-04_fsp_v3.0.0/toolchains/gcc_arm/9_2020q2/bin/../lib/gcc/arm-none-eabi/9.3.1/../../../../arm-none-eabi/lib/thumb/v8-m.main+fp/hard\librdimon_nano.a(rdimon-_exit.o) (_kill_shared)
c:/renesas/ra/e2studio_v2021-04_fsp_v3.0.0/toolchains/gcc_arm/9_2020q2/bin/../lib/gcc/arm-none-eabi/9.3.1/../../../../arm-none-eabi/lib/thumb/v8-m.main+fp/hard\libc_nano.a(lib_a-findfp.o)
                              c:/renesas/ra/e2studio_v2021-04_fsp_v3.0.0/toolchains/gcc_arm/9_2020q2/bin/../lib/gcc/arm-none-eabi/9.3.1/../../../../arm-none-eabi/lib/thumb/v8-m.main+fp/hard\librdimon_nano.a(rdimon-syscalls.o) (__sinit)
c:/renesas/ra/e2studio_v2021-04_fsp_v3.0.0/toolchains/gcc_arm/9_2020q2/bin/../lib/gcc/arm-none-eabi/9.3.1/../../../../arm-none-eabi/lib/thumb/v8-m.main+fp/hard\libc_nano.a(lib_a-fwalk.o)
                              c:/renesas/ra/e2studio_v2021-04_fsp_v3.0.0/toolchains/gcc_arm/9_2020q2/bin/../lib/gcc/arm-none-eabi/9.3.1/../../../../arm-none-eabi/lib/thumb/v8-m.main+fp/hard\libc_nano.a(lib_a-findfp.o) (_fwalk)
c:/renesas/ra/e2studio_v2021-04_fsp_v3.0.0/toolchains/gcc_arm/9_2020q2/bin/../lib/gcc/arm-none-eabi/9.3.1/../../../../arm-none-eabi/lib/thumb/v8-m.main+fp/hard\libc_nano.a(lib_a-stdio.o)
                              c:/renesas/ra/e2studio_v2021-04_fsp_v3.0.0/toolchains/gcc_arm/9_2020q2/bin/../lib/gcc/arm-none-eabi/9.3.1/../../../../arm-none-eabi/lib/thumb/v8-m.main+fp/hard\libc_nano.a(lib_a-findfp.o) (__sread)
c:/renesas/ra/e2studio_v2021-04_fsp_v3.0.0/toolchains/gcc_arm/9_2020q2/bin/../lib/gcc/arm-none-eabi/9.3.1/../../../../arm-none-eabi/lib/thumb/v8-m.main+fp/hard\libc_nano.a(lib_a-writer.o)
                              c:/renesas/ra/e2studio_v2021-04_fsp_v3.0.0/toolchains/gcc_arm/9_2020q2/bin/../lib/gcc/arm-none-eabi/9.3.1/../../../../arm-none-eabi/lib/thumb/v8-m.main+fp/hard\libc_nano.a(lib_a-stdio.o) (_write_r)
c:/renesas/ra/e2studio_v2021-04_fsp_v3.0.0/toolchains/gcc_arm/9_2020q2/bin/../lib/gcc/arm-none-eabi/9.3.1/../../../../arm-none-eabi/lib/thumb/v8-m.main+fp/hard\libc_nano.a(lib_a-closer.o)
                              c:/renesas/ra/e2studio_v2021-04_fsp_v3.0.0/toolchains/gcc_arm/9_2020q2/bin/../lib/gcc/arm-none-eabi/9.3.1/../../../../arm-none-eabi/lib/thumb/v8-m.main+fp/hard\libc_nano.a(lib_a-stdio.o) (_close_r)
c:/renesas/ra/e2studio_v2021-04_fsp_v3.0.0/toolchains/gcc_arm/9_2020q2/bin/../lib/gcc/arm-none-eabi/9.3.1/../../../../arm-none-eabi/lib/thumb/v8-m.main+fp/hard\libc_nano.a(lib_a-fflush.o)
                              c:/renesas/ra/e2studio_v2021-04_fsp_v3.0.0/toolchains/gcc_arm/9_2020q2/bin/../lib/gcc/arm-none-eabi/9.3.1/../../../../arm-none-eabi/lib/thumb/v8-m.main+fp/hard\libc_nano.a(lib_a-findfp.o) (_fflush_r)
c:/renesas/ra/e2studio_v2021-04_fsp_v3.0.0/toolchains/gcc_arm/9_2020q2/bin/../lib/gcc/arm-none-eabi/9.3.1/../../../../arm-none-eabi/lib/thumb/v8-m.main+fp/hard\libc_nano.a(lib_a-lseekr.o)
                              c:/renesas/ra/e2studio_v2021-04_fsp_v3.0.0/toolchains/gcc_arm/9_2020q2/bin/../lib/gcc/arm-none-eabi/9.3.1/../../../../arm-none-eabi/lib/thumb/v8-m.main+fp/hard\libc_nano.a(lib_a-stdio.o) (_lseek_r)
c:/renesas/ra/e2studio_v2021-04_fsp_v3.0.0/toolchains/gcc_arm/9_2020q2/bin/../lib/gcc/arm-none-eabi/9.3.1/../../../../arm-none-eabi/lib/thumb/v8-m.main+fp/hard\libc_nano.a(lib_a-readr.o)
                              c:/renesas/ra/e2studio_v2021-04_fsp_v3.0.0/toolchains/gcc_arm/9_2020q2/bin/../lib/gcc/arm-none-eabi/9.3.1/../../../../arm-none-eabi/lib/thumb/v8-m.main+fp/hard\libc_nano.a(lib_a-stdio.o) (_read_r)

Allocating common symbols
Common symbol       size              file

g_qspi0_ctrl        0x10              ./ra_gen/hal_data.o
g_can1_ctrl         0x28              ./ra_gen/hal_data.o
log                 0x10              ./mlos/services/mlos_log.o
mlos                0x18              ./mlos/os/mlos.o
pOsinfoPrintTimer   0x4               ./app/u_app_tool_debug.o
__lock___atexit_recursive_mutex
                    0x1               c:/renesas/ra/e2studio_v2021-04_fsp_v3.0.0/toolchains/gcc_arm/9_2020q2/bin/../lib/gcc/arm-none-eabi/9.3.1/../../../../arm-none-eabi/lib/thumb/v8-m.main+fp/hard\libg_nano.a(lib_a-lock.o)
g_cssdSpi_ctrl      0x30              ./ra_gen/hal_data.o
g_mcuflash_ctrl     0x44              ./ra_gen/hal_data.o
feature             0x3               ./mllib/mlflash/mx35xx/mx35.o
upperNtp            0x10              ./mllib/upper/upper_ntp.o
gAbsTimeSec         0x4               ./tray/tray_upper.o
gMaxSmplAmt         0x4               ./tray/box.o
__lock___arc4random_mutex
                    0x1               c:/renesas/ra/e2studio_v2021-04_fsp_v3.0.0/toolchains/gcc_arm/9_2020q2/bin/../lib/gcc/arm-none-eabi/9.3.1/../../../../arm-none-eabi/lib/thumb/v8-m.main+fp/hard\libg_nano.a(lib_a-lock.o)
gFlowCb             0x4               ./tray/flow.o
g_ioport_ctrl       0x8               ./ra_gen/common_data.o
cardinfo            0x58              ./mllib/mlflash/cssdcard/cs_sdcard.o
errno               0x4               c:/renesas/ra/e2studio_v2021-04_fsp_v3.0.0/toolchains/gcc_arm/9_2020q2/bin/../lib/gcc/arm-none-eabi/9.3.1/../../../../arm-none-eabi/lib/thumb/v8-m.main+fp/hard\libg_nano.a(lib_a-reent.o)
gUartSendBuf        0x4               ./tray/uart.o
mx35                0x10              ./mllib/mlflash/mx35xx/mx35.o
pRtimerTask         0x4               ./mlos/os/mlos_rtimer.o
gBoxMsgBufTx        0x4               ./tray/box.o
gStepSmplSeq        0x2               ./tray/box.o
shell               0x4c4             ./mlos/services/mlos_shell.o
gUpItfCb            0x4               ./tray/tray_upper.o
g_can0_ctrl         0x28              ./ra_gen/hal_data.o
g_w5500spi_ctrl     0x30              ./ra_gen/hal_data.o
g_transfer0_ctrl    0x8               ./ra_gen/hal_data.o
gNeedSendUpConn     0x1               ./tray/tray_upper.o
gSmplRcd            0x4               ./tray/tray_upper.o
w5500spievent       0x4               ./mllib/ntp/w5500/ra6m4/ntp_w5500_spi_driver.o
gPlcSendBuf         0x4               ./tray/plc.o
g_mlosClockTimer_ctrl
                    0x20              ./ra_gen/hal_data.o
PbNtp               0x10              ./mllib/utp/pb.o
g_mlosTaskElapsedTimer_ctrl
                    0x20              ./ra_gen/hal_data.o
__lock___env_recursive_mutex
                    0x1               c:/renesas/ra/e2studio_v2021-04_fsp_v3.0.0/toolchains/gcc_arm/9_2020q2/bin/../lib/gcc/arm-none-eabi/9.3.1/../../../../arm-none-eabi/lib/thumb/v8-m.main+fp/hard\libg_nano.a(lib_a-lock.o)
__lock___sinit_recursive_mutex
                    0x1               c:/renesas/ra/e2studio_v2021-04_fsp_v3.0.0/toolchains/gcc_arm/9_2020q2/bin/../lib/gcc/arm-none-eabi/9.3.1/../../../../arm-none-eabi/lib/thumb/v8-m.main+fp/hard\libg_nano.a(lib_a-lock.o)
recvUpBuf           0x4               ./tray/tray_upper.o
pCurTaskgroup       0x4               ./mlos/os/mlos_task.o
memblock1           0x14              ./mlos/port/RA6M4/mlos_port.o
pCurTmrList         0x4               ./mlos/os/mlos_rtimer.o
g_transfer1_ctrl    0x8               ./ra_gen/hal_data.o
g_uart1_ctrl        0x30              ./ra_gen/hal_data.o
__lock___malloc_recursive_mutex
                    0x1               c:/renesas/ra/e2studio_v2021-04_fsp_v3.0.0/toolchains/gcc_arm/9_2020q2/bin/../lib/gcc/arm-none-eabi/9.3.1/../../../../arm-none-eabi/lib/thumb/v8-m.main+fp/hard\libg_nano.a(lib_a-lock.o)
led                 0x14              ./public/u_led.o
can2TxfrmBuf        0x300             ./mllib/ctp/ctp.o
gCrntSmplSeq        0x4               ./tray/box.o
gCanMgr             0x4               ./tray/box.o
gp_renesas_isr_context
                    0x180             ./ra/fsp/src/bsp/mcu/all/bsp_irq.o
gDevMgr             0x4               ./tray/entry.o
gUartMgr            0x4               ./tray/uart.o
gTmpFlowInfo        0x4               ./tray/flow.o
w5500               0x24              ./mllib/ntp/w5500/ntp_w5500.o
sendUpBuf           0x4               ./tray/tray_upper.o
can2RxfrmBuf        0x300             ./mllib/ctp/ctp.o
gStepSmplReq        0x2               ./tray/tray_upper.o
g_uart0_ctrl        0x30              ./ra_gen/hal_data.o
cssdSpievent        0x4               ./mllib/mlflash/cssdcard/RA6M4/cs_sd_spi_driver.o
can1RxfrmBuf        0x600             ./mllib/ctp/ctp.o
gPlcMgr             0x4               ./tray/plc.o
sram1               0x8000            ./mlos/port/RA6M4/mlos_port.o
gTmpStepAmt         0x1               ./tray/flow.o
taskgroup           0x78              ./mlos/os/mlos_task.o
gMemFamily          0x8               ./tray/func.o
gTimerMgr           0x4               ./tray/timer.o
g_protect_pfswe_counter
                    0x4               ./ra/fsp/src/bsp/mcu/all/bsp_io.o
utp                 0x4c              ./mllib/utp/utp.o
__lock___at_quick_exit_mutex
                    0x1               c:/renesas/ra/e2studio_v2021-04_fsp_v3.0.0/toolchains/gcc_arm/9_2020q2/bin/../lib/gcc/arm-none-eabi/9.3.1/../../../../arm-none-eabi/lib/thumb/v8-m.main+fp/hard\libg_nano.a(lib_a-lock.o)
app                 0x1               ./app/u_app.o
gLogBuf             0x4               ./tray/log.o
cssd                0x408             ./mllib/mlflash/cssdcard/cs_sdcard.o
suspendTaskList     0xc               ./mlos/os/mlos_task.o
__lock___dd_hash_mutex
                    0x1               c:/renesas/ra/e2studio_v2021-04_fsp_v3.0.0/toolchains/gcc_arm/9_2020q2/bin/../lib/gcc/arm-none-eabi/9.3.1/../../../../arm-none-eabi/lib/thumb/v8-m.main+fp/hard\libg_nano.a(lib_a-lock.o)
__lock___tz_mutex   0x1               c:/renesas/ra/e2studio_v2021-04_fsp_v3.0.0/toolchains/gcc_arm/9_2020q2/bin/../lib/gcc/arm-none-eabi/9.3.1/../../../../arm-none-eabi/lib/thumb/v8-m.main+fp/hard\libg_nano.a(lib_a-lock.o)
pOvfTmrList         0x4               ./mlos/os/mlos_rtimer.o
toolNtp             0x10              ./mllib/tool/tool.o
memblock2           0x14              ./mlos/port/RA6M4/mlos_port.o
ctp                 0x48              ./mllib/ctp/ctp.o
can1TxfrmBuf        0x600             ./mllib/ctp/ctp.o
mx35lID             0x2               ./mllib/mlflash/mx35xx/mx35.o
ctpTxbuf            0x418             ./mllib/ctp/ctp.o
__lock___sfp_recursive_mutex
                    0x1               c:/renesas/ra/e2studio_v2021-04_fsp_v3.0.0/toolchains/gcc_arm/9_2020q2/bin/../lib/gcc/arm-none-eabi/9.3.1/../../../../arm-none-eabi/lib/thumb/v8-m.main+fp/hard\libg_nano.a(lib_a-lock.o)

Discarded input sections

 .text          0x00000000        0x0 c:/renesas/ra/e2studio_v2021-04_fsp_v3.0.0/toolchains/gcc_arm/9_2020q2/bin/../lib/gcc/arm-none-eabi/9.3.1/thumb/v8-m.main+fp/hard/crti.o
 .data          0x00000000        0x0 c:/renesas/ra/e2studio_v2021-04_fsp_v3.0.0/toolchains/gcc_arm/9_2020q2/bin/../lib/gcc/arm-none-eabi/9.3.1/thumb/v8-m.main+fp/hard/crti.o
 .bss           0x00000000        0x0 c:/renesas/ra/e2studio_v2021-04_fsp_v3.0.0/toolchains/gcc_arm/9_2020q2/bin/../lib/gcc/arm-none-eabi/9.3.1/thumb/v8-m.main+fp/hard/crti.o
 .data          0x00000000        0x4 c:/renesas/ra/e2studio_v2021-04_fsp_v3.0.0/toolchains/gcc_arm/9_2020q2/bin/../lib/gcc/arm-none-eabi/9.3.1/thumb/v8-m.main+fp/hard/crtbegin.o
 .text          0x00000000       0xf8 c:/renesas/ra/e2studio_v2021-04_fsp_v3.0.0/toolchains/gcc_arm/9_2020q2/bin/../lib/gcc/arm-none-eabi/9.3.1/../../../../arm-none-eabi/lib/thumb/v8-m.main+fp/hard/rdimon-crt0.o
 .data          0x00000000      0x118 c:/renesas/ra/e2studio_v2021-04_fsp_v3.0.0/toolchains/gcc_arm/9_2020q2/bin/../lib/gcc/arm-none-eabi/9.3.1/../../../../arm-none-eabi/lib/thumb/v8-m.main+fp/hard/rdimon-crt0.o
 .bss           0x00000000        0x0 c:/renesas/ra/e2studio_v2021-04_fsp_v3.0.0/toolchains/gcc_arm/9_2020q2/bin/../lib/gcc/arm-none-eabi/9.3.1/../../../../arm-none-eabi/lib/thumb/v8-m.main+fp/hard/rdimon-crt0.o
 .ARM.extab     0x00000000        0x0 c:/renesas/ra/e2studio_v2021-04_fsp_v3.0.0/toolchains/gcc_arm/9_2020q2/bin/../lib/gcc/arm-none-eabi/9.3.1/../../../../arm-none-eabi/lib/thumb/v8-m.main+fp/hard/rdimon-crt0.o
 .ARM.exidx     0x00000000       0x10 c:/renesas/ra/e2studio_v2021-04_fsp_v3.0.0/toolchains/gcc_arm/9_2020q2/bin/../lib/gcc/arm-none-eabi/9.3.1/../../../../arm-none-eabi/lib/thumb/v8-m.main+fp/hard/rdimon-crt0.o
 .ARM.attributes
                0x00000000       0x20 c:/renesas/ra/e2studio_v2021-04_fsp_v3.0.0/toolchains/gcc_arm/9_2020q2/bin/../lib/gcc/arm-none-eabi/9.3.1/../../../../arm-none-eabi/lib/thumb/v8-m.main+fp/hard/rdimon-crt0.o
 .text          0x00000000        0x0 ./tray/box.o
 .data          0x00000000        0x0 ./tray/box.o
 .bss           0x00000000        0x0 ./tray/box.o
 .text.canTxMsg
                0x00000000        0x4 ./tray/box.o
 .text.freeAuxCanBuf
                0x00000000       0x18 ./tray/box.o
 .text.canSmplBoxUpdate
                0x00000000       0x3c ./tray/box.o
 .text._____begin_of_can_ack_expire_____
                0x00000000        0x4 ./tray/box.o
 .text.boxExprSmplParallel
                0x00000000       0xf4 ./tray/box.o
 .text.boxExprSmplSeriesWoSw
                0x00000000      0x1cc ./tray/box.o
 .text.genExprSmplRcd
                0x00000000       0x14 ./tray/box.o
 .text._____begin_of_can_ack_recieve_____
                0x00000000        0x4 ./tray/box.o
 .text          0x00000000        0x0 ./tray/entry.o
 .data          0x00000000        0x0 ./tray/entry.o
 .bss           0x00000000        0x0 ./tray/entry.o
 .data.gCan0BoxIdx
                0x00000000        0x4 ./tray/entry.o
 .text          0x00000000        0x0 ./tray/flow.o
 .data          0x00000000        0x0 ./tray/flow.o
 .bss           0x00000000        0x0 ./tray/flow.o
 .text          0x00000000        0x0 ./tray/func.o
 .data          0x00000000        0x0 ./tray/func.o
 .bss           0x00000000        0x0 ./tray/func.o
 .rodata.outHex.str1.4
                0x00000000        0xf ./tray/func.o
 .text.outHex   0x00000000      0x144 ./tray/func.o
 .text          0x00000000        0x0 ./tray/log.o
 .data          0x00000000        0x0 ./tray/log.o
 .bss           0x00000000        0x0 ./tray/log.o
 .text.sendDbg  0x00000000        0x8 ./tray/log.o
 .text          0x00000000        0x0 ./tray/plc.o
 .data          0x00000000        0x0 ./tray/plc.o
 .bss           0x00000000        0x0 ./tray/plc.o
 .text          0x00000000        0x0 ./tray/timer.o
 .data          0x00000000        0x0 ./tray/timer.o
 .bss           0x00000000        0x0 ./tray/timer.o
 .text.sysTimeGet
                0x00000000       0x10 ./tray/timer.o
 .text.ctrlTimerTask
                0x00000000       0x64 ./tray/timer.o
 .text          0x00000000        0x0 ./tray/tray.o
 .data          0x00000000        0x0 ./tray/tray.o
 .bss           0x00000000        0x0 ./tray/tray.o
 .text          0x00000000        0x0 ./tray/tray_upper.o
 .data          0x00000000        0x0 ./tray/tray_upper.o
 .bss           0x00000000        0x0 ./tray/tray_upper.o
 .text.upStepChk
                0x00000000       0x20 ./tray/tray_upper.o
 .text._____begin_of_product_msg_____
                0x00000000        0x4 ./tray/tray_upper.o
 .text.sendUpConnCmd
                0x00000000      0x1f8 ./tray/tray_upper.o
 .text._____begin_of_upgrade_msg_____
                0x00000000        0x4 ./tray/tray_upper.o
 .text.setCaliAuxCanBuf
                0x00000000       0x20 ./tray/tray_upper.o
 .text.setUartBlockBuf
                0x00000000       0x30 ./tray/tray_upper.o
 .text.upMsgUpdSetupChk
                0x00000000       0x2c ./tray/tray_upper.o
 .text.UpUpdCanDevMap
                0x00000000       0x14 ./tray/tray_upper.o
 .text.UpUpdUartDevMap
                0x00000000       0x50 ./tray/tray_upper.o
 .text.upMsgUpdDldChk
                0x00000000       0x38 ./tray/tray_upper.o
 .text.upMsgUpdCnfmChk
                0x00000000       0x2c ./tray/tray_upper.o
 .text.rspUpUpdCnfm
                0x00000000       0x20 ./tray/tray_upper.o
 .text._____begin_fixture_precision_msg_____
                0x00000000        0x4 ./tray/tray_upper.o
 .text.upFixtNtfyChk
                0x00000000       0x30 ./tray/tray_upper.o
 .text.upFixtPrecChnlSwChk
                0x00000000       0x30 ./tray/tray_upper.o
 .text.upFixtPrecSmplChk
                0x00000000       0x2c ./tray/tray_upper.o
 .text.upFixtPrecOutChk
                0x00000000       0x24 ./tray/tray_upper.o
 .text._____begin_fixture_temperature_____
                0x00000000        0x4 ./tray/tray_upper.o
 .text.upFixtTmprHeatChk
                0x00000000       0x24 ./tray/tray_upper.o
 .text.upFixtTmprSmplChk
                0x00000000       0x2c ./tray/tray_upper.o
 .text._____begin_fixture_neg_pressure_____
                0x00000000        0x4 ./tray/tray_upper.o
 .text.upFixtGasSmplChk
                0x00000000       0x24 ./tray/tray_upper.o
 .text.upFixtFlowSmplChk
                0x00000000       0x24 ./tray/tray_upper.o
 .text._____begin_fixture_suction_____
                0x00000000        0x4 ./tray/tray_upper.o
 .text._____begin_fixture_location_____
                0x00000000        0x4 ./tray/tray_upper.o
 .text._____begin_of_calibration__msg_____
                0x00000000        0x4 ./tray/tray_upper.o
 .text.upCaliNtfyChk
                0x00000000       0x3c ./tray/tray_upper.o
 .text.caliChnIdx2Chn
                0x00000000       0x18 ./tray/tray_upper.o
 .text.upCaliStartChk
                0x00000000        0x4 ./tray/tray_upper.o
 .text.upCaliSmplChk
                0x00000000        0x4 ./tray/tray_upper.o
 .text.upCaliKbChk
                0x00000000        0x4 ./tray/tray_upper.o
 .text._____begin_of_needlebed__msg_____
                0x00000000        0x4 ./tray/tray_upper.o
 .text.upNdbdActChk
                0x00000000       0x28 ./tray/tray_upper.o
 .rodata.upDataRecv.str1.4
                0x00000000       0x3a ./tray/tray_upper.o
 .text.upDataRecv
                0x00000000       0xe8 ./tray/tray_upper.o
 .rodata.__FUNCTION__.30315
                0x00000000        0xb ./tray/tray_upper.o
 .text          0x00000000        0x0 ./tray/uart.o
 .data          0x00000000        0x0 ./tray/uart.o
 .bss           0x00000000        0x0 ./tray/uart.o
 .text.uartTxMsg
                0x00000000       0x14 ./tray/uart.o
 .text.freeUartBlockBuf
                0x00000000       0x18 ./tray/uart.o
 .text.uartSmplDevReset
                0x00000000       0x20 ./tray/uart.o
 .text.uartSmplDevUpdate
                0x00000000       0x38 ./tray/uart.o
 .text._____begin_of_uart_ack_expire_____
                0x00000000        0x4 ./tray/uart.o
 .text._____begin_of_uart_ack_recieve_____
                0x00000000        0x4 ./tray/uart.o
 .text          0x00000000        0x0 ./src/hal_entry.o
 .data          0x00000000        0x0 ./src/hal_entry.o
 .bss           0x00000000        0x0 ./src/hal_entry.o
 .text          0x00000000        0x0 ./ra_gen/common_data.o
 .data          0x00000000        0x0 ./ra_gen/common_data.o
 .bss           0x00000000        0x0 ./ra_gen/common_data.o
 .text.g_common_init
                0x00000000        0x4 ./ra_gen/common_data.o
 .rodata.g_ioport
                0x00000000        0xc ./ra_gen/common_data.o
 .text          0x00000000        0x0 ./ra_gen/hal_data.o
 .data          0x00000000        0x0 ./ra_gen/hal_data.o
 .bss           0x00000000        0x0 ./ra_gen/hal_data.o
 .text.g_hal_init
                0x00000000        0x4 ./ra_gen/hal_data.o
 .rodata.g_can0
                0x00000000        0xc ./ra_gen/hal_data.o
 .rodata.g_can1
                0x00000000        0xc ./ra_gen/hal_data.o
 .rodata.g_cssdSpi
                0x00000000        0xc ./ra_gen/hal_data.o
 .rodata.g_cssdSpi_cfg
                0x00000000       0x24 ./ra_gen/hal_data.o
 .rodata.g_cssdSpi_ext_cfg
                0x00000000        0xc ./ra_gen/hal_data.o
 .rodata.g_mcuflash
                0x00000000        0xc ./ra_gen/hal_data.o
 .rodata.g_mlosClockTimer
                0x00000000        0xc ./ra_gen/hal_data.o
 .rodata.g_mlosTaskElapsedTimer
                0x00000000        0xc ./ra_gen/hal_data.o
 .rodata.g_qspi0
                0x00000000        0xc ./ra_gen/hal_data.o
 .rodata.g_qspi0_cfg
                0x00000000       0x1c ./ra_gen/hal_data.o
 .rodata.g_qspi0_erase_command_list
                0x00000000       0x20 ./ra_gen/hal_data.o
 .rodata.g_qspi0_extended_cfg
                0x00000000        0x2 ./ra_gen/hal_data.o
 .rodata.g_uart0
                0x00000000        0xc ./ra_gen/hal_data.o
 .rodata.g_uart1
                0x00000000        0xc ./ra_gen/hal_data.o
 .rodata.g_w5500spi
                0x00000000        0xc ./ra_gen/hal_data.o
 .text          0x00000000        0x0 ./ra_gen/main.o
 .data          0x00000000        0x0 ./ra_gen/main.o
 .bss           0x00000000        0x0 ./ra_gen/main.o
 .text          0x00000000        0x0 ./ra_gen/pin_data.o
 .data          0x00000000        0x0 ./ra_gen/pin_data.o
 .bss           0x00000000        0x0 ./ra_gen/pin_data.o
 .text          0x00000000        0x0 ./ra_gen/vector_data.o
 .data          0x00000000        0x0 ./ra_gen/vector_data.o
 .bss           0x00000000        0x0 ./ra_gen/vector_data.o
 .text          0x00000000        0x0 ./ra/fsp/src/r_spi/r_spi.o
 .data          0x00000000        0x0 ./ra/fsp/src/r_spi/r_spi.o
 .bss           0x00000000        0x0 ./ra/fsp/src/r_spi/r_spi.o
 .text.R_SPI_CallbackSet
                0x00000000        0xc ./ra/fsp/src/r_spi/r_spi.o
 .text.R_SPI_Close
                0x00000000       0x98 ./ra/fsp/src/r_spi/r_spi.o
 .text.R_SPI_CalculateBitrate
                0x00000000       0x8c ./ra/fsp/src/r_spi/r_spi.o
 .text.R_SPI_Read
                0x00000000       0x34 ./ra/fsp/src/r_spi/r_spi.o
 .text.R_SPI_Write
                0x00000000       0x34 ./ra/fsp/src/r_spi/r_spi.o
 .text.R_SPI_WriteRead
                0x00000000       0x38 ./ra/fsp/src/r_spi/r_spi.o
 .rodata.g_spi_on_spi
                0x00000000       0x18 ./ra/fsp/src/r_spi/r_spi.o
 .text          0x00000000        0x0 ./ra/fsp/src/r_sci_uart/r_sci_uart.o
 .data          0x00000000        0x0 ./ra/fsp/src/r_sci_uart/r_sci_uart.o
 .bss           0x00000000        0x0 ./ra/fsp/src/r_sci_uart/r_sci_uart.o
 .text.R_SCI_UART_Close
                0x00000000       0xb4 ./ra/fsp/src/r_sci_uart/r_sci_uart.o
 .text.R_SCI_UART_Read
                0x00000000        0x8 ./ra/fsp/src/r_sci_uart/r_sci_uart.o
 .text.R_SCI_UART_CallbackSet
                0x00000000        0xc ./ra/fsp/src/r_sci_uart/r_sci_uart.o
 .text.R_SCI_UART_BaudSet
                0x00000000       0x40 ./ra/fsp/src/r_sci_uart/r_sci_uart.o
 .text.R_SCI_UART_InfoGet
                0x00000000        0xc ./ra/fsp/src/r_sci_uart/r_sci_uart.o
 .text.R_SCI_UART_Abort
                0x00000000       0x38 ./ra/fsp/src/r_sci_uart/r_sci_uart.o
 .text.R_SCI_UART_BaudCalculate
                0x00000000      0x18c ./ra/fsp/src/r_sci_uart/r_sci_uart.o
 .rodata.g_async_baud
                0x00000000        0xd ./ra/fsp/src/r_sci_uart/r_sci_uart.o
 .rodata.g_div_coefficient
                0x00000000       0x1a ./ra/fsp/src/r_sci_uart/r_sci_uart.o
 .rodata.g_uart_on_sci
                0x00000000       0x20 ./ra/fsp/src/r_sci_uart/r_sci_uart.o
 .text          0x00000000        0x0 ./ra/fsp/src/r_qspi/r_qspi.o
 .data          0x00000000        0x0 ./ra/fsp/src/r_qspi/r_qspi.o
 .bss           0x00000000        0x0 ./ra/fsp/src/r_qspi/r_qspi.o
 .text.R_QSPI_DirectWrite
                0x00000000       0x30 ./ra/fsp/src/r_qspi/r_qspi.o
 .text.R_QSPI_DirectRead
                0x00000000       0x24 ./ra/fsp/src/r_qspi/r_qspi.o
 .text.R_QSPI_XipEnter
                0x00000000       0x40 ./ra/fsp/src/r_qspi/r_qspi.o
 .text.R_QSPI_XipExit
                0x00000000       0x3c ./ra/fsp/src/r_qspi/r_qspi.o
 .text.R_QSPI_Write
                0x00000000       0xdc ./ra/fsp/src/r_qspi/r_qspi.o
 .text.R_QSPI_Erase
                0x00000000       0xa0 ./ra/fsp/src/r_qspi/r_qspi.o
 .text.R_QSPI_StatusGet
                0x00000000       0x28 ./ra/fsp/src/r_qspi/r_qspi.o
 .text.R_QSPI_BankSet
                0x00000000       0x10 ./ra/fsp/src/r_qspi/r_qspi.o
 .text.R_QSPI_SpiProtocolSet
                0x00000000       0x10 ./ra/fsp/src/r_qspi/r_qspi.o
 .text.R_QSPI_Close
                0x00000000       0x28 ./ra/fsp/src/r_qspi/r_qspi.o
 .text.qspi_d0_byte_write_quad_mode
                0x00000000       0x3c ./ra/fsp/src/r_qspi/r_qspi.o
 .text.qspi_d0_byte_write_dual_mode
                0x00000000       0x30 ./ra/fsp/src/r_qspi/r_qspi.o
 .text.qspi_d0_byte_write_standard
                0x00000000        0x8 ./ra/fsp/src/r_qspi/r_qspi.o
 .text.R_QSPI_Open
                0x00000000       0x80 ./ra/fsp/src/r_qspi/r_qspi.o
 .rodata.g_qspi_on_spi_flash
                0x00000000       0x30 ./ra/fsp/src/r_qspi/r_qspi.o
 .rodata.gp_qspi_prv_byte_write
                0x00000000        0xc ./ra/fsp/src/r_qspi/r_qspi.o
 .debug_info    0x00000000     0x2d97 ./ra/fsp/src/r_qspi/r_qspi.o
 .debug_abbrev  0x00000000      0x4c7 ./ra/fsp/src/r_qspi/r_qspi.o
 .debug_loc     0x00000000      0xc80 ./ra/fsp/src/r_qspi/r_qspi.o
 .debug_aranges
                0x00000000       0x88 ./ra/fsp/src/r_qspi/r_qspi.o
 .debug_ranges  0x00000000      0x1c0 ./ra/fsp/src/r_qspi/r_qspi.o
 .debug_line    0x00000000      0xbcf ./ra/fsp/src/r_qspi/r_qspi.o
 .debug_str     0x00000000     0x30ed ./ra/fsp/src/r_qspi/r_qspi.o
 .comment       0x00000000       0x4d ./ra/fsp/src/r_qspi/r_qspi.o
 .debug_frame   0x00000000      0x18c ./ra/fsp/src/r_qspi/r_qspi.o
 .ARM.attributes
                0x00000000       0x3a ./ra/fsp/src/r_qspi/r_qspi.o
 .text          0x00000000        0x0 ./ra/fsp/src/r_ioport/r_ioport.o
 .data          0x00000000        0x0 ./ra/fsp/src/r_ioport/r_ioport.o
 .bss           0x00000000        0x0 ./ra/fsp/src/r_ioport/r_ioport.o
 .text.R_IOPORT_Close
                0x00000000        0xc ./ra/fsp/src/r_ioport/r_ioport.o
 .text.R_IOPORT_PinRead
                0x00000000       0x1c ./ra/fsp/src/r_ioport/r_ioport.o
 .text.R_IOPORT_PortRead
                0x00000000       0x14 ./ra/fsp/src/r_ioport/r_ioport.o
 .text.R_IOPORT_PortWrite
                0x00000000       0x1c ./ra/fsp/src/r_ioport/r_ioport.o
 .text.R_IOPORT_PortDirectionSet
                0x00000000       0x28 ./ra/fsp/src/r_ioport/r_ioport.o
 .text.R_IOPORT_PortEventInputRead
                0x00000000       0x18 ./ra/fsp/src/r_ioport/r_ioport.o
 .text.R_IOPORT_PinEventInputRead
                0x00000000       0x2c ./ra/fsp/src/r_ioport/r_ioport.o
 .text.R_IOPORT_PortEventOutputWrite
                0x00000000       0x1c ./ra/fsp/src/r_ioport/r_ioport.o
 .text.R_IOPORT_PinEventOutputWrite
                0x00000000       0x44 ./ra/fsp/src/r_ioport/r_ioport.o
 .text.R_IOPORT_EthernetModeCfg
                0x00000000        0xc ./ra/fsp/src/r_ioport/r_ioport.o
 .text.R_IOPORT_PinsCfg
                0x00000000        0xc ./ra/fsp/src/r_ioport/r_ioport.o
 .text.R_IOPORT_PinCfg
                0x00000000       0xac ./ra/fsp/src/r_ioport/r_ioport.o
 .rodata.g_ioport_on_ioport
                0x00000000       0x38 ./ra/fsp/src/r_ioport/r_ioport.o
 .text          0x00000000        0x0 ./ra/fsp/src/r_gpt/r_gpt.o
 .data          0x00000000        0x0 ./ra/fsp/src/r_gpt/r_gpt.o
 .bss           0x00000000        0x0 ./ra/fsp/src/r_gpt/r_gpt.o
 .text.R_GPT_Enable
                0x00000000       0x30 ./ra/fsp/src/r_gpt/r_gpt.o
 .text.R_GPT_Disable
                0x00000000       0x18 ./ra/fsp/src/r_gpt/r_gpt.o
 .text.R_GPT_PeriodSet
                0x00000000       0x18 ./ra/fsp/src/r_gpt/r_gpt.o
 .text.R_GPT_DutyCycleSet
                0x00000000        0x4 ./ra/fsp/src/r_gpt/r_gpt.o
 .text.R_GPT_InfoGet
                0x00000000       0x3c ./ra/fsp/src/r_gpt/r_gpt.o
 .text.R_GPT_StatusGet
                0x00000000       0x14 ./ra/fsp/src/r_gpt/r_gpt.o
 .text.R_GPT_CallbackSet
                0x00000000        0xc ./ra/fsp/src/r_gpt/r_gpt.o
 .text.r_gpt_capture_common_isr
                0x00000000       0x94 ./ra/fsp/src/r_gpt/r_gpt.o
 .text.r_gpt_disable_irq.part.0
                0x00000000       0x34 ./ra/fsp/src/r_gpt/r_gpt.o
 .text.R_GPT_Close
                0x00000000       0x3c ./ra/fsp/src/r_gpt/r_gpt.o
 .text.R_GPT_CounterSet
                0x00000000        0x8 ./ra/fsp/src/r_gpt/r_gpt.o
 .text.R_GPT_OutputEnable
                0x00000000       0x20 ./ra/fsp/src/r_gpt/r_gpt.o
 .text.R_GPT_OutputDisable
                0x00000000       0x20 ./ra/fsp/src/r_gpt/r_gpt.o
 .text.R_GPT_AdcTriggerSet
                0x00000000        0xc ./ra/fsp/src/r_gpt/r_gpt.o
 .text.gpt_capture_a_isr
                0x00000000        0x8 ./ra/fsp/src/r_gpt/r_gpt.o
 .text.gpt_capture_b_isr
                0x00000000        0x8 ./ra/fsp/src/r_gpt/r_gpt.o
 .rodata.g_timer_on_gpt
                0x00000000       0x30 ./ra/fsp/src/r_gpt/r_gpt.o
 .text          0x00000000        0x0 ./ra/fsp/src/r_flash_hp/r_flash_hp.o
 .data          0x00000000        0x0 ./ra/fsp/src/r_flash_hp/r_flash_hp.o
 .bss           0x00000000        0x0 ./ra/fsp/src/r_flash_hp/r_flash_hp.o
 .text.R_FLASH_HP_StatusGet
                0x00000000       0x1c ./ra/fsp/src/r_flash_hp/r_flash_hp.o
 .text.R_FLASH_HP_IdCodeSet
                0x00000000        0x4 ./ra/fsp/src/r_flash_hp/r_flash_hp.o
 .text.R_FLASH_HP_AccessWindowSet
                0x00000000        0x4 ./ra/fsp/src/r_flash_hp/r_flash_hp.o
 .text.R_FLASH_HP_AccessWindowClear
                0x00000000        0x4 ./ra/fsp/src/r_flash_hp/r_flash_hp.o
 .text.R_FLASH_HP_InfoGet
                0x00000000       0x2c ./ra/fsp/src/r_flash_hp/r_flash_hp.o
 .text.R_FLASH_HP_Close
                0x00000000       0x68 ./ra/fsp/src/r_flash_hp/r_flash_hp.o
 .text.R_FLASH_HP_CallbackSet
                0x00000000        0xc ./ra/fsp/src/r_flash_hp/r_flash_hp.o
 .text.R_FLASH_HP_UpdateFlashClockFreq
                0x00000000        0x4 ./ra/fsp/src/r_flash_hp/r_flash_hp.o
 .text.r_flash_hp_call_callback
                0x00000000       0x38 ./ra/fsp/src/r_flash_hp/r_flash_hp.o
 .text.R_FLASH_HP_Reset
                0x00000000        0x4 ./ra/fsp/src/r_flash_hp/r_flash_hp.o
 .text.R_FLASH_HP_BlankCheck
                0x00000000       0xe0 ./ra/fsp/src/r_flash_hp/r_flash_hp.o
 .text.R_FLASH_HP_BankSwap
                0x00000000        0xc ./ra/fsp/src/r_flash_hp/r_flash_hp.o
 .text.fcu_fiferr_isr
                0x00000000       0x70 ./ra/fsp/src/r_flash_hp/r_flash_hp.o
 .text.fcu_frdyi_isr
                0x00000000       0xa0 ./ra/fsp/src/r_flash_hp/r_flash_hp.o
 .rodata.g_code_flash_macro_info
                0x00000000       0x20 ./ra/fsp/src/r_flash_hp/r_flash_hp.o
 .rodata.g_data_flash_macro_info
                0x00000000       0x10 ./ra/fsp/src/r_flash_hp/r_flash_hp.o
 .rodata.g_flash_code_region
                0x00000000        0x8 ./ra/fsp/src/r_flash_hp/r_flash_hp.o
 .rodata.g_flash_data_region
                0x00000000        0x8 ./ra/fsp/src/r_flash_hp/r_flash_hp.o
 .rodata.g_flash_on_flash_hp
                0x00000000       0x3c ./ra/fsp/src/r_flash_hp/r_flash_hp.o
 .text          0x00000000        0x0 ./ra/fsp/src/r_dtc/r_dtc.o
 .data          0x00000000        0x0 ./ra/fsp/src/r_dtc/r_dtc.o
 .bss           0x00000000        0x0 ./ra/fsp/src/r_dtc/r_dtc.o
 .text          0x00000000        0x0 ./ra/fsp/src/r_can/r_can.o
 .data          0x00000000        0x0 ./ra/fsp/src/r_can/r_can.o
 .bss           0x00000000        0x0 ./ra/fsp/src/r_can/r_can.o
 .text.R_CAN_Close
                0x00000000       0x9c ./ra/fsp/src/r_can/r_can.o
 .text.R_CAN_Write
                0x00000000       0x9c ./ra/fsp/src/r_can/r_can.o
 .text.R_CAN_Read
                0x00000000        0x4 ./ra/fsp/src/r_can/r_can.o
 .text.R_CAN_InfoGet
                0x00000000       0x34 ./ra/fsp/src/r_can/r_can.o
 .text.R_CAN_CallbackSet
                0x00000000        0xc ./ra/fsp/src/r_can/r_can.o
 .text.R_CAN_ModeTransition
                0x00000000        0xc ./ra/fsp/src/r_can/r_can.o
 .rodata.g_can_on_can
                0x00000000       0x1c ./ra/fsp/src/r_can/r_can.o
 .text          0x00000000        0x0 ./ra/fsp/src/bsp/mcu/all/bsp_clocks.o
 .data          0x00000000        0x0 ./ra/fsp/src/bsp/mcu/all/bsp_clocks.o
 .bss           0x00000000        0x0 ./ra/fsp/src/bsp/mcu/all/bsp_clocks.o
 .text.bsp_prv_operating_mode_set
                0x00000000       0x60 ./ra/fsp/src/bsp/mcu/all/bsp_clocks.o
 .text.bsp_prv_prepare_pll
                0x00000000        0xc ./ra/fsp/src/bsp/mcu/all/bsp_clocks.o
 .text.bsp_prv_clock_set
                0x00000000       0xc0 ./ra/fsp/src/bsp/mcu/all/bsp_clocks.o
 .text.R_BSP_OctaclkUpdate
                0x00000000       0x54 ./ra/fsp/src/bsp/mcu/all/bsp_clocks.o
 .text          0x00000000        0x0 ./ra/fsp/src/bsp/mcu/all/bsp_common.o
 .data          0x00000000        0x0 ./ra/fsp/src/bsp/mcu/all/bsp_common.o
 .bss           0x00000000        0x0 ./ra/fsp/src/bsp/mcu/all/bsp_common.o
 .text.R_FSP_VersionGet
                0x00000000        0xc ./ra/fsp/src/bsp/mcu/all/bsp_common.o
 .text.__assert_func
                0x00000000        0x4 ./ra/fsp/src/bsp/mcu/all/bsp_common.o
 .text          0x00000000        0x0 ./ra/fsp/src/bsp/mcu/all/bsp_delay.o
 .data          0x00000000        0x0 ./ra/fsp/src/bsp/mcu/all/bsp_delay.o
 .bss           0x00000000        0x0 ./ra/fsp/src/bsp/mcu/all/bsp_delay.o
 .text.bsp_prv_software_delay_loop
                0x00000000        0xc ./ra/fsp/src/bsp/mcu/all/bsp_delay.o
 .text.R_BSP_SoftwareDelay
                0x00000000       0x5c ./ra/fsp/src/bsp/mcu/all/bsp_delay.o
 .debug_info    0x00000000      0xac4 ./ra/fsp/src/bsp/mcu/all/bsp_delay.o
 .debug_abbrev  0x00000000      0x281 ./ra/fsp/src/bsp/mcu/all/bsp_delay.o
 .debug_loc     0x00000000      0x238 ./ra/fsp/src/bsp/mcu/all/bsp_delay.o
 .debug_aranges
                0x00000000       0x28 ./ra/fsp/src/bsp/mcu/all/bsp_delay.o
 .debug_ranges  0x00000000       0x18 ./ra/fsp/src/bsp/mcu/all/bsp_delay.o
 .debug_line    0x00000000      0x36f ./ra/fsp/src/bsp/mcu/all/bsp_delay.o
 .debug_str     0x00000000      0x6f5 ./ra/fsp/src/bsp/mcu/all/bsp_delay.o
 .comment       0x00000000       0x4d ./ra/fsp/src/bsp/mcu/all/bsp_delay.o
 .debug_frame   0x00000000       0x58 ./ra/fsp/src/bsp/mcu/all/bsp_delay.o
 .ARM.attributes
                0x00000000       0x3a ./ra/fsp/src/bsp/mcu/all/bsp_delay.o
 .text          0x00000000        0x0 ./ra/fsp/src/bsp/mcu/all/bsp_group_irq.o
 .data          0x00000000        0x0 ./ra/fsp/src/bsp/mcu/all/bsp_group_irq.o
 .bss           0x00000000        0x0 ./ra/fsp/src/bsp/mcu/all/bsp_group_irq.o
 .text.R_BSP_GroupIrqWrite
                0x00000000       0x10 ./ra/fsp/src/bsp/mcu/all/bsp_group_irq.o
 .text          0x00000000        0x0 ./ra/fsp/src/bsp/mcu/all/bsp_guard.o
 .data          0x00000000        0x0 ./ra/fsp/src/bsp/mcu/all/bsp_guard.o
 .bss           0x00000000        0x0 ./ra/fsp/src/bsp/mcu/all/bsp_guard.o
 .debug_info    0x00000000      0x982 ./ra/fsp/src/bsp/mcu/all/bsp_guard.o
 .debug_abbrev  0x00000000      0x1b8 ./ra/fsp/src/bsp/mcu/all/bsp_guard.o
 .debug_aranges
                0x00000000       0x18 ./ra/fsp/src/bsp/mcu/all/bsp_guard.o
 .debug_line    0x00000000      0x283 ./ra/fsp/src/bsp/mcu/all/bsp_guard.o
 .debug_str     0x00000000      0x5f0 ./ra/fsp/src/bsp/mcu/all/bsp_guard.o
 .comment       0x00000000       0x4d ./ra/fsp/src/bsp/mcu/all/bsp_guard.o
 .ARM.attributes
                0x00000000       0x3c ./ra/fsp/src/bsp/mcu/all/bsp_guard.o
 .text          0x00000000        0x0 ./ra/fsp/src/bsp/mcu/all/bsp_io.o
 .data          0x00000000        0x0 ./ra/fsp/src/bsp/mcu/all/bsp_io.o
 .bss           0x00000000        0x0 ./ra/fsp/src/bsp/mcu/all/bsp_io.o
 .text          0x00000000        0x0 ./ra/fsp/src/bsp/mcu/all/bsp_irq.o
 .data          0x00000000        0x0 ./ra/fsp/src/bsp/mcu/all/bsp_irq.o
 .bss           0x00000000        0x0 ./ra/fsp/src/bsp/mcu/all/bsp_irq.o
 .rodata.g_interrupt_event_link_select
                0x00000000       0xc0 ./ra/fsp/src/bsp/mcu/all/bsp_irq.o
 .text          0x00000000        0x0 ./ra/fsp/src/bsp/mcu/all/bsp_register_protection.o
 .data          0x00000000        0x0 ./ra/fsp/src/bsp/mcu/all/bsp_register_protection.o
 .bss           0x00000000        0x0 ./ra/fsp/src/bsp/mcu/all/bsp_register_protection.o
 .text          0x00000000        0x0 ./ra/fsp/src/bsp/mcu/all/bsp_rom_registers.o
 .data          0x00000000        0x0 ./ra/fsp/src/bsp/mcu/all/bsp_rom_registers.o
 .bss           0x00000000        0x0 ./ra/fsp/src/bsp/mcu/all/bsp_rom_registers.o
 .text          0x00000000        0x0 ./ra/fsp/src/bsp/mcu/all/bsp_sbrk.o
 .data          0x00000000        0x0 ./ra/fsp/src/bsp/mcu/all/bsp_sbrk.o
 .bss           0x00000000        0x0 ./ra/fsp/src/bsp/mcu/all/bsp_sbrk.o
 .text          0x00000000        0x0 ./ra/fsp/src/bsp/mcu/all/bsp_security.o
 .data          0x00000000        0x0 ./ra/fsp/src/bsp/mcu/all/bsp_security.o
 .bss           0x00000000        0x0 ./ra/fsp/src/bsp/mcu/all/bsp_security.o
 .rodata.gp_start_of_nonsecure_flash
                0x00000000        0x4 ./ra/fsp/src/bsp/mcu/all/bsp_security.o
 .debug_info    0x00000000      0x9e3 ./ra/fsp/src/bsp/mcu/all/bsp_security.o
 .debug_abbrev  0x00000000      0x1cb ./ra/fsp/src/bsp/mcu/all/bsp_security.o
 .debug_aranges
                0x00000000       0x18 ./ra/fsp/src/bsp/mcu/all/bsp_security.o
 .debug_line    0x00000000      0x2e6 ./ra/fsp/src/bsp/mcu/all/bsp_security.o
 .debug_str     0x00000000      0x640 ./ra/fsp/src/bsp/mcu/all/bsp_security.o
 .comment       0x00000000       0x4d ./ra/fsp/src/bsp/mcu/all/bsp_security.o
 .ARM.attributes
                0x00000000       0x3c ./ra/fsp/src/bsp/mcu/all/bsp_security.o
 .text          0x00000000        0x0 ./ra/fsp/src/bsp/cmsis/Device/RENESAS/Source/startup.o
 .data          0x00000000        0x0 ./ra/fsp/src/bsp/cmsis/Device/RENESAS/Source/startup.o
 .bss           0x00000000        0x0 ./ra/fsp/src/bsp/cmsis/Device/RENESAS/Source/startup.o
 .text          0x00000000        0x0 ./ra/fsp/src/bsp/cmsis/Device/RENESAS/Source/system.o
 .data          0x00000000        0x0 ./ra/fsp/src/bsp/cmsis/Device/RENESAS/Source/system.o
 .bss           0x00000000        0x0 ./ra/fsp/src/bsp/cmsis/Device/RENESAS/Source/system.o
 .text.R_BSP_WarmStart
                0x00000000        0x4 ./ra/fsp/src/bsp/cmsis/Device/RENESAS/Source/system.o
 .text          0x00000000        0x0 ./public/u_function.o
 .data          0x00000000        0x0 ./public/u_function.o
 .bss           0x00000000        0x0 ./public/u_function.o
 .text          0x00000000        0x0 ./public/u_led.o
 .data          0x00000000        0x0 ./public/u_led.o
 .bss           0x00000000        0x0 ./public/u_led.o
 .text.led_twinkle_disable
                0x00000000       0x38 ./public/u_led.o
 .text.led_red_switch
                0x00000000       0x10 ./public/u_led.o
 .text.led_green_switch
                0x00000000       0x10 ./public/u_led.o
 .text.led_blue_switch
                0x00000000       0x10 ./public/u_led.o
 .text.led_twinkle_red
                0x00000000       0x40 ./public/u_led.o
 .text.led_twinkle_green
                0x00000000       0x40 ./public/u_led.o
 .text.led_twinkle_orange
                0x00000000       0x3c ./public/u_led.o
 .text.led_off  0x00000000       0x10 ./public/u_led.o
 .text          0x00000000        0x0 ./public/u_setting.o
 .data          0x00000000        0x0 ./public/u_setting.o
 .bss           0x00000000        0x0 ./public/u_setting.o
 .text.setting_update
                0x00000000       0x24 ./public/u_setting.o
 .text.setting_in_being
                0x00000000       0x38 ./public/u_setting.o
 .text          0x00000000        0x0 ./public/u_setting_tool_ntp.o
 .data          0x00000000        0x0 ./public/u_setting_tool_ntp.o
 .bss           0x00000000        0x0 ./public/u_setting_tool_ntp.o
 .text          0x00000000        0x0 ./mlos/services/mlos_log.o
 .data          0x00000000        0x0 ./mlos/services/mlos_log.o
 .bss           0x00000000        0x0 ./mlos/services/mlos_log.o
 .text.log_print_switch
                0x00000000       0x18 ./mlos/services/mlos_log.o
 .text          0x00000000        0x0 ./mlos/services/mlos_shell.o
 .data          0x00000000        0x0 ./mlos/services/mlos_shell.o
 .bss           0x00000000        0x0 ./mlos/services/mlos_shell.o
 .text.shell_cmd_check
                0x00000000       0x34 ./mlos/services/mlos_shell.o
 .text.shell_cmd_log
                0x00000000        0x4 ./mlos/services/mlos_shell.o
 .rodata.shell_cmd_reset.str1.4
                0x00000000       0x12 ./mlos/services/mlos_shell.o
 .text.shell_cmd_reset
                0x00000000       0x14 ./mlos/services/mlos_shell.o
 .text.shell_cmd_buf
                0x00000000        0x8 ./mlos/services/mlos_shell.o
 .text          0x00000000        0x0 ./mlos/port/RA6M4/mlos_port.o
 .data          0x00000000        0x0 ./mlos/port/RA6M4/mlos_port.o
 .bss           0x00000000        0x0 ./mlos/port/RA6M4/mlos_port.o
 .text.exsram_check
                0x00000000       0x20 ./mlos/port/RA6M4/mlos_port.o
 .text          0x00000000        0x0 ./mlos/os/mlos.o
 .data          0x00000000        0x0 ./mlos/os/mlos.o
 .bss           0x00000000        0x0 ./mlos/os/mlos.o
 .text.mlos_assert_failed
                0x00000000        0x4 ./mlos/os/mlos.o
 .text.mlos_mem_copy
                0x00000000       0x14 ./mlos/os/mlos.o
 .text.mlos_exit
                0x00000000        0x4 ./mlos/os/mlos.o
 .text          0x00000000        0x0 ./mlos/os/mlos_clock.o
 .data          0x00000000        0x0 ./mlos/os/mlos_clock.o
 .bss           0x00000000        0x0 ./mlos/os/mlos_clock.o
 .text          0x00000000        0x0 ./mlos/os/mlos_list.o
 .data          0x00000000        0x0 ./mlos/os/mlos_list.o
 .bss           0x00000000        0x0 ./mlos/os/mlos_list.o
 .text.list_remove
                0x00000000       0x8c ./mlos/os/mlos_list.o
 .text.list_clear
                0x00000000        0xc ./mlos/os/mlos_list.o
 .text.list_key_contains
                0x00000000       0x44 ./mlos/os/mlos_list.o
 .text.list_value_contains
                0x00000000       0x2c ./mlos/os/mlos_list.o
 .text          0x00000000        0x0 ./mlos/os/mlos_ltimer.o
 .data          0x00000000        0x0 ./mlos/os/mlos_ltimer.o
 .bss           0x00000000        0x0 ./mlos/os/mlos_ltimer.o
 .text          0x00000000        0x0 ./mlos/os/mlos_malloc.o
 .data          0x00000000        0x0 ./mlos/os/mlos_malloc.o
 .bss           0x00000000        0x0 ./mlos/os/mlos_malloc.o
 .text.mlos_mem_statistics
                0x00000000       0x30 ./mlos/os/mlos_malloc.o
 .text          0x00000000        0x0 ./mlos/os/mlos_mpump.o
 .data          0x00000000        0x0 ./mlos/os/mlos_mpump.o
 .bss           0x00000000        0x0 ./mlos/os/mlos_mpump.o
 .text.list_message_find
                0x00000000       0x14 ./mlos/os/mlos_mpump.o
 .text.consumer_find
                0x00000000       0x14 ./mlos/os/mlos_mpump.o
 .text          0x00000000        0x0 ./mlos/os/mlos_que.o
 .data          0x00000000        0x0 ./mlos/os/mlos_que.o
 .bss           0x00000000        0x0 ./mlos/os/mlos_que.o
 .text.que_clear
                0x00000000        0xc ./mlos/os/mlos_que.o
 .text          0x00000000        0x0 ./mlos/os/mlos_rtimer.o
 .data          0x00000000        0x0 ./mlos/os/mlos_rtimer.o
 .bss           0x00000000        0x0 ./mlos/os/mlos_rtimer.o
 .text.rtimer_init
                0x00000000       0x20 ./mlos/os/mlos_rtimer.o
 .text.rtimer_create
                0x00000000       0x3c ./mlos/os/mlos_rtimer.o
 .text.rtimer_stop
                0x00000000       0x18 ./mlos/os/mlos_rtimer.o
 .text          0x00000000        0x0 ./mlos/os/mlos_task.o
 .data          0x00000000        0x0 ./mlos/os/mlos_task.o
 .bss           0x00000000        0x0 ./mlos/os/mlos_task.o
 .text.task_name_set
                0x00000000        0x4 ./mlos/os/mlos_task.o
 .text          0x00000000        0x0 ./mllib/utp/ra6m4/utp_uart_driver.o
 .data          0x00000000        0x0 ./mllib/utp/ra6m4/utp_uart_driver.o
 .bss           0x00000000        0x0 ./mllib/utp/ra6m4/utp_uart_driver.o
 .text          0x00000000        0x0 ./mllib/utp/pb.o
 .data          0x00000000        0x0 ./mllib/utp/pb.o
 .bss           0x00000000        0x0 ./mllib/utp/pb.o
 .text.Pb_Txmsg
                0x00000000       0x38 ./mllib/utp/pb.o
 .text.Pb_Rxmsg
                0x00000000        0x4 ./mllib/utp/pb.o
 .text          0x00000000        0x0 ./mllib/utp/public.o
 .data          0x00000000        0x0 ./mllib/utp/public.o
 .bss           0x00000000        0x0 ./mllib/utp/public.o
 .text.delay_rough_us
                0x00000000        0x4 ./mllib/utp/public.o
 .text          0x00000000        0x0 ./mllib/utp/utp.o
 .data          0x00000000        0x0 ./mllib/utp/utp.o
 .bss           0x00000000        0x0 ./mllib/utp/utp.o
 .text.utp_tx   0x00000000       0x10 ./mllib/utp/utp.o
 .text          0x00000000        0x0 ./mllib/upper/upper_ntp.o
 .data          0x00000000        0x0 ./mllib/upper/upper_ntp.o
 .bss           0x00000000        0x0 ./mllib/upper/upper_ntp.o
 .text.upper_txbuf_malloc
                0x00000000       0x30 ./mllib/upper/upper_ntp.o
 .text.upper_sum_check
                0x00000000       0x30 ./mllib/upper/upper_ntp.o
 .text          0x00000000        0x0 ./mllib/tool/tool.o
 .data          0x00000000        0x0 ./mllib/tool/tool.o
 .bss           0x00000000        0x0 ./mllib/tool/tool.o
 .text.tool_data_sum_check
                0x00000000       0x38 ./mllib/tool/tool.o
 .text          0x00000000        0x0 ./mllib/ntp/w5500/ra6m4/ntp_w5500_spi_driver.o
 .data          0x00000000        0x0 ./mllib/ntp/w5500/ra6m4/ntp_w5500_spi_driver.o
 .bss           0x00000000        0x0 ./mllib/ntp/w5500/ra6m4/ntp_w5500_spi_driver.o
 .text.w5500_spi_select
                0x00000000       0x10 ./mllib/ntp/w5500/ra6m4/ntp_w5500_spi_driver.o
 .text.w5500_spi_deselect
                0x00000000       0x10 ./mllib/ntp/w5500/ra6m4/ntp_w5500_spi_driver.o
 .text          0x00000000        0x0 ./mllib/ntp/w5500/ntp_w5500.o
 .data          0x00000000        0x0 ./mllib/ntp/w5500/ntp_w5500.o
 .bss           0x00000000        0x0 ./mllib/ntp/w5500/ntp_w5500.o
 .text          0x00000000        0x0 ./mllib/ntp/ntp.o
 .data          0x00000000        0x0 ./mllib/ntp/ntp.o
 .bss           0x00000000        0x0 ./mllib/ntp/ntp.o
 .text          0x00000000        0x0 ./mllib/ntp/ntp_usocket.o
 .data          0x00000000        0x0 ./mllib/ntp/ntp_usocket.o
 .bss           0x00000000        0x0 ./mllib/ntp/ntp_usocket.o
 .text          0x00000000        0x0 ./mllib/mlflash/mx35xx/RA6M4/mx35_spi_driver.o
 .data          0x00000000        0x0 ./mllib/mlflash/mx35xx/RA6M4/mx35_spi_driver.o
 .bss           0x00000000        0x0 ./mllib/mlflash/mx35xx/RA6M4/mx35_spi_driver.o
 .text.mx_spi_flash_read
                0x00000000       0xa8 ./mllib/mlflash/mx35xx/RA6M4/mx35_spi_driver.o
 .text.mx_spi_flash_write
                0x00000000       0x9c ./mllib/mlflash/mx35xx/RA6M4/mx35_spi_driver.o
 .text.mx_spi_init
                0x00000000       0x10 ./mllib/mlflash/mx35xx/RA6M4/mx35_spi_driver.o
 .data.pQspi    0x00000000        0x4 ./mllib/mlflash/mx35xx/RA6M4/mx35_spi_driver.o
 .debug_info    0x00000000     0xa301 ./mllib/mlflash/mx35xx/RA6M4/mx35_spi_driver.o
 .debug_abbrev  0x00000000      0x35e ./mllib/mlflash/mx35xx/RA6M4/mx35_spi_driver.o
 .debug_loc     0x00000000      0x344 ./mllib/mlflash/mx35xx/RA6M4/mx35_spi_driver.o
 .debug_aranges
                0x00000000       0x30 ./mllib/mlflash/mx35xx/RA6M4/mx35_spi_driver.o
 .debug_ranges  0x00000000       0x20 ./mllib/mlflash/mx35xx/RA6M4/mx35_spi_driver.o
 .debug_line    0x00000000      0x802 ./mllib/mlflash/mx35xx/RA6M4/mx35_spi_driver.o
 .debug_str     0x00000000     0x7981 ./mllib/mlflash/mx35xx/RA6M4/mx35_spi_driver.o
 .comment       0x00000000       0x4d ./mllib/mlflash/mx35xx/RA6M4/mx35_spi_driver.o
 .debug_frame   0x00000000       0x60 ./mllib/mlflash/mx35xx/RA6M4/mx35_spi_driver.o
 .ARM.attributes
                0x00000000       0x3a ./mllib/mlflash/mx35xx/RA6M4/mx35_spi_driver.o
 .text          0x00000000        0x0 ./mllib/mlflash/mx35xx/mx35.o
 .data          0x00000000        0x0 ./mllib/mlflash/mx35xx/mx35.o
 .bss           0x00000000        0x0 ./mllib/mlflash/mx35xx/mx35.o
 .text.mx_id_read
                0x00000000       0x20 ./mllib/mlflash/mx35xx/mx35.o
 .text.mx_status_read
                0x00000000       0x24 ./mllib/mlflash/mx35xx/mx35.o
 .text.mx_cnfg_read
                0x00000000       0x24 ./mllib/mlflash/mx35xx/mx35.o
 .text.mx_block_protection_read
                0x00000000       0x24 ./mllib/mlflash/mx35xx/mx35.o
 .text.mx_quad_enable
                0x00000000       0x2c ./mllib/mlflash/mx35xx/mx35.o
 .text.mx_protect_disable
                0x00000000       0x2c ./mllib/mlflash/mx35xx/mx35.o
 .text.mx_reset
                0x00000000       0x28 ./mllib/mlflash/mx35xx/mx35.o
 .text.mx_write_enable
                0x00000000       0x28 ./mllib/mlflash/mx35xx/mx35.o
 .text.mx_block_erase
                0x00000000       0x78 ./mllib/mlflash/mx35xx/mx35.o
 .text.mx_program_execute
                0x00000000       0x2c ./mllib/mlflash/mx35xx/mx35.o
 .text.mx_page_write
                0x00000000       0xcc ./mllib/mlflash/mx35xx/mx35.o
 .text.mx_page_read
                0x00000000       0x9c ./mllib/mlflash/mx35xx/mx35.o
 .text.mx_task  0x00000000      0x140 ./mllib/mlflash/mx35xx/mx35.o
 .rodata.mx_init.str1.4
                0x00000000        0x5 ./mllib/mlflash/mx35xx/mx35.o
 .text.mx_init  0x00000000       0x68 ./mllib/mlflash/mx35xx/mx35.o
 .bss.readBuf   0x00000000      0x800 ./mllib/mlflash/mx35xx/mx35.o
 .bss.writeBuf  0x00000000      0x800 ./mllib/mlflash/mx35xx/mx35.o
 .debug_info    0x00000000     0xafab ./mllib/mlflash/mx35xx/mx35.o
 .debug_abbrev  0x00000000      0x51a ./mllib/mlflash/mx35xx/mx35.o
 .debug_loc     0x00000000      0x4c6 ./mllib/mlflash/mx35xx/mx35.o
 .debug_aranges
                0x00000000       0x88 ./mllib/mlflash/mx35xx/mx35.o
 .debug_ranges  0x00000000      0x140 ./mllib/mlflash/mx35xx/mx35.o
 .debug_line    0x00000000      0xe97 ./mllib/mlflash/mx35xx/mx35.o
 .debug_str     0x00000000     0x7e89 ./mllib/mlflash/mx35xx/mx35.o
 .comment       0x00000000       0x4d ./mllib/mlflash/mx35xx/mx35.o
 .debug_frame   0x00000000      0x1e4 ./mllib/mlflash/mx35xx/mx35.o
 .ARM.attributes
                0x00000000       0x3a ./mllib/mlflash/mx35xx/mx35.o
 COMMON         0x00000000       0x16 ./mllib/mlflash/mx35xx/mx35.o
 .text          0x00000000        0x0 ./mllib/mlflash/mcuflash/RA6M4/mcu_flash.o
 .data          0x00000000        0x0 ./mllib/mlflash/mcuflash/RA6M4/mcu_flash.o
 .bss           0x00000000        0x0 ./mllib/mlflash/mcuflash/RA6M4/mcu_flash.o
 .text.mcu_flash_read
                0x00000000        0xc ./mllib/mlflash/mcuflash/RA6M4/mcu_flash.o
 .text          0x00000000        0x0 ./mllib/mlflash/cssdcard/RA6M4/cs_sd_spi_driver.o
 .data          0x00000000        0x0 ./mllib/mlflash/cssdcard/RA6M4/cs_sd_spi_driver.o
 .bss           0x00000000        0x0 ./mllib/mlflash/cssdcard/RA6M4/cs_sd_spi_driver.o
 .text.cssd_spi_select
                0x00000000       0x10 ./mllib/mlflash/cssdcard/RA6M4/cs_sd_spi_driver.o
 .text.cssd_spi_deselect
                0x00000000       0x10 ./mllib/mlflash/cssdcard/RA6M4/cs_sd_spi_driver.o
 .text.cssd_spi_callback
                0x00000000       0x14 ./mllib/mlflash/cssdcard/RA6M4/cs_sd_spi_driver.o
 .text.cssd_spi_read_byte
                0x00000000       0x1c ./mllib/mlflash/cssdcard/RA6M4/cs_sd_spi_driver.o
 .text.cssd_spi_write_byte
                0x00000000       0x1c ./mllib/mlflash/cssdcard/RA6M4/cs_sd_spi_driver.o
 .text.cssd_rw_buf
                0x00000000       0x24 ./mllib/mlflash/cssdcard/RA6M4/cs_sd_spi_driver.o
 .text.cssd_spi_write
                0x00000000       0x38 ./mllib/mlflash/cssdcard/RA6M4/cs_sd_spi_driver.o
 .text.cssd_spi_read
                0x00000000       0x38 ./mllib/mlflash/cssdcard/RA6M4/cs_sd_spi_driver.o
 .text.cssd_spi_low_speed_set
                0x00000000       0x18 ./mllib/mlflash/cssdcard/RA6M4/cs_sd_spi_driver.o
 .text.cssd_spi_high_speed_set
                0x00000000       0x18 ./mllib/mlflash/cssdcard/RA6M4/cs_sd_spi_driver.o
 .text.cssd_spi_init
                0x00000000       0x9c ./mllib/mlflash/cssdcard/RA6M4/cs_sd_spi_driver.o
 .debug_info    0x00000000     0x9f06 ./mllib/mlflash/cssdcard/RA6M4/cs_sd_spi_driver.o
 .debug_abbrev  0x00000000      0x48f ./mllib/mlflash/cssdcard/RA6M4/cs_sd_spi_driver.o
 .debug_loc     0x00000000      0x184 ./mllib/mlflash/cssdcard/RA6M4/cs_sd_spi_driver.o
 .debug_aranges
                0x00000000       0x70 ./mllib/mlflash/cssdcard/RA6M4/cs_sd_spi_driver.o
 .debug_ranges  0x00000000       0x78 ./mllib/mlflash/cssdcard/RA6M4/cs_sd_spi_driver.o
 .debug_line    0x00000000      0x931 ./mllib/mlflash/cssdcard/RA6M4/cs_sd_spi_driver.o
 .debug_str     0x00000000     0x78a7 ./mllib/mlflash/cssdcard/RA6M4/cs_sd_spi_driver.o
 .comment       0x00000000       0x4d ./mllib/mlflash/cssdcard/RA6M4/cs_sd_spi_driver.o
 .debug_frame   0x00000000       0xf0 ./mllib/mlflash/cssdcard/RA6M4/cs_sd_spi_driver.o
 .ARM.attributes
                0x00000000       0x3a ./mllib/mlflash/cssdcard/RA6M4/cs_sd_spi_driver.o
 COMMON         0x00000000        0x4 ./mllib/mlflash/cssdcard/RA6M4/cs_sd_spi_driver.o
 .text          0x00000000        0x0 ./mllib/mlflash/cssdcard/cs_sdcard.o
 .data          0x00000000        0x0 ./mllib/mlflash/cssdcard/cs_sdcard.o
 .bss           0x00000000        0x0 ./mllib/mlflash/cssdcard/cs_sdcard.o
 .text.cssd_response_read
                0x00000000       0x20 ./mllib/mlflash/cssdcard/cs_sdcard.o
 .text.cssd_cmd_send
                0x00000000       0x50 ./mllib/mlflash/cssdcard/cs_sdcard.o
 .text.cssd_dataresponse_read
                0x00000000       0x40 ./mllib/mlflash/cssdcard/cs_sdcard.o
 .rodata.cssd_read_sector.str1.4
                0x00000000       0x1c ./mllib/mlflash/cssdcard/cs_sdcard.o
 .text.cssd_read_sector
                0x00000000       0xe8 ./mllib/mlflash/cssdcard/cs_sdcard.o
 .rodata.cssd_write_sector.str1.4
                0x00000000       0x1d ./mllib/mlflash/cssdcard/cs_sdcard.o
 .text.cssd_write_sector
                0x00000000       0xec ./mllib/mlflash/cssdcard/cs_sdcard.o
 .rodata.cssd_task.str1.4
                0x00000000       0x36 ./mllib/mlflash/cssdcard/cs_sdcard.o
 .text.cssd_task
                0x00000000      0x13c ./mllib/mlflash/cssdcard/cs_sdcard.o
 .text.cssd_csdregister_read
                0x00000000       0xc8 ./mllib/mlflash/cssdcard/cs_sdcard.o
 .text.cssd_cidregister_read
                0x00000000       0xd0 ./mllib/mlflash/cssdcard/cs_sdcard.o
 .text.sd_get_cardinfo
                0x00000000       0x38 ./mllib/mlflash/cssdcard/cs_sdcard.o
 .rodata.csssd_card_init.str1.4
                0x00000000       0x40 ./mllib/mlflash/cssdcard/cs_sdcard.o
 .text.csssd_card_init
                0x00000000      0x194 ./mllib/mlflash/cssdcard/cs_sdcard.o
 .rodata.cssd_init.str1.4
                0x00000000        0x5 ./mllib/mlflash/cssdcard/cs_sdcard.o
 .text.cssd_init
                0x00000000       0x40 ./mllib/mlflash/cssdcard/cs_sdcard.o
 .debug_info    0x00000000     0xb5ee ./mllib/mlflash/cssdcard/cs_sdcard.o
 .debug_abbrev  0x00000000      0x541 ./mllib/mlflash/cssdcard/cs_sdcard.o
 .debug_loc     0x00000000      0x79c ./mllib/mlflash/cssdcard/cs_sdcard.o
 .debug_aranges
                0x00000000       0x70 ./mllib/mlflash/cssdcard/cs_sdcard.o
 .debug_ranges  0x00000000      0x208 ./mllib/mlflash/cssdcard/cs_sdcard.o
 .debug_line    0x00000000     0x1074 ./mllib/mlflash/cssdcard/cs_sdcard.o
 .debug_str     0x00000000     0x7e97 ./mllib/mlflash/cssdcard/cs_sdcard.o
 .comment       0x00000000       0x4d ./mllib/mlflash/cssdcard/cs_sdcard.o
 .debug_frame   0x00000000      0x1b0 ./mllib/mlflash/cssdcard/cs_sdcard.o
 .ARM.attributes
                0x00000000       0x3a ./mllib/mlflash/cssdcard/cs_sdcard.o
 COMMON         0x00000000      0x460 ./mllib/mlflash/cssdcard/cs_sdcard.o
 .text          0x00000000        0x0 ./mllib/iap/mc_ra6m4_iap_protocol/iap_tool_ntp.o
 .data          0x00000000        0x0 ./mllib/iap/mc_ra6m4_iap_protocol/iap_tool_ntp.o
 .bss           0x00000000        0x0 ./mllib/iap/mc_ra6m4_iap_protocol/iap_tool_ntp.o
 .text.iap_mc_rerun_reply
                0x00000000        0xc ./mllib/iap/mc_ra6m4_iap_protocol/iap_tool_ntp.o
 .text          0x00000000        0x0 ./mllib/iap/mc_ra6m4_iap_protocol/iap_upper_ntp.o
 .data          0x00000000        0x0 ./mllib/iap/mc_ra6m4_iap_protocol/iap_upper_ntp.o
 .bss           0x00000000        0x0 ./mllib/iap/mc_ra6m4_iap_protocol/iap_upper_ntp.o
 .text.iap_upper_start
                0x00000000        0x4 ./mllib/iap/mc_ra6m4_iap_protocol/iap_upper_ntp.o
 .text          0x00000000        0x0 ./mllib/iap/RA6M4/iap_mcu_port.o
 .data          0x00000000        0x0 ./mllib/iap/RA6M4/iap_mcu_port.o
 .bss           0x00000000        0x0 ./mllib/iap/RA6M4/iap_mcu_port.o
 .text          0x00000000        0x0 ./mllib/iap/iap.o
 .data          0x00000000        0x0 ./mllib/iap/iap.o
 .bss           0x00000000        0x0 ./mllib/iap/iap.o
 .text          0x00000000        0x0 ./mllib/dataStorage/ds.o
 .data          0x00000000        0x0 ./mllib/dataStorage/ds.o
 .bss           0x00000000        0x0 ./mllib/dataStorage/ds.o
 .debug_line    0x00000000        0x0 ./mllib/dataStorage/ds.o
 .debug_str     0x00000000      0x10d ./mllib/dataStorage/ds.o
 .comment       0x00000000       0x4d ./mllib/dataStorage/ds.o
 .ARM.attributes
                0x00000000       0x3c ./mllib/dataStorage/ds.o
 .text          0x00000000        0x0 ./mllib/dataStorage/ds_tray_file.o
 .data          0x00000000        0x0 ./mllib/dataStorage/ds_tray_file.o
 .bss           0x00000000        0x0 ./mllib/dataStorage/ds_tray_file.o
 .debug_line    0x00000000        0x0 ./mllib/dataStorage/ds_tray_file.o
 .debug_str     0x00000000      0x117 ./mllib/dataStorage/ds_tray_file.o
 .comment       0x00000000       0x4d ./mllib/dataStorage/ds_tray_file.o
 .ARM.attributes
                0x00000000       0x3c ./mllib/dataStorage/ds_tray_file.o
 .text          0x00000000        0x0 ./mllib/ctp/ra6m4/ctp_can_driver.o
 .data          0x00000000        0x0 ./mllib/ctp/ra6m4/ctp_can_driver.o
 .bss           0x00000000        0x0 ./mllib/ctp/ra6m4/ctp_can_driver.o
 .text          0x00000000        0x0 ./mllib/ctp/ctp.o
 .data          0x00000000        0x0 ./mllib/ctp/ctp.o
 .bss           0x00000000        0x0 ./mllib/ctp/ctp.o
 .text.ctp_conn_port_set
                0x00000000       0x14 ./mllib/ctp/ctp.o
 .text.ctp_connected
                0x00000000       0x28 ./mllib/ctp/ctp.o
 .text.ctp_sn_generate
                0x00000000       0x14 ./mllib/ctp/ctp.o
 .text.ctp_test
                0x00000000       0x74 ./mllib/ctp/ctp.o
 .bss.ccid.28603
                0x00000000        0x1 ./mllib/ctp/ctp.o
 .text          0x00000000        0x0 ./app/u_app.o
 .data          0x00000000        0x0 ./app/u_app.o
 .bss           0x00000000        0x0 ./app/u_app.o
 COMMON         0x00000000        0x1 ./app/u_app.o
 .text          0x00000000        0x0 ./app/u_app_tool_debug.o
 .data          0x00000000        0x0 ./app/u_app_tool_debug.o
 .bss           0x00000000        0x0 ./app/u_app_tool_debug.o
 .text.app_debug_print_switch
                0x00000000       0x18 ./app/u_app_tool_debug.o
 .text          0x00000000       0xa0 c:/renesas/ra/e2studio_v2021-04_fsp_v3.0.0/toolchains/gcc_arm/9_2020q2/bin/../lib/gcc/arm-none-eabi/9.3.1/thumb/v8-m.main+fp/hard\libgcc.a(_aeabi_ldivmod.o)
 .data          0x00000000        0x0 c:/renesas/ra/e2studio_v2021-04_fsp_v3.0.0/toolchains/gcc_arm/9_2020q2/bin/../lib/gcc/arm-none-eabi/9.3.1/thumb/v8-m.main+fp/hard\libgcc.a(_aeabi_ldivmod.o)
 .bss           0x00000000        0x0 c:/renesas/ra/e2studio_v2021-04_fsp_v3.0.0/toolchains/gcc_arm/9_2020q2/bin/../lib/gcc/arm-none-eabi/9.3.1/thumb/v8-m.main+fp/hard\libgcc.a(_aeabi_ldivmod.o)
 .debug_frame   0x00000000       0x44 c:/renesas/ra/e2studio_v2021-04_fsp_v3.0.0/toolchains/gcc_arm/9_2020q2/bin/../lib/gcc/arm-none-eabi/9.3.1/thumb/v8-m.main+fp/hard\libgcc.a(_aeabi_ldivmod.o)
 .ARM.attributes
                0x00000000       0x22 c:/renesas/ra/e2studio_v2021-04_fsp_v3.0.0/toolchains/gcc_arm/9_2020q2/bin/../lib/gcc/arm-none-eabi/9.3.1/thumb/v8-m.main+fp/hard\libgcc.a(_aeabi_ldivmod.o)
 .text          0x00000000      0x2e8 c:/renesas/ra/e2studio_v2021-04_fsp_v3.0.0/toolchains/gcc_arm/9_2020q2/bin/../lib/gcc/arm-none-eabi/9.3.1/thumb/v8-m.main+fp/hard\libgcc.a(_udivmoddi4.o)
 .data          0x00000000        0x0 c:/renesas/ra/e2studio_v2021-04_fsp_v3.0.0/toolchains/gcc_arm/9_2020q2/bin/../lib/gcc/arm-none-eabi/9.3.1/thumb/v8-m.main+fp/hard\libgcc.a(_udivmoddi4.o)
 .bss           0x00000000        0x0 c:/renesas/ra/e2studio_v2021-04_fsp_v3.0.0/toolchains/gcc_arm/9_2020q2/bin/../lib/gcc/arm-none-eabi/9.3.1/thumb/v8-m.main+fp/hard\libgcc.a(_udivmoddi4.o)
 .ARM.extab     0x00000000        0x0 c:/renesas/ra/e2studio_v2021-04_fsp_v3.0.0/toolchains/gcc_arm/9_2020q2/bin/../lib/gcc/arm-none-eabi/9.3.1/thumb/v8-m.main+fp/hard\libgcc.a(_udivmoddi4.o)
 .ARM.exidx     0x00000000        0x8 c:/renesas/ra/e2studio_v2021-04_fsp_v3.0.0/toolchains/gcc_arm/9_2020q2/bin/../lib/gcc/arm-none-eabi/9.3.1/thumb/v8-m.main+fp/hard\libgcc.a(_udivmoddi4.o)
 .debug_frame   0x00000000       0x38 c:/renesas/ra/e2studio_v2021-04_fsp_v3.0.0/toolchains/gcc_arm/9_2020q2/bin/../lib/gcc/arm-none-eabi/9.3.1/thumb/v8-m.main+fp/hard\libgcc.a(_udivmoddi4.o)
 .ARM.attributes
                0x00000000       0x38 c:/renesas/ra/e2studio_v2021-04_fsp_v3.0.0/toolchains/gcc_arm/9_2020q2/bin/../lib/gcc/arm-none-eabi/9.3.1/thumb/v8-m.main+fp/hard\libgcc.a(_udivmoddi4.o)
 .text          0x00000000        0x4 c:/renesas/ra/e2studio_v2021-04_fsp_v3.0.0/toolchains/gcc_arm/9_2020q2/bin/../lib/gcc/arm-none-eabi/9.3.1/thumb/v8-m.main+fp/hard\libgcc.a(_dvmd_tls.o)
 .data          0x00000000        0x0 c:/renesas/ra/e2studio_v2021-04_fsp_v3.0.0/toolchains/gcc_arm/9_2020q2/bin/../lib/gcc/arm-none-eabi/9.3.1/thumb/v8-m.main+fp/hard\libgcc.a(_dvmd_tls.o)
 .bss           0x00000000        0x0 c:/renesas/ra/e2studio_v2021-04_fsp_v3.0.0/toolchains/gcc_arm/9_2020q2/bin/../lib/gcc/arm-none-eabi/9.3.1/thumb/v8-m.main+fp/hard\libgcc.a(_dvmd_tls.o)
 .ARM.attributes
                0x00000000       0x22 c:/renesas/ra/e2studio_v2021-04_fsp_v3.0.0/toolchains/gcc_arm/9_2020q2/bin/../lib/gcc/arm-none-eabi/9.3.1/thumb/v8-m.main+fp/hard\libgcc.a(_dvmd_tls.o)
 .text          0x00000000        0x0 c:/renesas/ra/e2studio_v2021-04_fsp_v3.0.0/toolchains/gcc_arm/9_2020q2/bin/../lib/gcc/arm-none-eabi/9.3.1/../../../../arm-none-eabi/lib/thumb/v8-m.main+fp/hard\libg_nano.a(lib_a-errno.o)
 .data          0x00000000        0x0 c:/renesas/ra/e2studio_v2021-04_fsp_v3.0.0/toolchains/gcc_arm/9_2020q2/bin/../lib/gcc/arm-none-eabi/9.3.1/../../../../arm-none-eabi/lib/thumb/v8-m.main+fp/hard\libg_nano.a(lib_a-errno.o)
 .bss           0x00000000        0x0 c:/renesas/ra/e2studio_v2021-04_fsp_v3.0.0/toolchains/gcc_arm/9_2020q2/bin/../lib/gcc/arm-none-eabi/9.3.1/../../../../arm-none-eabi/lib/thumb/v8-m.main+fp/hard\libg_nano.a(lib_a-errno.o)
 .text          0x00000000        0x0 c:/renesas/ra/e2studio_v2021-04_fsp_v3.0.0/toolchains/gcc_arm/9_2020q2/bin/../lib/gcc/arm-none-eabi/9.3.1/../../../../arm-none-eabi/lib/thumb/v8-m.main+fp/hard\libg_nano.a(lib_a-exit.o)
 .data          0x00000000        0x0 c:/renesas/ra/e2studio_v2021-04_fsp_v3.0.0/toolchains/gcc_arm/9_2020q2/bin/../lib/gcc/arm-none-eabi/9.3.1/../../../../arm-none-eabi/lib/thumb/v8-m.main+fp/hard\libg_nano.a(lib_a-exit.o)
 .bss           0x00000000        0x0 c:/renesas/ra/e2studio_v2021-04_fsp_v3.0.0/toolchains/gcc_arm/9_2020q2/bin/../lib/gcc/arm-none-eabi/9.3.1/../../../../arm-none-eabi/lib/thumb/v8-m.main+fp/hard\libg_nano.a(lib_a-exit.o)
 .text.exit     0x00000000       0x28 c:/renesas/ra/e2studio_v2021-04_fsp_v3.0.0/toolchains/gcc_arm/9_2020q2/bin/../lib/gcc/arm-none-eabi/9.3.1/../../../../arm-none-eabi/lib/thumb/v8-m.main+fp/hard\libg_nano.a(lib_a-exit.o)
 .debug_frame   0x00000000       0x28 c:/renesas/ra/e2studio_v2021-04_fsp_v3.0.0/toolchains/gcc_arm/9_2020q2/bin/../lib/gcc/arm-none-eabi/9.3.1/../../../../arm-none-eabi/lib/thumb/v8-m.main+fp/hard\libg_nano.a(lib_a-exit.o)
 .ARM.attributes
                0x00000000       0x38 c:/renesas/ra/e2studio_v2021-04_fsp_v3.0.0/toolchains/gcc_arm/9_2020q2/bin/../lib/gcc/arm-none-eabi/9.3.1/../../../../arm-none-eabi/lib/thumb/v8-m.main+fp/hard\libg_nano.a(lib_a-exit.o)
 .text          0x00000000        0x0 c:/renesas/ra/e2studio_v2021-04_fsp_v3.0.0/toolchains/gcc_arm/9_2020q2/bin/../lib/gcc/arm-none-eabi/9.3.1/../../../../arm-none-eabi/lib/thumb/v8-m.main+fp/hard\libg_nano.a(lib_a-impure.o)
 .data          0x00000000        0x0 c:/renesas/ra/e2studio_v2021-04_fsp_v3.0.0/toolchains/gcc_arm/9_2020q2/bin/../lib/gcc/arm-none-eabi/9.3.1/../../../../arm-none-eabi/lib/thumb/v8-m.main+fp/hard\libg_nano.a(lib_a-impure.o)
 .bss           0x00000000        0x0 c:/renesas/ra/e2studio_v2021-04_fsp_v3.0.0/toolchains/gcc_arm/9_2020q2/bin/../lib/gcc/arm-none-eabi/9.3.1/../../../../arm-none-eabi/lib/thumb/v8-m.main+fp/hard\libg_nano.a(lib_a-impure.o)
 .rodata._global_impure_ptr
                0x00000000        0x4 c:/renesas/ra/e2studio_v2021-04_fsp_v3.0.0/toolchains/gcc_arm/9_2020q2/bin/../lib/gcc/arm-none-eabi/9.3.1/../../../../arm-none-eabi/lib/thumb/v8-m.main+fp/hard\libg_nano.a(lib_a-impure.o)
 .text          0x00000000        0x0 c:/renesas/ra/e2studio_v2021-04_fsp_v3.0.0/toolchains/gcc_arm/9_2020q2/bin/../lib/gcc/arm-none-eabi/9.3.1/../../../../arm-none-eabi/lib/thumb/v8-m.main+fp/hard\libg_nano.a(lib_a-init.o)
 .data          0x00000000        0x0 c:/renesas/ra/e2studio_v2021-04_fsp_v3.0.0/toolchains/gcc_arm/9_2020q2/bin/../lib/gcc/arm-none-eabi/9.3.1/../../../../arm-none-eabi/lib/thumb/v8-m.main+fp/hard\libg_nano.a(lib_a-init.o)
 .bss           0x00000000        0x0 c:/renesas/ra/e2studio_v2021-04_fsp_v3.0.0/toolchains/gcc_arm/9_2020q2/bin/../lib/gcc/arm-none-eabi/9.3.1/../../../../arm-none-eabi/lib/thumb/v8-m.main+fp/hard\libg_nano.a(lib_a-init.o)
 .text.__libc_init_array
                0x00000000       0x48 c:/renesas/ra/e2studio_v2021-04_fsp_v3.0.0/toolchains/gcc_arm/9_2020q2/bin/../lib/gcc/arm-none-eabi/9.3.1/../../../../arm-none-eabi/lib/thumb/v8-m.main+fp/hard\libg_nano.a(lib_a-init.o)
 .debug_frame   0x00000000       0x2c c:/renesas/ra/e2studio_v2021-04_fsp_v3.0.0/toolchains/gcc_arm/9_2020q2/bin/../lib/gcc/arm-none-eabi/9.3.1/../../../../arm-none-eabi/lib/thumb/v8-m.main+fp/hard\libg_nano.a(lib_a-init.o)
 .ARM.attributes
                0x00000000       0x38 c:/renesas/ra/e2studio_v2021-04_fsp_v3.0.0/toolchains/gcc_arm/9_2020q2/bin/../lib/gcc/arm-none-eabi/9.3.1/../../../../arm-none-eabi/lib/thumb/v8-m.main+fp/hard\libg_nano.a(lib_a-init.o)
 .text          0x00000000        0x0 c:/renesas/ra/e2studio_v2021-04_fsp_v3.0.0/toolchains/gcc_arm/9_2020q2/bin/../lib/gcc/arm-none-eabi/9.3.1/../../../../arm-none-eabi/lib/thumb/v8-m.main+fp/hard\libg_nano.a(lib_a-memcmp.o)
 .data          0x00000000        0x0 c:/renesas/ra/e2studio_v2021-04_fsp_v3.0.0/toolchains/gcc_arm/9_2020q2/bin/../lib/gcc/arm-none-eabi/9.3.1/../../../../arm-none-eabi/lib/thumb/v8-m.main+fp/hard\libg_nano.a(lib_a-memcmp.o)
 .bss           0x00000000        0x0 c:/renesas/ra/e2studio_v2021-04_fsp_v3.0.0/toolchains/gcc_arm/9_2020q2/bin/../lib/gcc/arm-none-eabi/9.3.1/../../../../arm-none-eabi/lib/thumb/v8-m.main+fp/hard\libg_nano.a(lib_a-memcmp.o)
 .text          0x00000000        0x0 c:/renesas/ra/e2studio_v2021-04_fsp_v3.0.0/toolchains/gcc_arm/9_2020q2/bin/../lib/gcc/arm-none-eabi/9.3.1/../../../../arm-none-eabi/lib/thumb/v8-m.main+fp/hard\libg_nano.a(lib_a-memcpy-stub.o)
 .data          0x00000000        0x0 c:/renesas/ra/e2studio_v2021-04_fsp_v3.0.0/toolchains/gcc_arm/9_2020q2/bin/../lib/gcc/arm-none-eabi/9.3.1/../../../../arm-none-eabi/lib/thumb/v8-m.main+fp/hard\libg_nano.a(lib_a-memcpy-stub.o)
 .bss           0x00000000        0x0 c:/renesas/ra/e2studio_v2021-04_fsp_v3.0.0/toolchains/gcc_arm/9_2020q2/bin/../lib/gcc/arm-none-eabi/9.3.1/../../../../arm-none-eabi/lib/thumb/v8-m.main+fp/hard\libg_nano.a(lib_a-memcpy-stub.o)
 .text          0x00000000        0x0 c:/renesas/ra/e2studio_v2021-04_fsp_v3.0.0/toolchains/gcc_arm/9_2020q2/bin/../lib/gcc/arm-none-eabi/9.3.1/../../../../arm-none-eabi/lib/thumb/v8-m.main+fp/hard\libg_nano.a(lib_a-memset.o)
 .data          0x00000000        0x0 c:/renesas/ra/e2studio_v2021-04_fsp_v3.0.0/toolchains/gcc_arm/9_2020q2/bin/../lib/gcc/arm-none-eabi/9.3.1/../../../../arm-none-eabi/lib/thumb/v8-m.main+fp/hard\libg_nano.a(lib_a-memset.o)
 .bss           0x00000000        0x0 c:/renesas/ra/e2studio_v2021-04_fsp_v3.0.0/toolchains/gcc_arm/9_2020q2/bin/../lib/gcc/arm-none-eabi/9.3.1/../../../../arm-none-eabi/lib/thumb/v8-m.main+fp/hard\libg_nano.a(lib_a-memset.o)
 .text          0x00000000        0x0 c:/renesas/ra/e2studio_v2021-04_fsp_v3.0.0/toolchains/gcc_arm/9_2020q2/bin/../lib/gcc/arm-none-eabi/9.3.1/../../../../arm-none-eabi/lib/thumb/v8-m.main+fp/hard\libg_nano.a(lib_a-sprintf.o)
 .data          0x00000000        0x0 c:/renesas/ra/e2studio_v2021-04_fsp_v3.0.0/toolchains/gcc_arm/9_2020q2/bin/../lib/gcc/arm-none-eabi/9.3.1/../../../../arm-none-eabi/lib/thumb/v8-m.main+fp/hard\libg_nano.a(lib_a-sprintf.o)
 .bss           0x00000000        0x0 c:/renesas/ra/e2studio_v2021-04_fsp_v3.0.0/toolchains/gcc_arm/9_2020q2/bin/../lib/gcc/arm-none-eabi/9.3.1/../../../../arm-none-eabi/lib/thumb/v8-m.main+fp/hard\libg_nano.a(lib_a-sprintf.o)
 .text._sprintf_r
                0x00000000       0x38 c:/renesas/ra/e2studio_v2021-04_fsp_v3.0.0/toolchains/gcc_arm/9_2020q2/bin/../lib/gcc/arm-none-eabi/9.3.1/../../../../arm-none-eabi/lib/thumb/v8-m.main+fp/hard\libg_nano.a(lib_a-sprintf.o)
 .data          0x00000000        0x0 c:/renesas/ra/e2studio_v2021-04_fsp_v3.0.0/toolchains/gcc_arm/9_2020q2/bin/../lib/gcc/arm-none-eabi/9.3.1/../../../../arm-none-eabi/lib/thumb/v8-m.main+fp/hard\libg_nano.a(lib_a-strcmp.o)
 .bss           0x00000000        0x0 c:/renesas/ra/e2studio_v2021-04_fsp_v3.0.0/toolchains/gcc_arm/9_2020q2/bin/../lib/gcc/arm-none-eabi/9.3.1/../../../../arm-none-eabi/lib/thumb/v8-m.main+fp/hard\libg_nano.a(lib_a-strcmp.o)
 .text          0x00000000        0x0 c:/renesas/ra/e2studio_v2021-04_fsp_v3.0.0/toolchains/gcc_arm/9_2020q2/bin/../lib/gcc/arm-none-eabi/9.3.1/../../../../arm-none-eabi/lib/thumb/v8-m.main+fp/hard\libg_nano.a(lib_a-strcpy.o)
 .data          0x00000000        0x0 c:/renesas/ra/e2studio_v2021-04_fsp_v3.0.0/toolchains/gcc_arm/9_2020q2/bin/../lib/gcc/arm-none-eabi/9.3.1/../../../../arm-none-eabi/lib/thumb/v8-m.main+fp/hard\libg_nano.a(lib_a-strcpy.o)
 .bss           0x00000000        0x0 c:/renesas/ra/e2studio_v2021-04_fsp_v3.0.0/toolchains/gcc_arm/9_2020q2/bin/../lib/gcc/arm-none-eabi/9.3.1/../../../../arm-none-eabi/lib/thumb/v8-m.main+fp/hard\libg_nano.a(lib_a-strcpy.o)
 .data          0x00000000        0x0 c:/renesas/ra/e2studio_v2021-04_fsp_v3.0.0/toolchains/gcc_arm/9_2020q2/bin/../lib/gcc/arm-none-eabi/9.3.1/../../../../arm-none-eabi/lib/thumb/v8-m.main+fp/hard\libg_nano.a(lib_a-strlen.o)
 .bss           0x00000000        0x0 c:/renesas/ra/e2studio_v2021-04_fsp_v3.0.0/toolchains/gcc_arm/9_2020q2/bin/../lib/gcc/arm-none-eabi/9.3.1/../../../../arm-none-eabi/lib/thumb/v8-m.main+fp/hard\libg_nano.a(lib_a-strlen.o)
 .text          0x00000000        0x0 c:/renesas/ra/e2studio_v2021-04_fsp_v3.0.0/toolchains/gcc_arm/9_2020q2/bin/../lib/gcc/arm-none-eabi/9.3.1/../../../../arm-none-eabi/lib/thumb/v8-m.main+fp/hard\libg_nano.a(lib_a-vsnprintf.o)
 .data          0x00000000        0x0 c:/renesas/ra/e2studio_v2021-04_fsp_v3.0.0/toolchains/gcc_arm/9_2020q2/bin/../lib/gcc/arm-none-eabi/9.3.1/../../../../arm-none-eabi/lib/thumb/v8-m.main+fp/hard\libg_nano.a(lib_a-vsnprintf.o)
 .bss           0x00000000        0x0 c:/renesas/ra/e2studio_v2021-04_fsp_v3.0.0/toolchains/gcc_arm/9_2020q2/bin/../lib/gcc/arm-none-eabi/9.3.1/../../../../arm-none-eabi/lib/thumb/v8-m.main+fp/hard\libg_nano.a(lib_a-vsnprintf.o)
 .text          0x00000000        0x0 c:/renesas/ra/e2studio_v2021-04_fsp_v3.0.0/toolchains/gcc_arm/9_2020q2/bin/../lib/gcc/arm-none-eabi/9.3.1/../../../../arm-none-eabi/lib/thumb/v8-m.main+fp/hard\libg_nano.a(lib_a-vsprintf.o)
 .data          0x00000000        0x0 c:/renesas/ra/e2studio_v2021-04_fsp_v3.0.0/toolchains/gcc_arm/9_2020q2/bin/../lib/gcc/arm-none-eabi/9.3.1/../../../../arm-none-eabi/lib/thumb/v8-m.main+fp/hard\libg_nano.a(lib_a-vsprintf.o)
 .bss           0x00000000        0x0 c:/renesas/ra/e2studio_v2021-04_fsp_v3.0.0/toolchains/gcc_arm/9_2020q2/bin/../lib/gcc/arm-none-eabi/9.3.1/../../../../arm-none-eabi/lib/thumb/v8-m.main+fp/hard\libg_nano.a(lib_a-vsprintf.o)
 .text          0x00000000        0x0 c:/renesas/ra/e2studio_v2021-04_fsp_v3.0.0/toolchains/gcc_arm/9_2020q2/bin/../lib/gcc/arm-none-eabi/9.3.1/../../../../arm-none-eabi/lib/thumb/v8-m.main+fp/hard\libg_nano.a(lib_a-nano-svfprintf.o)
 .data          0x00000000        0x0 c:/renesas/ra/e2studio_v2021-04_fsp_v3.0.0/toolchains/gcc_arm/9_2020q2/bin/../lib/gcc/arm-none-eabi/9.3.1/../../../../arm-none-eabi/lib/thumb/v8-m.main+fp/hard\libg_nano.a(lib_a-nano-svfprintf.o)
 .bss           0x00000000        0x0 c:/renesas/ra/e2studio_v2021-04_fsp_v3.0.0/toolchains/gcc_arm/9_2020q2/bin/../lib/gcc/arm-none-eabi/9.3.1/../../../../arm-none-eabi/lib/thumb/v8-m.main+fp/hard\libg_nano.a(lib_a-nano-svfprintf.o)
 .text.__ssprint_r
                0x00000000       0xf6 c:/renesas/ra/e2studio_v2021-04_fsp_v3.0.0/toolchains/gcc_arm/9_2020q2/bin/../lib/gcc/arm-none-eabi/9.3.1/../../../../arm-none-eabi/lib/thumb/v8-m.main+fp/hard\libg_nano.a(lib_a-nano-svfprintf.o)
 .text          0x00000000        0x0 c:/renesas/ra/e2studio_v2021-04_fsp_v3.0.0/toolchains/gcc_arm/9_2020q2/bin/../lib/gcc/arm-none-eabi/9.3.1/../../../../arm-none-eabi/lib/thumb/v8-m.main+fp/hard\libg_nano.a(lib_a-nano-vfprintf_i.o)
 .data          0x00000000        0x0 c:/renesas/ra/e2studio_v2021-04_fsp_v3.0.0/toolchains/gcc_arm/9_2020q2/bin/../lib/gcc/arm-none-eabi/9.3.1/../../../../arm-none-eabi/lib/thumb/v8-m.main+fp/hard\libg_nano.a(lib_a-nano-vfprintf_i.o)
 .bss           0x00000000        0x0 c:/renesas/ra/e2studio_v2021-04_fsp_v3.0.0/toolchains/gcc_arm/9_2020q2/bin/../lib/gcc/arm-none-eabi/9.3.1/../../../../arm-none-eabi/lib/thumb/v8-m.main+fp/hard\libg_nano.a(lib_a-nano-vfprintf_i.o)
 .text          0x00000000        0x0 c:/renesas/ra/e2studio_v2021-04_fsp_v3.0.0/toolchains/gcc_arm/9_2020q2/bin/../lib/gcc/arm-none-eabi/9.3.1/../../../../arm-none-eabi/lib/thumb/v8-m.main+fp/hard\libg_nano.a(lib_a-memchr-stub.o)
 .data          0x00000000        0x0 c:/renesas/ra/e2studio_v2021-04_fsp_v3.0.0/toolchains/gcc_arm/9_2020q2/bin/../lib/gcc/arm-none-eabi/9.3.1/../../../../arm-none-eabi/lib/thumb/v8-m.main+fp/hard\libg_nano.a(lib_a-memchr-stub.o)
 .bss           0x00000000        0x0 c:/renesas/ra/e2studio_v2021-04_fsp_v3.0.0/toolchains/gcc_arm/9_2020q2/bin/../lib/gcc/arm-none-eabi/9.3.1/../../../../arm-none-eabi/lib/thumb/v8-m.main+fp/hard\libg_nano.a(lib_a-memchr-stub.o)
 .text          0x00000000        0x0 c:/renesas/ra/e2studio_v2021-04_fsp_v3.0.0/toolchains/gcc_arm/9_2020q2/bin/../lib/gcc/arm-none-eabi/9.3.1/../../../../arm-none-eabi/lib/thumb/v8-m.main+fp/hard\libg_nano.a(lib_a-memmove.o)
 .data          0x00000000        0x0 c:/renesas/ra/e2studio_v2021-04_fsp_v3.0.0/toolchains/gcc_arm/9_2020q2/bin/../lib/gcc/arm-none-eabi/9.3.1/../../../../arm-none-eabi/lib/thumb/v8-m.main+fp/hard\libg_nano.a(lib_a-memmove.o)
 .bss           0x00000000        0x0 c:/renesas/ra/e2studio_v2021-04_fsp_v3.0.0/toolchains/gcc_arm/9_2020q2/bin/../lib/gcc/arm-none-eabi/9.3.1/../../../../arm-none-eabi/lib/thumb/v8-m.main+fp/hard\libg_nano.a(lib_a-memmove.o)
 .text          0x00000000        0x0 c:/renesas/ra/e2studio_v2021-04_fsp_v3.0.0/toolchains/gcc_arm/9_2020q2/bin/../lib/gcc/arm-none-eabi/9.3.1/../../../../arm-none-eabi/lib/thumb/v8-m.main+fp/hard\libg_nano.a(lib_a-nano-freer.o)
 .data          0x00000000        0x0 c:/renesas/ra/e2studio_v2021-04_fsp_v3.0.0/toolchains/gcc_arm/9_2020q2/bin/../lib/gcc/arm-none-eabi/9.3.1/../../../../arm-none-eabi/lib/thumb/v8-m.main+fp/hard\libg_nano.a(lib_a-nano-freer.o)
 .bss           0x00000000        0x0 c:/renesas/ra/e2studio_v2021-04_fsp_v3.0.0/toolchains/gcc_arm/9_2020q2/bin/../lib/gcc/arm-none-eabi/9.3.1/../../../../arm-none-eabi/lib/thumb/v8-m.main+fp/hard\libg_nano.a(lib_a-nano-freer.o)
 .text          0x00000000        0x0 c:/renesas/ra/e2studio_v2021-04_fsp_v3.0.0/toolchains/gcc_arm/9_2020q2/bin/../lib/gcc/arm-none-eabi/9.3.1/../../../../arm-none-eabi/lib/thumb/v8-m.main+fp/hard\libg_nano.a(lib_a-nano-mallocr.o)
 .data          0x00000000        0x0 c:/renesas/ra/e2studio_v2021-04_fsp_v3.0.0/toolchains/gcc_arm/9_2020q2/bin/../lib/gcc/arm-none-eabi/9.3.1/../../../../arm-none-eabi/lib/thumb/v8-m.main+fp/hard\libg_nano.a(lib_a-nano-mallocr.o)
 .bss           0x00000000        0x0 c:/renesas/ra/e2studio_v2021-04_fsp_v3.0.0/toolchains/gcc_arm/9_2020q2/bin/../lib/gcc/arm-none-eabi/9.3.1/../../../../arm-none-eabi/lib/thumb/v8-m.main+fp/hard\libg_nano.a(lib_a-nano-mallocr.o)
 .text          0x00000000        0x0 c:/renesas/ra/e2studio_v2021-04_fsp_v3.0.0/toolchains/gcc_arm/9_2020q2/bin/../lib/gcc/arm-none-eabi/9.3.1/../../../../arm-none-eabi/lib/thumb/v8-m.main+fp/hard\libg_nano.a(lib_a-nano-reallocr.o)
 .data          0x00000000        0x0 c:/renesas/ra/e2studio_v2021-04_fsp_v3.0.0/toolchains/gcc_arm/9_2020q2/bin/../lib/gcc/arm-none-eabi/9.3.1/../../../../arm-none-eabi/lib/thumb/v8-m.main+fp/hard\libg_nano.a(lib_a-nano-reallocr.o)
 .bss           0x00000000        0x0 c:/renesas/ra/e2studio_v2021-04_fsp_v3.0.0/toolchains/gcc_arm/9_2020q2/bin/../lib/gcc/arm-none-eabi/9.3.1/../../../../arm-none-eabi/lib/thumb/v8-m.main+fp/hard\libg_nano.a(lib_a-nano-reallocr.o)
 .text          0x00000000        0x0 c:/renesas/ra/e2studio_v2021-04_fsp_v3.0.0/toolchains/gcc_arm/9_2020q2/bin/../lib/gcc/arm-none-eabi/9.3.1/../../../../arm-none-eabi/lib/thumb/v8-m.main+fp/hard\libg_nano.a(lib_a-sbrkr.o)
 .data          0x00000000        0x0 c:/renesas/ra/e2studio_v2021-04_fsp_v3.0.0/toolchains/gcc_arm/9_2020q2/bin/../lib/gcc/arm-none-eabi/9.3.1/../../../../arm-none-eabi/lib/thumb/v8-m.main+fp/hard\libg_nano.a(lib_a-sbrkr.o)
 .bss           0x00000000        0x0 c:/renesas/ra/e2studio_v2021-04_fsp_v3.0.0/toolchains/gcc_arm/9_2020q2/bin/../lib/gcc/arm-none-eabi/9.3.1/../../../../arm-none-eabi/lib/thumb/v8-m.main+fp/hard\libg_nano.a(lib_a-sbrkr.o)
 .text          0x00000000        0x0 c:/renesas/ra/e2studio_v2021-04_fsp_v3.0.0/toolchains/gcc_arm/9_2020q2/bin/../lib/gcc/arm-none-eabi/9.3.1/../../../../arm-none-eabi/lib/thumb/v8-m.main+fp/hard\libg_nano.a(lib_a-mlock.o)
 .data          0x00000000        0x0 c:/renesas/ra/e2studio_v2021-04_fsp_v3.0.0/toolchains/gcc_arm/9_2020q2/bin/../lib/gcc/arm-none-eabi/9.3.1/../../../../arm-none-eabi/lib/thumb/v8-m.main+fp/hard\libg_nano.a(lib_a-mlock.o)
 .bss           0x00000000        0x0 c:/renesas/ra/e2studio_v2021-04_fsp_v3.0.0/toolchains/gcc_arm/9_2020q2/bin/../lib/gcc/arm-none-eabi/9.3.1/../../../../arm-none-eabi/lib/thumb/v8-m.main+fp/hard\libg_nano.a(lib_a-mlock.o)
 .text          0x00000000        0x0 c:/renesas/ra/e2studio_v2021-04_fsp_v3.0.0/toolchains/gcc_arm/9_2020q2/bin/../lib/gcc/arm-none-eabi/9.3.1/../../../../arm-none-eabi/lib/thumb/v8-m.main+fp/hard\libg_nano.a(lib_a-nano-msizer.o)
 .data          0x00000000        0x0 c:/renesas/ra/e2studio_v2021-04_fsp_v3.0.0/toolchains/gcc_arm/9_2020q2/bin/../lib/gcc/arm-none-eabi/9.3.1/../../../../arm-none-eabi/lib/thumb/v8-m.main+fp/hard\libg_nano.a(lib_a-nano-msizer.o)
 .bss           0x00000000        0x0 c:/renesas/ra/e2studio_v2021-04_fsp_v3.0.0/toolchains/gcc_arm/9_2020q2/bin/../lib/gcc/arm-none-eabi/9.3.1/../../../../arm-none-eabi/lib/thumb/v8-m.main+fp/hard\libg_nano.a(lib_a-nano-msizer.o)
 .text          0x00000000        0x0 c:/renesas/ra/e2studio_v2021-04_fsp_v3.0.0/toolchains/gcc_arm/9_2020q2/bin/../lib/gcc/arm-none-eabi/9.3.1/../../../../arm-none-eabi/lib/thumb/v8-m.main+fp/hard\libg_nano.a(lib_a-reent.o)
 .data          0x00000000        0x0 c:/renesas/ra/e2studio_v2021-04_fsp_v3.0.0/toolchains/gcc_arm/9_2020q2/bin/../lib/gcc/arm-none-eabi/9.3.1/../../../../arm-none-eabi/lib/thumb/v8-m.main+fp/hard\libg_nano.a(lib_a-reent.o)
 .bss           0x00000000        0x0 c:/renesas/ra/e2studio_v2021-04_fsp_v3.0.0/toolchains/gcc_arm/9_2020q2/bin/../lib/gcc/arm-none-eabi/9.3.1/../../../../arm-none-eabi/lib/thumb/v8-m.main+fp/hard\libg_nano.a(lib_a-reent.o)
 .text.cleanup_glue
                0x00000000       0x1a c:/renesas/ra/e2studio_v2021-04_fsp_v3.0.0/toolchains/gcc_arm/9_2020q2/bin/../lib/gcc/arm-none-eabi/9.3.1/../../../../arm-none-eabi/lib/thumb/v8-m.main+fp/hard\libg_nano.a(lib_a-reent.o)
 .text._reclaim_reent
                0x00000000       0xb8 c:/renesas/ra/e2studio_v2021-04_fsp_v3.0.0/toolchains/gcc_arm/9_2020q2/bin/../lib/gcc/arm-none-eabi/9.3.1/../../../../arm-none-eabi/lib/thumb/v8-m.main+fp/hard\libg_nano.a(lib_a-reent.o)
 .text          0x00000000        0x0 c:/renesas/ra/e2studio_v2021-04_fsp_v3.0.0/toolchains/gcc_arm/9_2020q2/bin/../lib/gcc/arm-none-eabi/9.3.1/../../../../arm-none-eabi/lib/thumb/v8-m.main+fp/hard\libg_nano.a(lib_a-lock.o)
 .data          0x00000000        0x0 c:/renesas/ra/e2studio_v2021-04_fsp_v3.0.0/toolchains/gcc_arm/9_2020q2/bin/../lib/gcc/arm-none-eabi/9.3.1/../../../../arm-none-eabi/lib/thumb/v8-m.main+fp/hard\libg_nano.a(lib_a-lock.o)
 .bss           0x00000000        0x0 c:/renesas/ra/e2studio_v2021-04_fsp_v3.0.0/toolchains/gcc_arm/9_2020q2/bin/../lib/gcc/arm-none-eabi/9.3.1/../../../../arm-none-eabi/lib/thumb/v8-m.main+fp/hard\libg_nano.a(lib_a-lock.o)
 .text.__retarget_lock_init
                0x00000000        0x2 c:/renesas/ra/e2studio_v2021-04_fsp_v3.0.0/toolchains/gcc_arm/9_2020q2/bin/../lib/gcc/arm-none-eabi/9.3.1/../../../../arm-none-eabi/lib/thumb/v8-m.main+fp/hard\libg_nano.a(lib_a-lock.o)
 .text.__retarget_lock_init_recursive
                0x00000000        0x2 c:/renesas/ra/e2studio_v2021-04_fsp_v3.0.0/toolchains/gcc_arm/9_2020q2/bin/../lib/gcc/arm-none-eabi/9.3.1/../../../../arm-none-eabi/lib/thumb/v8-m.main+fp/hard\libg_nano.a(lib_a-lock.o)
 .text.__retarget_lock_close
                0x00000000        0x2 c:/renesas/ra/e2studio_v2021-04_fsp_v3.0.0/toolchains/gcc_arm/9_2020q2/bin/../lib/gcc/arm-none-eabi/9.3.1/../../../../arm-none-eabi/lib/thumb/v8-m.main+fp/hard\libg_nano.a(lib_a-lock.o)
 .text.__retarget_lock_close_recursive
                0x00000000        0x2 c:/renesas/ra/e2studio_v2021-04_fsp_v3.0.0/toolchains/gcc_arm/9_2020q2/bin/../lib/gcc/arm-none-eabi/9.3.1/../../../../arm-none-eabi/lib/thumb/v8-m.main+fp/hard\libg_nano.a(lib_a-lock.o)
 .text.__retarget_lock_acquire
                0x00000000        0x2 c:/renesas/ra/e2studio_v2021-04_fsp_v3.0.0/toolchains/gcc_arm/9_2020q2/bin/../lib/gcc/arm-none-eabi/9.3.1/../../../../arm-none-eabi/lib/thumb/v8-m.main+fp/hard\libg_nano.a(lib_a-lock.o)
 .text.__retarget_lock_try_acquire
                0x00000000        0x4 c:/renesas/ra/e2studio_v2021-04_fsp_v3.0.0/toolchains/gcc_arm/9_2020q2/bin/../lib/gcc/arm-none-eabi/9.3.1/../../../../arm-none-eabi/lib/thumb/v8-m.main+fp/hard\libg_nano.a(lib_a-lock.o)
 .text.__retarget_lock_try_acquire_recursive
                0x00000000        0x4 c:/renesas/ra/e2studio_v2021-04_fsp_v3.0.0/toolchains/gcc_arm/9_2020q2/bin/../lib/gcc/arm-none-eabi/9.3.1/../../../../arm-none-eabi/lib/thumb/v8-m.main+fp/hard\libg_nano.a(lib_a-lock.o)
 .text.__retarget_lock_release
                0x00000000        0x2 c:/renesas/ra/e2studio_v2021-04_fsp_v3.0.0/toolchains/gcc_arm/9_2020q2/bin/../lib/gcc/arm-none-eabi/9.3.1/../../../../arm-none-eabi/lib/thumb/v8-m.main+fp/hard\libg_nano.a(lib_a-lock.o)
 .text          0x00000000        0x0 c:/renesas/ra/e2studio_v2021-04_fsp_v3.0.0/toolchains/gcc_arm/9_2020q2/bin/../lib/gcc/arm-none-eabi/9.3.1/../../../../arm-none-eabi/lib/thumb/v8-m.main+fp/hard\librdimon_nano.a(rdimon-syscalls.o)
 .data          0x00000000        0x0 c:/renesas/ra/e2studio_v2021-04_fsp_v3.0.0/toolchains/gcc_arm/9_2020q2/bin/../lib/gcc/arm-none-eabi/9.3.1/../../../../arm-none-eabi/lib/thumb/v8-m.main+fp/hard\librdimon_nano.a(rdimon-syscalls.o)
 .bss           0x00000000        0x0 c:/renesas/ra/e2studio_v2021-04_fsp_v3.0.0/toolchains/gcc_arm/9_2020q2/bin/../lib/gcc/arm-none-eabi/9.3.1/../../../../arm-none-eabi/lib/thumb/v8-m.main+fp/hard\librdimon_nano.a(rdimon-syscalls.o)
 .text.findslot
                0x00000000       0x34 c:/renesas/ra/e2studio_v2021-04_fsp_v3.0.0/toolchains/gcc_arm/9_2020q2/bin/../lib/gcc/arm-none-eabi/9.3.1/../../../../arm-none-eabi/lib/thumb/v8-m.main+fp/hard\librdimon_nano.a(rdimon-syscalls.o)
 .text.checkerror
                0x00000000       0x20 c:/renesas/ra/e2studio_v2021-04_fsp_v3.0.0/toolchains/gcc_arm/9_2020q2/bin/../lib/gcc/arm-none-eabi/9.3.1/../../../../arm-none-eabi/lib/thumb/v8-m.main+fp/hard\librdimon_nano.a(rdimon-syscalls.o)
 .text.error    0x00000000       0x1c c:/renesas/ra/e2studio_v2021-04_fsp_v3.0.0/toolchains/gcc_arm/9_2020q2/bin/../lib/gcc/arm-none-eabi/9.3.1/../../../../arm-none-eabi/lib/thumb/v8-m.main+fp/hard\librdimon_nano.a(rdimon-syscalls.o)
 .text._swiread
                0x00000000       0x20 c:/renesas/ra/e2studio_v2021-04_fsp_v3.0.0/toolchains/gcc_arm/9_2020q2/bin/../lib/gcc/arm-none-eabi/9.3.1/../../../../arm-none-eabi/lib/thumb/v8-m.main+fp/hard\librdimon_nano.a(rdimon-syscalls.o)
 .text._read    0x00000000       0x38 c:/renesas/ra/e2studio_v2021-04_fsp_v3.0.0/toolchains/gcc_arm/9_2020q2/bin/../lib/gcc/arm-none-eabi/9.3.1/../../../../arm-none-eabi/lib/thumb/v8-m.main+fp/hard\librdimon_nano.a(rdimon-syscalls.o)
 .text._swilseek
                0x00000000       0x78 c:/renesas/ra/e2studio_v2021-04_fsp_v3.0.0/toolchains/gcc_arm/9_2020q2/bin/../lib/gcc/arm-none-eabi/9.3.1/../../../../arm-none-eabi/lib/thumb/v8-m.main+fp/hard\librdimon_nano.a(rdimon-syscalls.o)
 .text._lseek   0x00000000        0x4 c:/renesas/ra/e2studio_v2021-04_fsp_v3.0.0/toolchains/gcc_arm/9_2020q2/bin/../lib/gcc/arm-none-eabi/9.3.1/../../../../arm-none-eabi/lib/thumb/v8-m.main+fp/hard\librdimon_nano.a(rdimon-syscalls.o)
 .text._swiwrite
                0x00000000       0x20 c:/renesas/ra/e2studio_v2021-04_fsp_v3.0.0/toolchains/gcc_arm/9_2020q2/bin/../lib/gcc/arm-none-eabi/9.3.1/../../../../arm-none-eabi/lib/thumb/v8-m.main+fp/hard\librdimon_nano.a(rdimon-syscalls.o)
 .text._write   0x00000000       0x48 c:/renesas/ra/e2studio_v2021-04_fsp_v3.0.0/toolchains/gcc_arm/9_2020q2/bin/../lib/gcc/arm-none-eabi/9.3.1/../../../../arm-none-eabi/lib/thumb/v8-m.main+fp/hard\librdimon_nano.a(rdimon-syscalls.o)
 .text._swiclose
                0x00000000       0x1a c:/renesas/ra/e2studio_v2021-04_fsp_v3.0.0/toolchains/gcc_arm/9_2020q2/bin/../lib/gcc/arm-none-eabi/9.3.1/../../../../arm-none-eabi/lib/thumb/v8-m.main+fp/hard\librdimon_nano.a(rdimon-syscalls.o)
 .text._close   0x00000000       0x4c c:/renesas/ra/e2studio_v2021-04_fsp_v3.0.0/toolchains/gcc_arm/9_2020q2/bin/../lib/gcc/arm-none-eabi/9.3.1/../../../../arm-none-eabi/lib/thumb/v8-m.main+fp/hard\librdimon_nano.a(rdimon-syscalls.o)
 .text._getpid  0x00000000        0x4 c:/renesas/ra/e2studio_v2021-04_fsp_v3.0.0/toolchains/gcc_arm/9_2020q2/bin/../lib/gcc/arm-none-eabi/9.3.1/../../../../arm-none-eabi/lib/thumb/v8-m.main+fp/hard\librdimon_nano.a(rdimon-syscalls.o)
 .text._sbrk    0x00000000       0x48 c:/renesas/ra/e2studio_v2021-04_fsp_v3.0.0/toolchains/gcc_arm/9_2020q2/bin/../lib/gcc/arm-none-eabi/9.3.1/../../../../arm-none-eabi/lib/thumb/v8-m.main+fp/hard\librdimon_nano.a(rdimon-syscalls.o)
 .text._swistat
                0x00000000       0x42 c:/renesas/ra/e2studio_v2021-04_fsp_v3.0.0/toolchains/gcc_arm/9_2020q2/bin/../lib/gcc/arm-none-eabi/9.3.1/../../../../arm-none-eabi/lib/thumb/v8-m.main+fp/hard\librdimon_nano.a(rdimon-syscalls.o)
 .text._fstat   0x00000000       0x1c c:/renesas/ra/e2studio_v2021-04_fsp_v3.0.0/toolchains/gcc_arm/9_2020q2/bin/../lib/gcc/arm-none-eabi/9.3.1/../../../../arm-none-eabi/lib/thumb/v8-m.main+fp/hard\librdimon_nano.a(rdimon-syscalls.o)
 .text._stat    0x00000000       0x3a c:/renesas/ra/e2studio_v2021-04_fsp_v3.0.0/toolchains/gcc_arm/9_2020q2/bin/../lib/gcc/arm-none-eabi/9.3.1/../../../../arm-none-eabi/lib/thumb/v8-m.main+fp/hard\librdimon_nano.a(rdimon-syscalls.o)
 .text._swiopen
                0x00000000       0xb4 c:/renesas/ra/e2studio_v2021-04_fsp_v3.0.0/toolchains/gcc_arm/9_2020q2/bin/../lib/gcc/arm-none-eabi/9.3.1/../../../../arm-none-eabi/lib/thumb/v8-m.main+fp/hard\librdimon_nano.a(rdimon-syscalls.o)
 .text._open    0x00000000       0x12 c:/renesas/ra/e2studio_v2021-04_fsp_v3.0.0/toolchains/gcc_arm/9_2020q2/bin/../lib/gcc/arm-none-eabi/9.3.1/../../../../arm-none-eabi/lib/thumb/v8-m.main+fp/hard\librdimon_nano.a(rdimon-syscalls.o)
 .rodata._get_semihosting_exts.str1.1
                0x00000000       0x16 c:/renesas/ra/e2studio_v2021-04_fsp_v3.0.0/toolchains/gcc_arm/9_2020q2/bin/../lib/gcc/arm-none-eabi/9.3.1/../../../../arm-none-eabi/lib/thumb/v8-m.main+fp/hard\librdimon_nano.a(rdimon-syscalls.o)
 .text._get_semihosting_exts
                0x00000000       0xb8 c:/renesas/ra/e2studio_v2021-04_fsp_v3.0.0/toolchains/gcc_arm/9_2020q2/bin/../lib/gcc/arm-none-eabi/9.3.1/../../../../arm-none-eabi/lib/thumb/v8-m.main+fp/hard\librdimon_nano.a(rdimon-syscalls.o)
 .text.initialise_semihosting_exts
                0x00000000       0x34 c:/renesas/ra/e2studio_v2021-04_fsp_v3.0.0/toolchains/gcc_arm/9_2020q2/bin/../lib/gcc/arm-none-eabi/9.3.1/../../../../arm-none-eabi/lib/thumb/v8-m.main+fp/hard\librdimon_nano.a(rdimon-syscalls.o)
 .text._has_ext_exit_extended
                0x00000000       0x18 c:/renesas/ra/e2studio_v2021-04_fsp_v3.0.0/toolchains/gcc_arm/9_2020q2/bin/../lib/gcc/arm-none-eabi/9.3.1/../../../../arm-none-eabi/lib/thumb/v8-m.main+fp/hard\librdimon_nano.a(rdimon-syscalls.o)
 .text._has_ext_stdout_stderr
                0x00000000       0x18 c:/renesas/ra/e2studio_v2021-04_fsp_v3.0.0/toolchains/gcc_arm/9_2020q2/bin/../lib/gcc/arm-none-eabi/9.3.1/../../../../arm-none-eabi/lib/thumb/v8-m.main+fp/hard\librdimon_nano.a(rdimon-syscalls.o)
 .rodata.initialise_monitor_handles.str1.1
                0x00000000        0x4 c:/renesas/ra/e2studio_v2021-04_fsp_v3.0.0/toolchains/gcc_arm/9_2020q2/bin/../lib/gcc/arm-none-eabi/9.3.1/../../../../arm-none-eabi/lib/thumb/v8-m.main+fp/hard\librdimon_nano.a(rdimon-syscalls.o)
 .text.initialise_monitor_handles
                0x00000000       0xbc c:/renesas/ra/e2studio_v2021-04_fsp_v3.0.0/toolchains/gcc_arm/9_2020q2/bin/../lib/gcc/arm-none-eabi/9.3.1/../../../../arm-none-eabi/lib/thumb/v8-m.main+fp/hard\librdimon_nano.a(rdimon-syscalls.o)
 .text._link    0x00000000       0x10 c:/renesas/ra/e2studio_v2021-04_fsp_v3.0.0/toolchains/gcc_arm/9_2020q2/bin/../lib/gcc/arm-none-eabi/9.3.1/../../../../arm-none-eabi/lib/thumb/v8-m.main+fp/hard\librdimon_nano.a(rdimon-syscalls.o)
 .text._unlink  0x00000000       0x28 c:/renesas/ra/e2studio_v2021-04_fsp_v3.0.0/toolchains/gcc_arm/9_2020q2/bin/../lib/gcc/arm-none-eabi/9.3.1/../../../../arm-none-eabi/lib/thumb/v8-m.main+fp/hard\librdimon_nano.a(rdimon-syscalls.o)
 .text._gettimeofday
                0x00000000       0x2a c:/renesas/ra/e2studio_v2021-04_fsp_v3.0.0/toolchains/gcc_arm/9_2020q2/bin/../lib/gcc/arm-none-eabi/9.3.1/../../../../arm-none-eabi/lib/thumb/v8-m.main+fp/hard\librdimon_nano.a(rdimon-syscalls.o)
 .text._clock   0x00000000       0x12 c:/renesas/ra/e2studio_v2021-04_fsp_v3.0.0/toolchains/gcc_arm/9_2020q2/bin/../lib/gcc/arm-none-eabi/9.3.1/../../../../arm-none-eabi/lib/thumb/v8-m.main+fp/hard\librdimon_nano.a(rdimon-syscalls.o)
 .text._times   0x00000000       0x16 c:/renesas/ra/e2studio_v2021-04_fsp_v3.0.0/toolchains/gcc_arm/9_2020q2/bin/../lib/gcc/arm-none-eabi/9.3.1/../../../../arm-none-eabi/lib/thumb/v8-m.main+fp/hard\librdimon_nano.a(rdimon-syscalls.o)
 .text._isatty  0x00000000       0x38 c:/renesas/ra/e2studio_v2021-04_fsp_v3.0.0/toolchains/gcc_arm/9_2020q2/bin/../lib/gcc/arm-none-eabi/9.3.1/../../../../arm-none-eabi/lib/thumb/v8-m.main+fp/hard\librdimon_nano.a(rdimon-syscalls.o)
 .text._system  0x00000000       0x3c c:/renesas/ra/e2studio_v2021-04_fsp_v3.0.0/toolchains/gcc_arm/9_2020q2/bin/../lib/gcc/arm-none-eabi/9.3.1/../../../../arm-none-eabi/lib/thumb/v8-m.main+fp/hard\librdimon_nano.a(rdimon-syscalls.o)
 .text._rename  0x00000000       0x36 c:/renesas/ra/e2studio_v2021-04_fsp_v3.0.0/toolchains/gcc_arm/9_2020q2/bin/../lib/gcc/arm-none-eabi/9.3.1/../../../../arm-none-eabi/lib/thumb/v8-m.main+fp/hard\librdimon_nano.a(rdimon-syscalls.o)
 .bss.heap_end.7710
                0x00000000        0x4 c:/renesas/ra/e2studio_v2021-04_fsp_v3.0.0/toolchains/gcc_arm/9_2020q2/bin/../lib/gcc/arm-none-eabi/9.3.1/../../../../arm-none-eabi/lib/thumb/v8-m.main+fp/hard\librdimon_nano.a(rdimon-syscalls.o)
 .bss.monitor_stderr
                0x00000000        0x4 c:/renesas/ra/e2studio_v2021-04_fsp_v3.0.0/toolchains/gcc_arm/9_2020q2/bin/../lib/gcc/arm-none-eabi/9.3.1/../../../../arm-none-eabi/lib/thumb/v8-m.main+fp/hard\librdimon_nano.a(rdimon-syscalls.o)
 .bss.monitor_stdin
                0x00000000        0x4 c:/renesas/ra/e2studio_v2021-04_fsp_v3.0.0/toolchains/gcc_arm/9_2020q2/bin/../lib/gcc/arm-none-eabi/9.3.1/../../../../arm-none-eabi/lib/thumb/v8-m.main+fp/hard\librdimon_nano.a(rdimon-syscalls.o)
 .bss.monitor_stdout
                0x00000000        0x4 c:/renesas/ra/e2studio_v2021-04_fsp_v3.0.0/toolchains/gcc_arm/9_2020q2/bin/../lib/gcc/arm-none-eabi/9.3.1/../../../../arm-none-eabi/lib/thumb/v8-m.main+fp/hard\librdimon_nano.a(rdimon-syscalls.o)
 .bss.openfiles
                0x00000000       0xa0 c:/renesas/ra/e2studio_v2021-04_fsp_v3.0.0/toolchains/gcc_arm/9_2020q2/bin/../lib/gcc/arm-none-eabi/9.3.1/../../../../arm-none-eabi/lib/thumb/v8-m.main+fp/hard\librdimon_nano.a(rdimon-syscalls.o)
 .data.__heap_limit
                0x00000000        0x4 c:/renesas/ra/e2studio_v2021-04_fsp_v3.0.0/toolchains/gcc_arm/9_2020q2/bin/../lib/gcc/arm-none-eabi/9.3.1/../../../../arm-none-eabi/lib/thumb/v8-m.main+fp/hard\librdimon_nano.a(rdimon-syscalls.o)
 .data.supports_ext_exit_extended
                0x00000000        0x4 c:/renesas/ra/e2studio_v2021-04_fsp_v3.0.0/toolchains/gcc_arm/9_2020q2/bin/../lib/gcc/arm-none-eabi/9.3.1/../../../../arm-none-eabi/lib/thumb/v8-m.main+fp/hard\librdimon_nano.a(rdimon-syscalls.o)
 .data.supports_ext_stdout_stderr
                0x00000000        0x4 c:/renesas/ra/e2studio_v2021-04_fsp_v3.0.0/toolchains/gcc_arm/9_2020q2/bin/../lib/gcc/arm-none-eabi/9.3.1/../../../../arm-none-eabi/lib/thumb/v8-m.main+fp/hard\librdimon_nano.a(rdimon-syscalls.o)
 .debug_frame   0x00000000      0x3b0 c:/renesas/ra/e2studio_v2021-04_fsp_v3.0.0/toolchains/gcc_arm/9_2020q2/bin/../lib/gcc/arm-none-eabi/9.3.1/../../../../arm-none-eabi/lib/thumb/v8-m.main+fp/hard\librdimon_nano.a(rdimon-syscalls.o)
 .ARM.attributes
                0x00000000       0x38 c:/renesas/ra/e2studio_v2021-04_fsp_v3.0.0/toolchains/gcc_arm/9_2020q2/bin/../lib/gcc/arm-none-eabi/9.3.1/../../../../arm-none-eabi/lib/thumb/v8-m.main+fp/hard\librdimon_nano.a(rdimon-syscalls.o)
 .text          0x00000000        0x0 c:/renesas/ra/e2studio_v2021-04_fsp_v3.0.0/toolchains/gcc_arm/9_2020q2/bin/../lib/gcc/arm-none-eabi/9.3.1/../../../../arm-none-eabi/lib/thumb/v8-m.main+fp/hard\librdimon_nano.a(rdimon-_exit.o)
 .data          0x00000000        0x0 c:/renesas/ra/e2studio_v2021-04_fsp_v3.0.0/toolchains/gcc_arm/9_2020q2/bin/../lib/gcc/arm-none-eabi/9.3.1/../../../../arm-none-eabi/lib/thumb/v8-m.main+fp/hard\librdimon_nano.a(rdimon-_exit.o)
 .bss           0x00000000        0x0 c:/renesas/ra/e2studio_v2021-04_fsp_v3.0.0/toolchains/gcc_arm/9_2020q2/bin/../lib/gcc/arm-none-eabi/9.3.1/../../../../arm-none-eabi/lib/thumb/v8-m.main+fp/hard\librdimon_nano.a(rdimon-_exit.o)
 .text._exit    0x00000000       0x14 c:/renesas/ra/e2studio_v2021-04_fsp_v3.0.0/toolchains/gcc_arm/9_2020q2/bin/../lib/gcc/arm-none-eabi/9.3.1/../../../../arm-none-eabi/lib/thumb/v8-m.main+fp/hard\librdimon_nano.a(rdimon-_exit.o)
 .debug_frame   0x00000000       0x28 c:/renesas/ra/e2studio_v2021-04_fsp_v3.0.0/toolchains/gcc_arm/9_2020q2/bin/../lib/gcc/arm-none-eabi/9.3.1/../../../../arm-none-eabi/lib/thumb/v8-m.main+fp/hard\librdimon_nano.a(rdimon-_exit.o)
 .ARM.attributes
                0x00000000       0x38 c:/renesas/ra/e2studio_v2021-04_fsp_v3.0.0/toolchains/gcc_arm/9_2020q2/bin/../lib/gcc/arm-none-eabi/9.3.1/../../../../arm-none-eabi/lib/thumb/v8-m.main+fp/hard\librdimon_nano.a(rdimon-_exit.o)
 .text          0x00000000        0x0 c:/renesas/ra/e2studio_v2021-04_fsp_v3.0.0/toolchains/gcc_arm/9_2020q2/bin/../lib/gcc/arm-none-eabi/9.3.1/../../../../arm-none-eabi/lib/thumb/v8-m.main+fp/hard\librdimon_nano.a(rdimon-_kill.o)
 .data          0x00000000        0x0 c:/renesas/ra/e2studio_v2021-04_fsp_v3.0.0/toolchains/gcc_arm/9_2020q2/bin/../lib/gcc/arm-none-eabi/9.3.1/../../../../arm-none-eabi/lib/thumb/v8-m.main+fp/hard\librdimon_nano.a(rdimon-_kill.o)
 .bss           0x00000000        0x0 c:/renesas/ra/e2studio_v2021-04_fsp_v3.0.0/toolchains/gcc_arm/9_2020q2/bin/../lib/gcc/arm-none-eabi/9.3.1/../../../../arm-none-eabi/lib/thumb/v8-m.main+fp/hard\librdimon_nano.a(rdimon-_kill.o)
 .text._kill_shared
                0x00000000       0x26 c:/renesas/ra/e2studio_v2021-04_fsp_v3.0.0/toolchains/gcc_arm/9_2020q2/bin/../lib/gcc/arm-none-eabi/9.3.1/../../../../arm-none-eabi/lib/thumb/v8-m.main+fp/hard\librdimon_nano.a(rdimon-_kill.o)
 .text._kill    0x00000000       0x18 c:/renesas/ra/e2studio_v2021-04_fsp_v3.0.0/toolchains/gcc_arm/9_2020q2/bin/../lib/gcc/arm-none-eabi/9.3.1/../../../../arm-none-eabi/lib/thumb/v8-m.main+fp/hard\librdimon_nano.a(rdimon-_kill.o)
 .debug_frame   0x00000000       0x40 c:/renesas/ra/e2studio_v2021-04_fsp_v3.0.0/toolchains/gcc_arm/9_2020q2/bin/../lib/gcc/arm-none-eabi/9.3.1/../../../../arm-none-eabi/lib/thumb/v8-m.main+fp/hard\librdimon_nano.a(rdimon-_kill.o)
 .ARM.attributes
                0x00000000       0x38 c:/renesas/ra/e2studio_v2021-04_fsp_v3.0.0/toolchains/gcc_arm/9_2020q2/bin/../lib/gcc/arm-none-eabi/9.3.1/../../../../arm-none-eabi/lib/thumb/v8-m.main+fp/hard\librdimon_nano.a(rdimon-_kill.o)
 .text          0x00000000        0x0 c:/renesas/ra/e2studio_v2021-04_fsp_v3.0.0/toolchains/gcc_arm/9_2020q2/bin/../lib/gcc/arm-none-eabi/9.3.1/../../../../arm-none-eabi/lib/thumb/v8-m.main+fp/hard\libc_nano.a(lib_a-findfp.o)
 .data          0x00000000        0x0 c:/renesas/ra/e2studio_v2021-04_fsp_v3.0.0/toolchains/gcc_arm/9_2020q2/bin/../lib/gcc/arm-none-eabi/9.3.1/../../../../arm-none-eabi/lib/thumb/v8-m.main+fp/hard\libc_nano.a(lib_a-findfp.o)
 .bss           0x00000000        0x0 c:/renesas/ra/e2studio_v2021-04_fsp_v3.0.0/toolchains/gcc_arm/9_2020q2/bin/../lib/gcc/arm-none-eabi/9.3.1/../../../../arm-none-eabi/lib/thumb/v8-m.main+fp/hard\libc_nano.a(lib_a-findfp.o)
 .text.std      0x00000000       0x48 c:/renesas/ra/e2studio_v2021-04_fsp_v3.0.0/toolchains/gcc_arm/9_2020q2/bin/../lib/gcc/arm-none-eabi/9.3.1/../../../../arm-none-eabi/lib/thumb/v8-m.main+fp/hard\libc_nano.a(lib_a-findfp.o)
 .text._cleanup_r
                0x00000000        0xc c:/renesas/ra/e2studio_v2021-04_fsp_v3.0.0/toolchains/gcc_arm/9_2020q2/bin/../lib/gcc/arm-none-eabi/9.3.1/../../../../arm-none-eabi/lib/thumb/v8-m.main+fp/hard\libc_nano.a(lib_a-findfp.o)
 .text.__fp_lock
                0x00000000       0x18 c:/renesas/ra/e2studio_v2021-04_fsp_v3.0.0/toolchains/gcc_arm/9_2020q2/bin/../lib/gcc/arm-none-eabi/9.3.1/../../../../arm-none-eabi/lib/thumb/v8-m.main+fp/hard\libc_nano.a(lib_a-findfp.o)
 .text.__fp_unlock
                0x00000000       0x18 c:/renesas/ra/e2studio_v2021-04_fsp_v3.0.0/toolchains/gcc_arm/9_2020q2/bin/../lib/gcc/arm-none-eabi/9.3.1/../../../../arm-none-eabi/lib/thumb/v8-m.main+fp/hard\libc_nano.a(lib_a-findfp.o)
 .text.__sfmoreglue
                0x00000000       0x2c c:/renesas/ra/e2studio_v2021-04_fsp_v3.0.0/toolchains/gcc_arm/9_2020q2/bin/../lib/gcc/arm-none-eabi/9.3.1/../../../../arm-none-eabi/lib/thumb/v8-m.main+fp/hard\libc_nano.a(lib_a-findfp.o)
 .text._cleanup
                0x00000000        0xc c:/renesas/ra/e2studio_v2021-04_fsp_v3.0.0/toolchains/gcc_arm/9_2020q2/bin/../lib/gcc/arm-none-eabi/9.3.1/../../../../arm-none-eabi/lib/thumb/v8-m.main+fp/hard\libc_nano.a(lib_a-findfp.o)
 .text.__sfp_lock_acquire
                0x00000000        0xc c:/renesas/ra/e2studio_v2021-04_fsp_v3.0.0/toolchains/gcc_arm/9_2020q2/bin/../lib/gcc/arm-none-eabi/9.3.1/../../../../arm-none-eabi/lib/thumb/v8-m.main+fp/hard\libc_nano.a(lib_a-findfp.o)
 .text.__sfp_lock_release
                0x00000000        0xc c:/renesas/ra/e2studio_v2021-04_fsp_v3.0.0/toolchains/gcc_arm/9_2020q2/bin/../lib/gcc/arm-none-eabi/9.3.1/../../../../arm-none-eabi/lib/thumb/v8-m.main+fp/hard\libc_nano.a(lib_a-findfp.o)
 .text.__sinit_lock_acquire
                0x00000000        0xc c:/renesas/ra/e2studio_v2021-04_fsp_v3.0.0/toolchains/gcc_arm/9_2020q2/bin/../lib/gcc/arm-none-eabi/9.3.1/../../../../arm-none-eabi/lib/thumb/v8-m.main+fp/hard\libc_nano.a(lib_a-findfp.o)
 .text.__sinit_lock_release
                0x00000000        0xc c:/renesas/ra/e2studio_v2021-04_fsp_v3.0.0/toolchains/gcc_arm/9_2020q2/bin/../lib/gcc/arm-none-eabi/9.3.1/../../../../arm-none-eabi/lib/thumb/v8-m.main+fp/hard\libc_nano.a(lib_a-findfp.o)
 .text.__sinit  0x00000000       0x70 c:/renesas/ra/e2studio_v2021-04_fsp_v3.0.0/toolchains/gcc_arm/9_2020q2/bin/../lib/gcc/arm-none-eabi/9.3.1/../../../../arm-none-eabi/lib/thumb/v8-m.main+fp/hard\libc_nano.a(lib_a-findfp.o)
 .text.__sfp    0x00000000       0x8c c:/renesas/ra/e2studio_v2021-04_fsp_v3.0.0/toolchains/gcc_arm/9_2020q2/bin/../lib/gcc/arm-none-eabi/9.3.1/../../../../arm-none-eabi/lib/thumb/v8-m.main+fp/hard\libc_nano.a(lib_a-findfp.o)
 .text.__fp_lock_all
                0x00000000       0x1c c:/renesas/ra/e2studio_v2021-04_fsp_v3.0.0/toolchains/gcc_arm/9_2020q2/bin/../lib/gcc/arm-none-eabi/9.3.1/../../../../arm-none-eabi/lib/thumb/v8-m.main+fp/hard\libc_nano.a(lib_a-findfp.o)
 .text.__fp_unlock_all
                0x00000000       0x1c c:/renesas/ra/e2studio_v2021-04_fsp_v3.0.0/toolchains/gcc_arm/9_2020q2/bin/../lib/gcc/arm-none-eabi/9.3.1/../../../../arm-none-eabi/lib/thumb/v8-m.main+fp/hard\libc_nano.a(lib_a-findfp.o)
 .text          0x00000000        0x0 c:/renesas/ra/e2studio_v2021-04_fsp_v3.0.0/toolchains/gcc_arm/9_2020q2/bin/../lib/gcc/arm-none-eabi/9.3.1/../../../../arm-none-eabi/lib/thumb/v8-m.main+fp/hard\libc_nano.a(lib_a-fwalk.o)
 .data          0x00000000        0x0 c:/renesas/ra/e2studio_v2021-04_fsp_v3.0.0/toolchains/gcc_arm/9_2020q2/bin/../lib/gcc/arm-none-eabi/9.3.1/../../../../arm-none-eabi/lib/thumb/v8-m.main+fp/hard\libc_nano.a(lib_a-fwalk.o)
 .bss           0x00000000        0x0 c:/renesas/ra/e2studio_v2021-04_fsp_v3.0.0/toolchains/gcc_arm/9_2020q2/bin/../lib/gcc/arm-none-eabi/9.3.1/../../../../arm-none-eabi/lib/thumb/v8-m.main+fp/hard\libc_nano.a(lib_a-fwalk.o)
 .text._fwalk   0x00000000       0x3a c:/renesas/ra/e2studio_v2021-04_fsp_v3.0.0/toolchains/gcc_arm/9_2020q2/bin/../lib/gcc/arm-none-eabi/9.3.1/../../../../arm-none-eabi/lib/thumb/v8-m.main+fp/hard\libc_nano.a(lib_a-fwalk.o)
 .text._fwalk_reent
                0x00000000       0x3e c:/renesas/ra/e2studio_v2021-04_fsp_v3.0.0/toolchains/gcc_arm/9_2020q2/bin/../lib/gcc/arm-none-eabi/9.3.1/../../../../arm-none-eabi/lib/thumb/v8-m.main+fp/hard\libc_nano.a(lib_a-fwalk.o)
 .debug_frame   0x00000000       0x54 c:/renesas/ra/e2studio_v2021-04_fsp_v3.0.0/toolchains/gcc_arm/9_2020q2/bin/../lib/gcc/arm-none-eabi/9.3.1/../../../../arm-none-eabi/lib/thumb/v8-m.main+fp/hard\libc_nano.a(lib_a-fwalk.o)
 .ARM.attributes
                0x00000000       0x38 c:/renesas/ra/e2studio_v2021-04_fsp_v3.0.0/toolchains/gcc_arm/9_2020q2/bin/../lib/gcc/arm-none-eabi/9.3.1/../../../../arm-none-eabi/lib/thumb/v8-m.main+fp/hard\libc_nano.a(lib_a-fwalk.o)
 .text          0x00000000        0x0 c:/renesas/ra/e2studio_v2021-04_fsp_v3.0.0/toolchains/gcc_arm/9_2020q2/bin/../lib/gcc/arm-none-eabi/9.3.1/../../../../arm-none-eabi/lib/thumb/v8-m.main+fp/hard\libc_nano.a(lib_a-stdio.o)
 .data          0x00000000        0x0 c:/renesas/ra/e2studio_v2021-04_fsp_v3.0.0/toolchains/gcc_arm/9_2020q2/bin/../lib/gcc/arm-none-eabi/9.3.1/../../../../arm-none-eabi/lib/thumb/v8-m.main+fp/hard\libc_nano.a(lib_a-stdio.o)
 .bss           0x00000000        0x0 c:/renesas/ra/e2studio_v2021-04_fsp_v3.0.0/toolchains/gcc_arm/9_2020q2/bin/../lib/gcc/arm-none-eabi/9.3.1/../../../../arm-none-eabi/lib/thumb/v8-m.main+fp/hard\libc_nano.a(lib_a-stdio.o)
 .text.__sread  0x00000000       0x22 c:/renesas/ra/e2studio_v2021-04_fsp_v3.0.0/toolchains/gcc_arm/9_2020q2/bin/../lib/gcc/arm-none-eabi/9.3.1/../../../../arm-none-eabi/lib/thumb/v8-m.main+fp/hard\libc_nano.a(lib_a-stdio.o)
 .text.__seofread
                0x00000000        0x4 c:/renesas/ra/e2studio_v2021-04_fsp_v3.0.0/toolchains/gcc_arm/9_2020q2/bin/../lib/gcc/arm-none-eabi/9.3.1/../../../../arm-none-eabi/lib/thumb/v8-m.main+fp/hard\libc_nano.a(lib_a-stdio.o)
 .text.__swrite
                0x00000000       0x38 c:/renesas/ra/e2studio_v2021-04_fsp_v3.0.0/toolchains/gcc_arm/9_2020q2/bin/../lib/gcc/arm-none-eabi/9.3.1/../../../../arm-none-eabi/lib/thumb/v8-m.main+fp/hard\libc_nano.a(lib_a-stdio.o)
 .text.__sseek  0x00000000       0x24 c:/renesas/ra/e2studio_v2021-04_fsp_v3.0.0/toolchains/gcc_arm/9_2020q2/bin/../lib/gcc/arm-none-eabi/9.3.1/../../../../arm-none-eabi/lib/thumb/v8-m.main+fp/hard\libc_nano.a(lib_a-stdio.o)
 .text.__sclose
                0x00000000        0x8 c:/renesas/ra/e2studio_v2021-04_fsp_v3.0.0/toolchains/gcc_arm/9_2020q2/bin/../lib/gcc/arm-none-eabi/9.3.1/../../../../arm-none-eabi/lib/thumb/v8-m.main+fp/hard\libc_nano.a(lib_a-stdio.o)
 .debug_frame   0x00000000       0x88 c:/renesas/ra/e2studio_v2021-04_fsp_v3.0.0/toolchains/gcc_arm/9_2020q2/bin/../lib/gcc/arm-none-eabi/9.3.1/../../../../arm-none-eabi/lib/thumb/v8-m.main+fp/hard\libc_nano.a(lib_a-stdio.o)
 .ARM.attributes
                0x00000000       0x38 c:/renesas/ra/e2studio_v2021-04_fsp_v3.0.0/toolchains/gcc_arm/9_2020q2/bin/../lib/gcc/arm-none-eabi/9.3.1/../../../../arm-none-eabi/lib/thumb/v8-m.main+fp/hard\libc_nano.a(lib_a-stdio.o)
 .text          0x00000000        0x0 c:/renesas/ra/e2studio_v2021-04_fsp_v3.0.0/toolchains/gcc_arm/9_2020q2/bin/../lib/gcc/arm-none-eabi/9.3.1/../../../../arm-none-eabi/lib/thumb/v8-m.main+fp/hard\libc_nano.a(lib_a-writer.o)
 .data          0x00000000        0x0 c:/renesas/ra/e2studio_v2021-04_fsp_v3.0.0/toolchains/gcc_arm/9_2020q2/bin/../lib/gcc/arm-none-eabi/9.3.1/../../../../arm-none-eabi/lib/thumb/v8-m.main+fp/hard\libc_nano.a(lib_a-writer.o)
 .bss           0x00000000        0x0 c:/renesas/ra/e2studio_v2021-04_fsp_v3.0.0/toolchains/gcc_arm/9_2020q2/bin/../lib/gcc/arm-none-eabi/9.3.1/../../../../arm-none-eabi/lib/thumb/v8-m.main+fp/hard\libc_nano.a(lib_a-writer.o)
 .text._write_r
                0x00000000       0x24 c:/renesas/ra/e2studio_v2021-04_fsp_v3.0.0/toolchains/gcc_arm/9_2020q2/bin/../lib/gcc/arm-none-eabi/9.3.1/../../../../arm-none-eabi/lib/thumb/v8-m.main+fp/hard\libc_nano.a(lib_a-writer.o)
 .debug_frame   0x00000000       0x2c c:/renesas/ra/e2studio_v2021-04_fsp_v3.0.0/toolchains/gcc_arm/9_2020q2/bin/../lib/gcc/arm-none-eabi/9.3.1/../../../../arm-none-eabi/lib/thumb/v8-m.main+fp/hard\libc_nano.a(lib_a-writer.o)
 .ARM.attributes
                0x00000000       0x38 c:/renesas/ra/e2studio_v2021-04_fsp_v3.0.0/toolchains/gcc_arm/9_2020q2/bin/../lib/gcc/arm-none-eabi/9.3.1/../../../../arm-none-eabi/lib/thumb/v8-m.main+fp/hard\libc_nano.a(lib_a-writer.o)
 .text          0x00000000        0x0 c:/renesas/ra/e2studio_v2021-04_fsp_v3.0.0/toolchains/gcc_arm/9_2020q2/bin/../lib/gcc/arm-none-eabi/9.3.1/../../../../arm-none-eabi/lib/thumb/v8-m.main+fp/hard\libc_nano.a(lib_a-closer.o)
 .data          0x00000000        0x0 c:/renesas/ra/e2studio_v2021-04_fsp_v3.0.0/toolchains/gcc_arm/9_2020q2/bin/../lib/gcc/arm-none-eabi/9.3.1/../../../../arm-none-eabi/lib/thumb/v8-m.main+fp/hard\libc_nano.a(lib_a-closer.o)
 .bss           0x00000000        0x0 c:/renesas/ra/e2studio_v2021-04_fsp_v3.0.0/toolchains/gcc_arm/9_2020q2/bin/../lib/gcc/arm-none-eabi/9.3.1/../../../../arm-none-eabi/lib/thumb/v8-m.main+fp/hard\libc_nano.a(lib_a-closer.o)
 .text._close_r
                0x00000000       0x20 c:/renesas/ra/e2studio_v2021-04_fsp_v3.0.0/toolchains/gcc_arm/9_2020q2/bin/../lib/gcc/arm-none-eabi/9.3.1/../../../../arm-none-eabi/lib/thumb/v8-m.main+fp/hard\libc_nano.a(lib_a-closer.o)
 .debug_frame   0x00000000       0x2c c:/renesas/ra/e2studio_v2021-04_fsp_v3.0.0/toolchains/gcc_arm/9_2020q2/bin/../lib/gcc/arm-none-eabi/9.3.1/../../../../arm-none-eabi/lib/thumb/v8-m.main+fp/hard\libc_nano.a(lib_a-closer.o)
 .ARM.attributes
                0x00000000       0x38 c:/renesas/ra/e2studio_v2021-04_fsp_v3.0.0/toolchains/gcc_arm/9_2020q2/bin/../lib/gcc/arm-none-eabi/9.3.1/../../../../arm-none-eabi/lib/thumb/v8-m.main+fp/hard\libc_nano.a(lib_a-closer.o)
 .text          0x00000000        0x0 c:/renesas/ra/e2studio_v2021-04_fsp_v3.0.0/toolchains/gcc_arm/9_2020q2/bin/../lib/gcc/arm-none-eabi/9.3.1/../../../../arm-none-eabi/lib/thumb/v8-m.main+fp/hard\libc_nano.a(lib_a-fflush.o)
 .data          0x00000000        0x0 c:/renesas/ra/e2studio_v2021-04_fsp_v3.0.0/toolchains/gcc_arm/9_2020q2/bin/../lib/gcc/arm-none-eabi/9.3.1/../../../../arm-none-eabi/lib/thumb/v8-m.main+fp/hard\libc_nano.a(lib_a-fflush.o)
 .bss           0x00000000        0x0 c:/renesas/ra/e2studio_v2021-04_fsp_v3.0.0/toolchains/gcc_arm/9_2020q2/bin/../lib/gcc/arm-none-eabi/9.3.1/../../../../arm-none-eabi/lib/thumb/v8-m.main+fp/hard\libc_nano.a(lib_a-fflush.o)
 .text.__sflush_r
                0x00000000      0x108 c:/renesas/ra/e2studio_v2021-04_fsp_v3.0.0/toolchains/gcc_arm/9_2020q2/bin/../lib/gcc/arm-none-eabi/9.3.1/../../../../arm-none-eabi/lib/thumb/v8-m.main+fp/hard\libc_nano.a(lib_a-fflush.o)
 .text._fflush_r
                0x00000000       0x78 c:/renesas/ra/e2studio_v2021-04_fsp_v3.0.0/toolchains/gcc_arm/9_2020q2/bin/../lib/gcc/arm-none-eabi/9.3.1/../../../../arm-none-eabi/lib/thumb/v8-m.main+fp/hard\libc_nano.a(lib_a-fflush.o)
 .text.fflush   0x00000000       0x24 c:/renesas/ra/e2studio_v2021-04_fsp_v3.0.0/toolchains/gcc_arm/9_2020q2/bin/../lib/gcc/arm-none-eabi/9.3.1/../../../../arm-none-eabi/lib/thumb/v8-m.main+fp/hard\libc_nano.a(lib_a-fflush.o)
 .debug_frame   0x00000000       0x5c c:/renesas/ra/e2studio_v2021-04_fsp_v3.0.0/toolchains/gcc_arm/9_2020q2/bin/../lib/gcc/arm-none-eabi/9.3.1/../../../../arm-none-eabi/lib/thumb/v8-m.main+fp/hard\libc_nano.a(lib_a-fflush.o)
 .ARM.attributes
                0x00000000       0x38 c:/renesas/ra/e2studio_v2021-04_fsp_v3.0.0/toolchains/gcc_arm/9_2020q2/bin/../lib/gcc/arm-none-eabi/9.3.1/../../../../arm-none-eabi/lib/thumb/v8-m.main+fp/hard\libc_nano.a(lib_a-fflush.o)
 .text          0x00000000        0x0 c:/renesas/ra/e2studio_v2021-04_fsp_v3.0.0/toolchains/gcc_arm/9_2020q2/bin/../lib/gcc/arm-none-eabi/9.3.1/../../../../arm-none-eabi/lib/thumb/v8-m.main+fp/hard\libc_nano.a(lib_a-lseekr.o)
 .data          0x00000000        0x0 c:/renesas/ra/e2studio_v2021-04_fsp_v3.0.0/toolchains/gcc_arm/9_2020q2/bin/../lib/gcc/arm-none-eabi/9.3.1/../../../../arm-none-eabi/lib/thumb/v8-m.main+fp/hard\libc_nano.a(lib_a-lseekr.o)
 .bss           0x00000000        0x0 c:/renesas/ra/e2studio_v2021-04_fsp_v3.0.0/toolchains/gcc_arm/9_2020q2/bin/../lib/gcc/arm-none-eabi/9.3.1/../../../../arm-none-eabi/lib/thumb/v8-m.main+fp/hard\libc_nano.a(lib_a-lseekr.o)
 .text._lseek_r
                0x00000000       0x24 c:/renesas/ra/e2studio_v2021-04_fsp_v3.0.0/toolchains/gcc_arm/9_2020q2/bin/../lib/gcc/arm-none-eabi/9.3.1/../../../../arm-none-eabi/lib/thumb/v8-m.main+fp/hard\libc_nano.a(lib_a-lseekr.o)
 .debug_frame   0x00000000       0x2c c:/renesas/ra/e2studio_v2021-04_fsp_v3.0.0/toolchains/gcc_arm/9_2020q2/bin/../lib/gcc/arm-none-eabi/9.3.1/../../../../arm-none-eabi/lib/thumb/v8-m.main+fp/hard\libc_nano.a(lib_a-lseekr.o)
 .ARM.attributes
                0x00000000       0x38 c:/renesas/ra/e2studio_v2021-04_fsp_v3.0.0/toolchains/gcc_arm/9_2020q2/bin/../lib/gcc/arm-none-eabi/9.3.1/../../../../arm-none-eabi/lib/thumb/v8-m.main+fp/hard\libc_nano.a(lib_a-lseekr.o)
 .text          0x00000000        0x0 c:/renesas/ra/e2studio_v2021-04_fsp_v3.0.0/toolchains/gcc_arm/9_2020q2/bin/../lib/gcc/arm-none-eabi/9.3.1/../../../../arm-none-eabi/lib/thumb/v8-m.main+fp/hard\libc_nano.a(lib_a-readr.o)
 .data          0x00000000        0x0 c:/renesas/ra/e2studio_v2021-04_fsp_v3.0.0/toolchains/gcc_arm/9_2020q2/bin/../lib/gcc/arm-none-eabi/9.3.1/../../../../arm-none-eabi/lib/thumb/v8-m.main+fp/hard\libc_nano.a(lib_a-readr.o)
 .bss           0x00000000        0x0 c:/renesas/ra/e2studio_v2021-04_fsp_v3.0.0/toolchains/gcc_arm/9_2020q2/bin/../lib/gcc/arm-none-eabi/9.3.1/../../../../arm-none-eabi/lib/thumb/v8-m.main+fp/hard\libc_nano.a(lib_a-readr.o)
 .text._read_r  0x00000000       0x24 c:/renesas/ra/e2studio_v2021-04_fsp_v3.0.0/toolchains/gcc_arm/9_2020q2/bin/../lib/gcc/arm-none-eabi/9.3.1/../../../../arm-none-eabi/lib/thumb/v8-m.main+fp/hard\libc_nano.a(lib_a-readr.o)
 .debug_frame   0x00000000       0x2c c:/renesas/ra/e2studio_v2021-04_fsp_v3.0.0/toolchains/gcc_arm/9_2020q2/bin/../lib/gcc/arm-none-eabi/9.3.1/../../../../arm-none-eabi/lib/thumb/v8-m.main+fp/hard\libc_nano.a(lib_a-readr.o)
 .ARM.attributes
                0x00000000       0x38 c:/renesas/ra/e2studio_v2021-04_fsp_v3.0.0/toolchains/gcc_arm/9_2020q2/bin/../lib/gcc/arm-none-eabi/9.3.1/../../../../arm-none-eabi/lib/thumb/v8-m.main+fp/hard\libc_nano.a(lib_a-readr.o)
 .text          0x00000000        0x0 c:/renesas/ra/e2studio_v2021-04_fsp_v3.0.0/toolchains/gcc_arm/9_2020q2/bin/../lib/gcc/arm-none-eabi/9.3.1/thumb/v8-m.main+fp/hard/crtend.o
 .data          0x00000000        0x0 c:/renesas/ra/e2studio_v2021-04_fsp_v3.0.0/toolchains/gcc_arm/9_2020q2/bin/../lib/gcc/arm-none-eabi/9.3.1/thumb/v8-m.main+fp/hard/crtend.o
 .bss           0x00000000        0x0 c:/renesas/ra/e2studio_v2021-04_fsp_v3.0.0/toolchains/gcc_arm/9_2020q2/bin/../lib/gcc/arm-none-eabi/9.3.1/thumb/v8-m.main+fp/hard/crtend.o
 .text          0x00000000        0x0 c:/renesas/ra/e2studio_v2021-04_fsp_v3.0.0/toolchains/gcc_arm/9_2020q2/bin/../lib/gcc/arm-none-eabi/9.3.1/thumb/v8-m.main+fp/hard/crtn.o
 .data          0x00000000        0x0 c:/renesas/ra/e2studio_v2021-04_fsp_v3.0.0/toolchains/gcc_arm/9_2020q2/bin/../lib/gcc/arm-none-eabi/9.3.1/thumb/v8-m.main+fp/hard/crtn.o
 .bss           0x00000000        0x0 c:/renesas/ra/e2studio_v2021-04_fsp_v3.0.0/toolchains/gcc_arm/9_2020q2/bin/../lib/gcc/arm-none-eabi/9.3.1/thumb/v8-m.main+fp/hard/crtn.o

Memory Configuration

Name             Origin             Length             Attributes
FLASH            0x00010400         0x00050000         xr
RAM              0x20000000         0x00040000         xrw
DATA_FLASH       0x08000000         0x00002000         xr
QSPI_FLASH       0x60000000         0x04000000         xr
OSPI_DEVICE_0    0x68000000         0x08000000         xr
OSPI_DEVICE_1    0x70000000         0x10000000         xr
SDRAM            0x90000000         0x00000000         xrw
OPTION_SETTING   0x0100a100         0x00000100         r
OPTION_SETTING_S 0x0100a200         0x00000100         r
ID_CODE          0x00000000         0x00000000         xr
*default*        0x00000000         0xffffffff

Linker script and memory map

LOAD c:/renesas/ra/e2studio_v2021-04_fsp_v3.0.0/toolchains/gcc_arm/9_2020q2/bin/../lib/gcc/arm-none-eabi/9.3.1/thumb/v8-m.main+fp/hard/crti.o
LOAD c:/renesas/ra/e2studio_v2021-04_fsp_v3.0.0/toolchains/gcc_arm/9_2020q2/bin/../lib/gcc/arm-none-eabi/9.3.1/thumb/v8-m.main+fp/hard/crtbegin.o
LOAD c:/renesas/ra/e2studio_v2021-04_fsp_v3.0.0/toolchains/gcc_arm/9_2020q2/bin/../lib/gcc/arm-none-eabi/9.3.1/../../../../arm-none-eabi/lib/thumb/v8-m.main+fp/hard/rdimon-crt0.o
START GROUP
LOAD ./tray/box.o
LOAD ./tray/entry.o
LOAD ./tray/flow.o
LOAD ./tray/func.o
LOAD ./tray/log.o
LOAD ./tray/plc.o
LOAD ./tray/timer.o
LOAD ./tray/tray.o
LOAD ./tray/tray_upper.o
LOAD ./tray/uart.o
LOAD ./src/hal_entry.o
LOAD ./ra_gen/common_data.o
LOAD ./ra_gen/hal_data.o
LOAD ./ra_gen/main.o
LOAD ./ra_gen/pin_data.o
LOAD ./ra_gen/vector_data.o
LOAD ./ra/fsp/src/r_spi/r_spi.o
LOAD ./ra/fsp/src/r_sci_uart/r_sci_uart.o
LOAD ./ra/fsp/src/r_qspi/r_qspi.o
LOAD ./ra/fsp/src/r_ioport/r_ioport.o
LOAD ./ra/fsp/src/r_gpt/r_gpt.o
LOAD ./ra/fsp/src/r_flash_hp/r_flash_hp.o
LOAD ./ra/fsp/src/r_dtc/r_dtc.o
LOAD ./ra/fsp/src/r_can/r_can.o
LOAD ./ra/fsp/src/bsp/mcu/all/bsp_clocks.o
LOAD ./ra/fsp/src/bsp/mcu/all/bsp_common.o
LOAD ./ra/fsp/src/bsp/mcu/all/bsp_delay.o
LOAD ./ra/fsp/src/bsp/mcu/all/bsp_group_irq.o
LOAD ./ra/fsp/src/bsp/mcu/all/bsp_guard.o
LOAD ./ra/fsp/src/bsp/mcu/all/bsp_io.o
LOAD ./ra/fsp/src/bsp/mcu/all/bsp_irq.o
LOAD ./ra/fsp/src/bsp/mcu/all/bsp_register_protection.o
LOAD ./ra/fsp/src/bsp/mcu/all/bsp_rom_registers.o
LOAD ./ra/fsp/src/bsp/mcu/all/bsp_sbrk.o
LOAD ./ra/fsp/src/bsp/mcu/all/bsp_security.o
LOAD ./ra/fsp/src/bsp/cmsis/Device/RENESAS/Source/startup.o
LOAD ./ra/fsp/src/bsp/cmsis/Device/RENESAS/Source/system.o
LOAD ./public/u_function.o
LOAD ./public/u_led.o
LOAD ./public/u_setting.o
LOAD ./public/u_setting_tool_ntp.o
LOAD ./mlos/services/mlos_log.o
LOAD ./mlos/services/mlos_shell.o
LOAD ./mlos/port/RA6M4/mlos_port.o
LOAD ./mlos/os/mlos.o
LOAD ./mlos/os/mlos_clock.o
LOAD ./mlos/os/mlos_list.o
LOAD ./mlos/os/mlos_ltimer.o
LOAD ./mlos/os/mlos_malloc.o
LOAD ./mlos/os/mlos_mpump.o
LOAD ./mlos/os/mlos_que.o
LOAD ./mlos/os/mlos_rtimer.o
LOAD ./mlos/os/mlos_task.o
LOAD ./mllib/utp/ra6m4/utp_uart_driver.o
LOAD ./mllib/utp/pb.o
LOAD ./mllib/utp/public.o
LOAD ./mllib/utp/utp.o
LOAD ./mllib/upper/upper_ntp.o
LOAD ./mllib/tool/tool.o
LOAD ./mllib/ntp/w5500/ra6m4/ntp_w5500_spi_driver.o
LOAD ./mllib/ntp/w5500/ntp_w5500.o
LOAD ./mllib/ntp/ntp.o
LOAD ./mllib/ntp/ntp_usocket.o
LOAD ./mllib/mlflash/mx35xx/RA6M4/mx35_spi_driver.o
LOAD ./mllib/mlflash/mx35xx/mx35.o
LOAD ./mllib/mlflash/mcuflash/RA6M4/mcu_flash.o
LOAD ./mllib/mlflash/cssdcard/RA6M4/cs_sd_spi_driver.o
LOAD ./mllib/mlflash/cssdcard/cs_sdcard.o
LOAD ./mllib/iap/mc_ra6m4_iap_protocol/iap_tool_ntp.o
LOAD ./mllib/iap/mc_ra6m4_iap_protocol/iap_upper_ntp.o
LOAD ./mllib/iap/RA6M4/iap_mcu_port.o
LOAD ./mllib/iap/iap.o
LOAD ./mllib/dataStorage/ds.o
LOAD ./mllib/dataStorage/ds_tray_file.o
LOAD ./mllib/ctp/ra6m4/ctp_can_driver.o
LOAD ./mllib/ctp/ctp.o
LOAD ./app/u_app.o
LOAD ./app/u_app_tool_debug.o
END GROUP
START GROUP
LOAD c:/renesas/ra/e2studio_v2021-04_fsp_v3.0.0/toolchains/gcc_arm/9_2020q2/bin/../lib/gcc/arm-none-eabi/9.3.1/thumb/v8-m.main+fp/hard\libgcc.a
LOAD c:/renesas/ra/e2studio_v2021-04_fsp_v3.0.0/toolchains/gcc_arm/9_2020q2/bin/../lib/gcc/arm-none-eabi/9.3.1/../../../../arm-none-eabi/lib/thumb/v8-m.main+fp/hard\libg_nano.a
LOAD c:/renesas/ra/e2studio_v2021-04_fsp_v3.0.0/toolchains/gcc_arm/9_2020q2/bin/../lib/gcc/arm-none-eabi/9.3.1/../../../../arm-none-eabi/lib/thumb/v8-m.main+fp/hard\libc_nano.a
END GROUP
START GROUP
LOAD c:/renesas/ra/e2studio_v2021-04_fsp_v3.0.0/toolchains/gcc_arm/9_2020q2/bin/../lib/gcc/arm-none-eabi/9.3.1/thumb/v8-m.main+fp/hard\libgcc.a
LOAD c:/renesas/ra/e2studio_v2021-04_fsp_v3.0.0/toolchains/gcc_arm/9_2020q2/bin/../lib/gcc/arm-none-eabi/9.3.1/../../../../arm-none-eabi/lib/thumb/v8-m.main+fp/hard\libc_nano.a
LOAD c:/renesas/ra/e2studio_v2021-04_fsp_v3.0.0/toolchains/gcc_arm/9_2020q2/bin/../lib/gcc/arm-none-eabi/9.3.1/../../../../arm-none-eabi/lib/thumb/v8-m.main+fp/hard\librdimon_nano.a
END GROUP
START GROUP
LOAD c:/renesas/ra/e2studio_v2021-04_fsp_v3.0.0/toolchains/gcc_arm/9_2020q2/bin/../lib/gcc/arm-none-eabi/9.3.1/thumb/v8-m.main+fp/hard\libgcc.a
LOAD c:/renesas/ra/e2studio_v2021-04_fsp_v3.0.0/toolchains/gcc_arm/9_2020q2/bin/../lib/gcc/arm-none-eabi/9.3.1/../../../../arm-none-eabi/lib/thumb/v8-m.main+fp/hard\libc_nano.a
LOAD c:/renesas/ra/e2studio_v2021-04_fsp_v3.0.0/toolchains/gcc_arm/9_2020q2/bin/../lib/gcc/arm-none-eabi/9.3.1/../../../../arm-none-eabi/lib/thumb/v8-m.main+fp/hard\librdimon_nano.a
END GROUP
LOAD c:/renesas/ra/e2studio_v2021-04_fsp_v3.0.0/toolchains/gcc_arm/9_2020q2/bin/../lib/gcc/arm-none-eabi/9.3.1/thumb/v8-m.main+fp/hard/crtend.o
LOAD c:/renesas/ra/e2studio_v2021-04_fsp_v3.0.0/toolchains/gcc_arm/9_2020q2/bin/../lib/gcc/arm-none-eabi/9.3.1/thumb/v8-m.main+fp/hard/crtn.o
                0x20000000                RAM_START = 0x20000000
                0x00040000                RAM_LENGTH = 0x40000
                0x00010400                FLASH_START = 0x10400
                0x00050000                FLASH_LENGTH = 0x50000
                0x08000000                DATA_FLASH_START = 0x8000000
                0x00002000                DATA_FLASH_LENGTH = 0x2000
                0x0100a100                OPTION_SETTING_START = 0x100a100
                0x00000100                OPTION_SETTING_LENGTH = 0x100
                0x0100a200                OPTION_SETTING_S_START = 0x100a200
                0x00000100                OPTION_SETTING_S_LENGTH = 0x100
                0x00000000                ID_CODE_START = 0x0
                0x00000000                ID_CODE_LENGTH = 0x0
                0x90000000                SDRAM_START = 0x90000000
                0x00000000                SDRAM_LENGTH = 0x0
                0x60000000                QSPI_FLASH_START = 0x60000000
                0x04000000                QSPI_FLASH_LENGTH = 0x4000000
                0x68000000                OSPI_DEVICE_0_START = 0x68000000
                0x08000000                OSPI_DEVICE_0_LENGTH = 0x8000000
                0x70000000                OSPI_DEVICE_1_START = 0x70000000
                0x10000000                OSPI_DEVICE_1_LENGTH = 0x10000000
                0x04000000                QSPI_FLASH_PRV_LENGTH = DEFINED (QSPI_FLASH_SIZE)?ABSOLUTE (QSPI_FLASH_SIZE):ABSOLUTE (QSPI_FLASH_LENGTH)
                0x08000000                OSPI_DEVICE_0_PRV_LENGTH = DEFINED (OSPI_DEVICE_0_SIZE)?ABSOLUTE (OSPI_DEVICE_0_SIZE):ABSOLUTE (OSPI_DEVICE_0_LENGTH)
                0x10000000                OSPI_DEVICE_1_PRV_LENGTH = DEFINED (OSPI_DEVICE_1_SIZE)?ABSOLUTE (OSPI_DEVICE_1_SIZE):ABSOLUTE (OSPI_DEVICE_1_LENGTH)
                0x00000000                __RESERVE_NS_RAM = ((! (DEFINED (PROJECT_NONSECURE)) && DEFINED (RAM_NS_BUFFER_LENGTH)) && (OPTION_SETTING_S_LENGTH != 0x0))
                0x00000000                RAM_NS_BUFFER_BLOCK_LENGTH = DEFINED (RAM_NS_BUFFER_LENGTH)?ALIGN (RAM_NS_BUFFER_LENGTH, 0x2000):0x0
                0x00000000                RAM_NS_BUFFER_LENGTH = DEFINED (RAM_NS_BUFFER_LENGTH)?RAM_NS_BUFFER_LENGTH:0x0
                0x20040000                RAM_NS_BUFFER_START = ((RAM_START + RAM_LENGTH) - RAM_NS_BUFFER_LENGTH)
                0x20040000                RAM_NS_BUFFER_BLOCK_START = ((RAM_START + RAM_LENGTH) - RAM_NS_BUFFER_BLOCK_LENGTH)
                0x0100a180                OPTION_SETTING_START_NS = 0x100a180
                0x00000001                __bl_FSP_BOOTABLE_IMAGE = 0x1
                0x00000001                __bln_FSP_BOOTABLE_IMAGE = 0x1
                0x00000001                PROJECT_SECURE_OR_FLAT = ((! (DEFINED (PROJECT_NONSECURE)) && OPTION_SETTING_LENGTH) && ! (DEFINED (FSP_BOOTABLE_IMAGE)))
                0x00000000                USE_OPTION_SETTING_NS = (DEFINED (PROJECT_NONSECURE) && ! (DEFINED (FSP_BOOTABLE_IMAGE)))
                0x00000000                __bl_FLASH_IMAGE_START = ! (DEFINED (FLASH_BOOTLOADER_LENGTH))?0x0:(FLASH_APPLICATION_IMAGE_NUMBER == 0x1)?(FLASH_BOOTLOADER_LENGTH + FLASH_BOOTLOADER_HEADER_LENGTH):(((FLASH_BOOTLOADER_LENGTH + FLASH_BOOTLOADER_SCRATCH_LENGTH) + FLASH_APPLICATION_S_LENGTH) + FLASH_BOOTLOADER_HEADER_LENGTH)
                0x00000000                __bl_FLASH_IMAGE_LENGTH = ! (DEFINED (FLASH_BOOTLOADER_LENGTH))?0x0:(FLASH_APPLICATION_S_LENGTH - FLASH_BOOTLOADER_HEADER_LENGTH)
                0x00000000                __bl_FLASH_IMAGE_END = (__bl_FLASH_IMAGE_START + __bl_FLASH_IMAGE_LENGTH)
                0x00000000                __bl_FLASH_NS_START = ! (DEFINED (FLASH_BOOTLOADER_LENGTH))?0x0:(FLASH_APPLICATION_NS_LENGTH == 0x0)?__bl_FLASH_IMAGE_END:((__bl_FLASH_IMAGE_START - FLASH_BOOTLOADER_HEADER_LENGTH) + FLASH_APPLICATION_S_LENGTH)
                0x00000000                __bl_FLASH_NSC_START = ! (DEFINED (FLASH_BOOTLOADER_LENGTH))?0x0:(FLASH_APPLICATION_NS_LENGTH == 0x0)?__bl_FLASH_IMAGE_END:(__bl_FLASH_NS_START - FLASH_APPLICATION_NSC_LENGTH)
                0x00000000                __bl_RAM_NS_START = ! (DEFINED (FLASH_BOOTLOADER_LENGTH))?0x0:(FLASH_APPLICATION_NS_LENGTH == 0x0)?(RAM_START + RAM_LENGTH):((RAM_START + RAM_LENGTH) - RAM_APPLICATION_NS_LENGTH)
                0x00000000                __bl_RAM_NSC_START = ! (DEFINED (FLASH_BOOTLOADER_LENGTH))?0x0:(FLASH_APPLICATION_NS_LENGTH == 0x0)?(RAM_START + RAM_LENGTH):(__bl_RAM_NS_START - RAM_APPLICATION_NSC_LENGTH)
                0x00000000                __bl_FLASH_NS_IMAGE_START = ! (DEFINED (FLASH_BOOTLOADER_LENGTH))?0x0:(FLASH_APPLICATION_NS_LENGTH == 0x0)?__bl_FLASH_IMAGE_END:(__bl_FLASH_NS_START + FLASH_BOOTLOADER_HEADER_LENGTH_2)
                0x00000000                __bln_FLASH_IMAGE_START = __bl_FLASH_NS_IMAGE_START
                0x00000000                __bln_FLASH_IMAGE_LENGTH = ! (DEFINED (FLASH_BOOTLOADER_LENGTH))?0x0:(FLASH_APPLICATION_NS_LENGTH == 0x0)?__bl_FLASH_IMAGE_END:(FLASH_APPLICATION_NS_LENGTH - FLASH_BOOTLOADER_HEADER_LENGTH_2)
                0x00010400                FLASH_ORIGIN = DEFINED (FLASH_IMAGE_START)?FLASH_IMAGE_START:FLASH_START
                0x00050000                LIMITED_FLASH_LENGTH = DEFINED (FLASH_IMAGE_LENGTH)?FLASH_IMAGE_LENGTH:DEFINED (FLASH_BOOTLOADER_LENGTH)?FLASH_BOOTLOADER_LENGTH:FLASH_LENGTH
START GROUP
LOAD c:/renesas/ra/e2studio_v2021-04_fsp_v3.0.0/toolchains/gcc_arm/9_2020q2/bin/../lib/gcc/arm-none-eabi/9.3.1/thumb/v8-m.main+fp/hard\libgcc.a
LOAD c:/renesas/ra/e2studio_v2021-04_fsp_v3.0.0/toolchains/gcc_arm/9_2020q2/bin/../lib/gcc/arm-none-eabi/9.3.1/../../../../arm-none-eabi/lib/thumb/v8-m.main+fp/hard\libc.a
LOAD c:/renesas/ra/e2studio_v2021-04_fsp_v3.0.0/toolchains/gcc_arm/9_2020q2/bin/../lib/gcc/arm-none-eabi/9.3.1/../../../../arm-none-eabi/lib/thumb/v8-m.main+fp/hard\libm.a
LOAD c:/renesas/ra/e2studio_v2021-04_fsp_v3.0.0/toolchains/gcc_arm/9_2020q2/bin/../lib/gcc/arm-none-eabi/9.3.1/../../../../arm-none-eabi/lib/thumb/v8-m.main+fp/hard\libnosys.a
END GROUP

.text           0x00010400     0xc64c
                0x00010400                __tz_FLASH_S = ABSOLUTE (FLASH_START)
                0x00010400                __ROM_Start = .
 *(.fixed_vectors*)
 .fixed_vectors
                0x00010400       0x40 ./ra/fsp/src/bsp/cmsis/Device/RENESAS/Source/startup.o
                0x00010400                __Vectors
 *(.application_vectors*)
 .application_vectors
                0x00010440      0x180 ./ra_gen/vector_data.o
                0x00010440                g_vector_table
                0x000105c0                __Vectors_End = .
                0x000105c0                . = (OPTION_SETTING_LENGTH > 0x0)?.:(__ROM_Start + 0x400)
 *(.rom_registers*)
                0x000105c0                . = (OPTION_SETTING_LENGTH > 0x0)?.:(__ROM_Start + 0x500)
 *(.text*)
 .text          0x000105c0       0x40 c:/renesas/ra/e2studio_v2021-04_fsp_v3.0.0/toolchains/gcc_arm/9_2020q2/bin/../lib/gcc/arm-none-eabi/9.3.1/thumb/v8-m.main+fp/hard/crtbegin.o
 .text.boxMsgIgnore
                0x00010600        0x4 ./tray/box.o
                0x00010600                boxMsgIgnore
 .text.boxExprUpdUpldAck
                0x00010604        0x4 ./tray/box.o
                0x00010604                boxExprUpdUpldAck
 .text.boxRxSmplSeriesWiSw
                0x00010608        0x4 ./tray/box.o
                0x00010608                boxRxSmplSeriesWiSw
 .text.boxRxSmplAck
                0x0001060c       0x60 ./tray/box.o
                0x0001060c                boxRxSmplAck
 .text.boxRxCtrlAck
                0x0001066c        0x4 ./tray/box.o
                0x0001066c                boxRxCtrlAck
 .text.boxExprUpdCnfmAck
                0x00010670       0x2c ./tray/box.o
                0x00010670                boxExprUpdCnfmAck
 .text.boxExprUpdSetupAck
                0x0001069c       0x2c ./tray/box.o
                0x0001069c                boxExprUpdSetupAck
 .text.boxExprCaliSmplAck
                0x000106c8       0x4c ./tray/box.o
                0x000106c8                boxExprCaliSmplAck
 .text.boxRxUpdCnfmAck
                0x00010714       0x54 ./tray/box.o
                0x00010714                boxRxUpdCnfmAck
 .text.boxRxUpdSetupAck
                0x00010768       0x6c ./tray/box.o
                0x00010768                boxRxUpdSetupAck
 .text.boxExprCaliNtfyAck
                0x000107d4       0x10 ./tray/box.o
                0x000107d4                boxExprCaliNtfyAck
 .text.boxRxCaliNtfyAck
                0x000107e4       0x50 ./tray/box.o
                0x000107e4                boxRxCaliNtfyAck
 .text.boxExprCmmnAuxAck
                0x00010834       0x10 ./tray/box.o
                0x00010834                boxExprCmmnAuxAck
 .text.boxRxUpdDldAck
                0x00010844       0x40 ./tray/box.o
                0x00010844                boxRxUpdDldAck
 .text.boxRxCaliCmmnAck
                0x00010884       0x40 ./tray/box.o
                0x00010884                boxRxCaliCmmnAck
 .text.boxRxConnAck
                0x000108c4       0x68 ./tray/box.o
                0x000108c4                boxRxConnAck
 .text.boxRxCaliSmplAck
                0x0001092c      0x138 ./tray/box.o
                0x0001092c                boxRxCaliSmplAck
 .text.boxRxCfgReadAck
                0x00010a64        0x4 ./tray/box.o
                0x00010a64                boxRxCfgReadAck
 .text.boxRxCfgSetAck
                0x00010a68        0x4 ./tray/box.o
                0x00010a68                boxRxCfgSetAck
 .text.boxRxUpdUpldAck
                0x00010a6c        0x4 ./tray/box.o
                0x00010a6c                boxRxUpdUpldAck
 .text.boxExprCfgReadAck
                0x00010a70        0x4 ./tray/box.o
                0x00010a70                boxExprCfgReadAck
 .text.boxExprCfgSetAck
                0x00010a74        0x4 ./tray/box.o
                0x00010a74                boxExprCfgSetAck
 .text.allocAuxCanBuf
                0x00010a78       0x20 ./tray/box.o
                0x00010a78                allocAuxCanBuf
 .text.boxAuxTx
                0x00010a98       0x30 ./tray/box.o
                0x00010a98                boxAuxTx
 .text.boxAuxTxTry
                0x00010ac8       0x38 ./tray/box.o
                0x00010ac8                boxAuxTxTry
 .text.boxSmplTx
                0x00010b00       0x4c ./tray/box.o
                0x00010b00                boxSmplTx
 .text.boxSmplTxTry
                0x00010b4c       0x90 ./tray/box.o
                0x00010b4c                boxSmplTxTry
 .text.boxCtrlRcd
                0x00010bdc       0x60 ./tray/box.o
                0x00010bdc                boxCtrlRcd
 .text.boxCtrlTx
                0x00010c3c       0xc4 ./tray/box.o
                0x00010c3c                boxCtrlTx
 .text.boxCtrlTxTry
                0x00010d00       0x50 ./tray/box.o
                0x00010d00                boxCtrlTxTry
 .text.boxRxSmplParallel
                0x00010d50      0x190 ./tray/box.o
                0x00010d50                boxRxSmplParallel
 .text.boxRxSmplSeriesWoSw
                0x00010ee0      0x248 ./tray/box.o
                0x00010ee0                boxRxSmplSeriesWoSw
 .text.canIdleNtfy
                0x00011128       0xa0 ./tray/box.o
                0x00011128                canIdleNtfy
 .text.boxExprCtrlAck
                0x000111c8       0x14 ./tray/box.o
                0x000111c8                boxExprCtrlAck
 .text.boxExprSmplAck
                0x000111dc       0x60 ./tray/box.o
                0x000111dc                boxExprSmplAck
 .text.boxExprAuxAck
                0x0001123c       0x88 ./tray/box.o
                0x0001123c                boxExprAuxAck
 .text.canRxMsg
                0x000112c4       0x74 ./tray/box.o
                0x000112c4                canRxMsg
 .text.boxInit  0x00011338      0x1c8 ./tray/box.o
                0x00011338                boxInit
 .text.mainInit
                0x00011500      0x818 ./tray/entry.o
                0x00011500                mainInit
 .text.ctrlInit
                0x00011d18       0x44 ./tray/entry.o
                0x00011d18                ctrlInit
 .text.recvCtrlGet
                0x00011d5c       0x10 ./tray/flow.o
                0x00011d5c                recvCtrlGet
 .text.recvCtrlSetup
                0x00011d6c       0x7c ./tray/flow.o
                0x00011d6c                recvCtrlSetup
 .text.recvCtrlFree
                0x00011de8       0x30 ./tray/flow.o
                0x00011de8                recvCtrlFree
 .text.upFlowSave
                0x00011e18       0x88 ./tray/flow.o
                0x00011e18                upFlowSave
 .text.upProtGenSave
                0x00011ea0       0x88 ./tray/flow.o
                0x00011ea0                upProtGenSave
 .text.upProtStepSave
                0x00011f28       0xa0 ./tray/flow.o
                0x00011f28                upProtStepSave
 .text.flowInit
                0x00011fc8       0x34 ./tray/flow.o
                0x00011fc8                flowInit
 .text.crc16Modbus
                0x00011ffc       0x40 ./tray/func.o
                0x00011ffc                crc16Modbus
 .text.sysMemAlloc
                0x0001203c        0x8 ./tray/func.o
                0x0001203c                sysMemAlloc
 .text.memMgrInit
                0x00012044       0xcc ./tray/func.o
                0x00012044                memMgrInit
 .text.memAlloc
                0x00012110       0x40 ./tray/func.o
                0x00012110                memAlloc
 .text.memFree  0x00012150       0x14 ./tray/func.o
                0x00012150                memFree
 .text.funcInit
                0x00012164       0x20 ./tray/func.o
                0x00012164                funcInit
 .text.mem2Copy
                0x00012184       0x1c ./tray/func.o
                0x00012184                mem2Copy
 .text.logTrc   0x000121a0       0x78 ./tray/log.o
                0x000121a0                logTrc
 .text.logDbg   0x00012218       0x44 ./tray/log.o
                0x00012218                logDbg
 .text.logInit  0x0001225c       0x20 ./tray/log.o
                0x0001225c                logInit
 .text.plcRegWrite
                0x0001227c       0x80 ./tray/plc.o
                0x0001227c                plcRegWrite
 .text.plcWarnDel
                0x000122fc        0x8 ./tray/plc.o
                0x000122fc                plcWarnDel
 .text.plcRxSmplAck
                0x00012304       0xac ./tray/plc.o
                0x00012304                plcRxSmplAck
 .text.plcRxMsg
                0x000123b0       0xc8 ./tray/plc.o
                0x000123b0                plcRxMsg
 .text.plcSmplBegin
                0x00012478       0x70 ./tray/plc.o
                0x00012478                plcSmplBegin
 .text.plcExprSmplAck
                0x000124e8       0x24 ./tray/plc.o
                0x000124e8                plcExprSmplAck
 .text.plcExprCtrlAck
                0x0001250c        0xc ./tray/plc.o
                0x0001250c                plcExprCtrlAck
 .text.plcInitAddr
                0x00012518      0x4ac ./tray/plc.o
                0x00012518                plcInitAddr
 .text.plcInit  0x000129c4      0x12c ./tray/plc.o
                0x000129c4                plcInit
 .text.exprIgnore
                0x00012af0        0x4 ./tray/timer.o
                0x00012af0                exprIgnore
 .text.devSw2Boot
                0x00012af4        0x4 ./tray/timer.o
                0x00012af4                devSw2Boot
 .text.timerStart
                0x00012af8       0x84 ./tray/timer.o
                0x00012af8                timerStart
 .text.timerInit
                0x00012b7c       0x94 ./tray/timer.o
                0x00012b7c                timerInit
 .text.tray_init
                0x00012c10        0x4 ./tray/tray.o
                0x00012c10                tray_init
 .text.upStepChkErr
                0x00012c14        0x4 ./tray/tray_upper.o
                0x00012c14                upStepChkErr
 .text.upStepChkQuiet
                0x00012c18       0x18 ./tray/tray_upper.o
                0x00012c18                upStepChkQuiet
 .text.upStepChkCCC
                0x00012c30       0x4c ./tray/tray_upper.o
                0x00012c30                upStepChkCCC
 .text.upStepChkCCD
                0x00012c7c        0x4 ./tray/tray_upper.o
                0x00012c7c                upStepChkCCD
 .text.upStepChkCCCVC
                0x00012c80       0x54 ./tray/tray_upper.o
                0x00012c80                upStepChkCCCVC
 .text.upStepChkCCCVD
                0x00012cd4        0x4 ./tray/tray_upper.o
                0x00012cd4                upStepChkCCCVD
 .text.upStepChkCVC
                0x00012cd8       0x5c ./tray/tray_upper.o
                0x00012cd8                upStepChkCVC
 .text.upStepChkCVD
                0x00012d34        0x4 ./tray/tray_upper.o
                0x00012d34                upStepChkCVD
 .text.upStepChkLoop
                0x00012d38        0x4 ./tray/tray_upper.o
                0x00012d38                upStepChkLoop
 .text.upMsgIgnore
                0x00012d3c        0x4 ./tray/tray_upper.o
                0x00012d3c                upMsgIgnore
 .text.upMsgConnAck
                0x00012d40        0x4 ./tray/tray_upper.o
                0x00012d40                upMsgConnAck
 .text.upMsgDispManu
                0x00012d44       0x28 ./tray/tray_upper.o
                0x00012d44                upMsgDispManu
 .text.upMsgDispUpdate
                0x00012d6c       0x28 ./tray/tray_upper.o
                0x00012d6c                upMsgDispUpdate
 .text.upMsgDispFixt
                0x00012d94       0x34 ./tray/tray_upper.o
                0x00012d94                upMsgDispFixt
 .text.upMsgDispCali
                0x00012dc8       0x2c ./tray/tray_upper.o
                0x00012dc8                upMsgDispCali
 .text.upMsgDispNdbd
                0x00012df4       0x2c ./tray/tray_upper.o
                0x00012df4                upMsgDispNdbd
 .text.upMsgDispDbg
                0x00012e20        0x4 ./tray/tray_upper.o
                0x00012e20                upMsgDispDbg
 .text.upMsgWarnDel
                0x00012e24        0x8 ./tray/tray_upper.o
                0x00012e24                upMsgWarnDel
 .text.upMsgFixtPrecDisp
                0x00012e2c       0x24 ./tray/tray_upper.o
                0x00012e2c                upMsgFixtPrecDisp
 .text.upMsgFixtTmprDisp
                0x00012e50       0x24 ./tray/tray_upper.o
                0x00012e50                upMsgFixtTmprDisp
 .text.upMsgFixtCleanDisp
                0x00012e74       0x18 ./tray/tray_upper.o
                0x00012e74                upMsgFixtCleanDisp
 .text.upMsgFixtGasDisp
                0x00012e8c       0x18 ./tray/tray_upper.o
                0x00012e8c                upMsgFixtGasDisp
 .text.upMsgFixtFlowDisp
                0x00012ea4       0x18 ./tray/tray_upper.o
                0x00012ea4                upMsgFixtFlowDisp
 .text.upMsgFixtSuctInDisp
                0x00012ebc       0x18 ./tray/tray_upper.o
                0x00012ebc                upMsgFixtSuctInDisp
 .text.upMsgFixtSuctOutDisp
                0x00012ed4       0x24 ./tray/tray_upper.o
                0x00012ed4                upMsgFixtSuctOutDisp
 .text.upMsgFixtLocatDisp
                0x00012ef8       0x24 ./tray/tray_upper.o
                0x00012ef8                upMsgFixtLocatDisp
 .text.caliChnIdx2Chn.part.0
                0x00012f1c       0x38 ./tray/tray_upper.o
 .text.upMsgUpdUpld
                0x00012f54        0x4 ./tray/tray_upper.o
                0x00012f54                upMsgUpdUpld
 .text.upStepChkDcir
                0x00012f58        0x4 ./tray/tray_upper.o
                0x00012f58                upStepChkDcir
 .text.upMsgFixtLocatAct
                0x00012f5c        0x4 ./tray/tray_upper.o
                0x00012f5c                upMsgFixtLocatAct
 .text.upMsgFixtSuctOutSmpl
                0x00012f60        0x4 ./tray/tray_upper.o
                0x00012f60                upMsgFixtSuctOutSmpl
 .text.upMsgFixtLocatSmpl
                0x00012f64        0x4 ./tray/tray_upper.o
                0x00012f64                upMsgFixtLocatSmpl
 .text.upMsgFixtCleanAct
                0x00012f68        0x4 ./tray/tray_upper.o
                0x00012f68                upMsgFixtCleanAct
 .text.upMsgFixtSuctInSmpl
                0x00012f6c        0x4 ./tray/tray_upper.o
                0x00012f6c                upMsgFixtSuctInSmpl
 .text.upMsgFixtSuctOutAct
                0x00012f70        0x4 ./tray/tray_upper.o
                0x00012f70                upMsgFixtSuctOutAct
 .text.upMsgKeepAlive
                0x00012f74        0x4 ./tray/tray_upper.o
                0x00012f74                upMsgKeepAlive
 .text.upFlowChk
                0x00012f78      0x190 ./tray/tray_upper.o
                0x00012f78                upFlowChk
 .text.upProtGenChk
                0x00013108       0xd8 ./tray/tray_upper.o
                0x00013108                upProtGenChk
 .text.upProtStepChk
                0x000131e0      0x11c ./tray/tray_upper.o
                0x000131e0                upProtStepChk
 .text.sendUpMsg
                0x000132fc       0x44 ./tray/tray_upper.o
                0x000132fc                sendUpMsg
 .text.upMsgFlow
                0x00013340       0x44 ./tray/tray_upper.o
                0x00013340                upMsgFlow
 .text.upMsgProtGen
                0x00013384       0x44 ./tray/tray_upper.o
                0x00013384                upMsgProtGen
 .text.upMsgProtStep
                0x000133c8       0x44 ./tray/tray_upper.o
                0x000133c8                upMsgProtStep
 .text.upMsgSmplChnl
                0x0001340c      0x108 ./tray/tray_upper.o
                0x0001340c                upMsgSmplChnl
 .text.upMsgSmplNdbd
                0x00013514       0x60 ./tray/tray_upper.o
                0x00013514                upMsgSmplNdbd
 .text.upMsgSmplRun
                0x00013574       0x70 ./tray/tray_upper.o
                0x00013574                upMsgSmplRun
 .text.upMsgFlowStart
                0x000135e4       0xdc ./tray/tray_upper.o
                0x000135e4                upMsgFlowStart
 .text.upMsgFlowPause
                0x000136c0       0xb4 ./tray/tray_upper.o
                0x000136c0                upMsgFlowPause
 .text.upMsgFlowStop
                0x00013774       0xbc ./tray/tray_upper.o
                0x00013774                upMsgFlowStop
 .text.upMsgFlowJump
                0x00013830       0xb4 ./tray/tray_upper.o
                0x00013830                upMsgFlowJump
 .text.upMsgFlowCtnu
                0x000138e4       0xf0 ./tray/tray_upper.o
                0x000138e4                upMsgFlowCtnu
 .text.upMsgUpdDld
                0x000139d4      0x130 ./tray/tray_upper.o
                0x000139d4                upMsgUpdDld
 .text.upMsgUpdCnfm
                0x00013b04       0xe4 ./tray/tray_upper.o
                0x00013b04                upMsgUpdCnfm
 .text.upMsgFixtNtfy
                0x00013be8       0xe0 ./tray/tray_upper.o
                0x00013be8                upMsgFixtNtfy
 .text.upMsgFixtPrecChnlSw
                0x00013cc8       0xe8 ./tray/tray_upper.o
                0x00013cc8                upMsgFixtPrecChnlSw
 .text.upMsgFixtPrecSmpl
                0x00013db0       0xd4 ./tray/tray_upper.o
                0x00013db0                upMsgFixtPrecSmpl
 .text.upMsgFixtPrecOut
                0x00013e84       0xd4 ./tray/tray_upper.o
                0x00013e84                upMsgFixtPrecOut
 .text.upMsgFixtTmprHeat
                0x00013f58       0xcc ./tray/tray_upper.o
                0x00013f58                upMsgFixtTmprHeat
 .text.upMsgFixtTmprSmpl
                0x00014024       0xb8 ./tray/tray_upper.o
                0x00014024                upMsgFixtTmprSmpl
 .text.upMsgFixtGasSmpl
                0x000140dc       0xb4 ./tray/tray_upper.o
                0x000140dc                upMsgFixtGasSmpl
 .text.upMsgFixtFlowSmpl
                0x00014190       0xb4 ./tray/tray_upper.o
                0x00014190                upMsgFixtFlowSmpl
 .text.upMsgCaliNtfy
                0x00014244       0xd4 ./tray/tray_upper.o
                0x00014244                upMsgCaliNtfy
 .text.upMsgCaliStart
                0x00014318       0xcc ./tray/tray_upper.o
                0x00014318                upMsgCaliStart
 .text.upMsgCaliSmpl
                0x000143e4       0xc8 ./tray/tray_upper.o
                0x000143e4                upMsgCaliSmpl
 .text.upMsgCaliKb
                0x000144ac       0xd8 ./tray/tray_upper.o
                0x000144ac                upMsgCaliKb
 .text.upMsgNdbdAct
                0x00014584       0x6c ./tray/tray_upper.o
                0x00014584                upMsgNdbdAct
 .text.rspUpCmmn
                0x000145f0       0x20 ./tray/tray_upper.o
                0x000145f0                rspUpCmmn
 .text.connUpperEnable
                0x00014610        0xc ./tray/tray_upper.o
                0x00014610                connUpperEnable
 .text.rspUpUpdSetup
                0x0001461c       0x24 ./tray/tray_upper.o
                0x0001461c                rspUpUpdSetup
 .text.upMsgUpdSetup
                0x00014640      0x104 ./tray/tray_upper.o
                0x00014640                upMsgUpdSetup
 .text.rspUpCaliNtfyAck
                0x00014744       0x24 ./tray/tray_upper.o
                0x00014744                rspUpCaliNtfyAck
 .text.upNdbdNpChk
                0x00014768       0x34 ./tray/tray_upper.o
                0x00014768                upNdbdNpChk
 .text.upMsgNdbdNp
                0x0001479c       0xf4 ./tray/tray_upper.o
                0x0001479c                upMsgNdbdNp
 .text.upInit   0x00014890      0x2d8 ./tray/tray_upper.o
                0x00014890                upInit
 .text.uartMsgIgnore
                0x00014b68        0x4 ./tray/uart.o
                0x00014b68                uartMsgIgnore
 .text.uartMsgCfgReadAck
                0x00014b6c        0x4 ./tray/uart.o
                0x00014b6c                uartMsgCfgReadAck
 .text.uartMsgFixtPrecDisp
                0x00014b70       0x24 ./tray/uart.o
                0x00014b70                uartMsgFixtPrecDisp
 .text.uartMsgFixtTmprDisp
                0x00014b94       0x28 ./tray/uart.o
                0x00014b94                uartMsgFixtTmprDisp
 .text.uartSmplTmprTx
                0x00014bbc       0xa8 ./tray/uart.o
                0x00014bbc                uartSmplTmprTx
 .text.uartMsgFixtPrecChnSwAck
                0x00014c64       0x24 ./tray/uart.o
                0x00014c64                uartMsgFixtPrecChnSwAck
 .text.uartMsgFixtPrecOutAck
                0x00014c88       0x24 ./tray/uart.o
                0x00014c88                uartMsgFixtPrecOutAck
 .text.uartMsgFixtTmprHeatAck
                0x00014cac       0x24 ./tray/uart.o
                0x00014cac                uartMsgFixtTmprHeatAck
 .text.uartMsgFixtPrecSmplAck
                0x00014cd0       0x38 ./tray/uart.o
                0x00014cd0                uartMsgFixtPrecSmplAck
 .text.uartMsgFixtTmprSmplAck
                0x00014d08       0x54 ./tray/uart.o
                0x00014d08                uartMsgFixtTmprSmplAck
 .text.uartMsgFixtGasSmplAck
                0x00014d5c       0x54 ./tray/uart.o
                0x00014d5c                uartMsgFixtGasSmplAck
 .text.uartMsgFixtFlowSmplAck
                0x00014db0       0x54 ./tray/uart.o
                0x00014db0                uartMsgFixtFlowSmplAck
 .text.uartMsgSmplAck
                0x00014e04       0x90 ./tray/uart.o
                0x00014e04                uartMsgSmplAck
 .text.uartMsgFixtGasDisp
                0x00014e94       0x24 ./tray/uart.o
                0x00014e94                uartMsgFixtGasDisp
 .text.uartMsgFixtFlowDisp
                0x00014eb8       0x24 ./tray/uart.o
                0x00014eb8                uartMsgFixtFlowDisp
 .text.uartMsgConnAck
                0x00014edc       0x90 ./tray/uart.o
                0x00014edc                uartMsgConnAck
 .text.uartMsgUpdUpldAck
                0x00014f6c        0x4 ./tray/uart.o
                0x00014f6c                uartMsgUpdUpldAck
 .text.uartMsgUpdCnfmAck
                0x00014f70        0x4 ./tray/uart.o
                0x00014f70                uartMsgUpdCnfmAck
 .text.uartMsgCfgSetAck
                0x00014f74        0x4 ./tray/uart.o
                0x00014f74                uartMsgCfgSetAck
 .text.uartMsgUpdSetupAck
                0x00014f78        0x4 ./tray/uart.o
                0x00014f78                uartMsgUpdSetupAck
 .text.uartMsgUpdDldAck
                0x00014f7c        0x4 ./tray/uart.o
                0x00014f7c                uartMsgUpdDldAck
 .text.allocUartBlockBuf
                0x00014f80       0x20 ./tray/uart.o
                0x00014f80                allocUartBlockBuf
 .text.uartTransTxTry
                0x00014fa0       0x6c ./tray/uart.o
                0x00014fa0                uartTransTxTry
 .text.uartSmplBegin
                0x0001500c       0x74 ./tray/uart.o
                0x0001500c                uartSmplBegin
 .text.uartIdleNtfy
                0x00015080       0x74 ./tray/uart.o
                0x00015080                uartIdleNtfy
 .text.uartRxMsg
                0x000150f4       0xa0 ./tray/uart.o
                0x000150f4                uartRxMsg
 .text.uartExprBlkAck
                0x00015194       0x7c ./tray/uart.o
                0x00015194                uartExprBlkAck
 .text.uartExprCtrlAck
                0x00015210       0x14 ./tray/uart.o
                0x00015210                uartExprCtrlAck
 .text.uartExprSmplAck
                0x00015224       0x58 ./tray/uart.o
                0x00015224                uartExprSmplAck
 .text.uartInit
                0x0001527c      0x1b4 ./tray/uart.o
                0x0001527c                uartInit
 .text.hal_entry
                0x00015430       0x14 ./src/hal_entry.o
                0x00015430                hal_entry
 .text.R_BSP_WarmStart
                0x00015444       0x18 ./src/hal_entry.o
                0x00015444                R_BSP_WarmStart
 .text.startup.main
                0x0001545c        0xc ./ra_gen/main.o
                0x0001545c                main
 .text.r_spi_call_callback
                0x00015468       0x40 ./ra/fsp/src/r_spi/r_spi.o
 .text.R_SPI_Open
                0x000154a8      0x254 ./ra/fsp/src/r_spi/r_spi.o
                0x000154a8                R_SPI_Open
 .text.r_spi_bit_width_config
                0x000156fc       0x58 ./ra/fsp/src/r_spi/r_spi.o
                0x000156fc                r_spi_bit_width_config
 .text.spi_rxi_isr
                0x00015754       0x94 ./ra/fsp/src/r_spi/r_spi.o
                0x00015754                spi_rxi_isr
 .text.spi_txi_isr
                0x000157e8       0xcc ./ra/fsp/src/r_spi/r_spi.o
                0x000157e8                spi_txi_isr
 .text.spi_tei_isr
                0x000158b4       0x74 ./ra/fsp/src/r_spi/r_spi.o
                0x000158b4                spi_tei_isr
 .text.spi_eri_isr
                0x00015928       0x74 ./ra/fsp/src/r_spi/r_spi.o
                0x00015928                spi_eri_isr
 .text.R_SCI_UART_Write
                0x0001599c       0x44 ./ra/fsp/src/r_sci_uart/r_sci_uart.o
                0x0001599c                R_SCI_UART_Write
 .text.r_sci_uart_call_callback
                0x000159e0       0x44 ./ra/fsp/src/r_sci_uart/r_sci_uart.o
 .text.R_SCI_UART_Open
                0x00015a24      0x328 ./ra/fsp/src/r_sci_uart/r_sci_uart.o
                0x00015a24                R_SCI_UART_Open
 .text.sci_uart_txi_isr
                0x00015d4c       0x84 ./ra/fsp/src/r_sci_uart/r_sci_uart.o
                0x00015d4c                sci_uart_txi_isr
 .text.sci_uart_rxi_isr
                0x00015dd0       0x8c ./ra/fsp/src/r_sci_uart/r_sci_uart.o
                0x00015dd0                sci_uart_rxi_isr
 .text.sci_uart_tei_isr
                0x00015e5c       0x3c ./ra/fsp/src/r_sci_uart/r_sci_uart.o
                0x00015e5c                sci_uart_tei_isr
 .text.sci_uart_eri_isr
                0x00015e98       0x64 ./ra/fsp/src/r_sci_uart/r_sci_uart.o
                0x00015e98                sci_uart_eri_isr
 .text.R_IOPORT_PinWrite
                0x00015efc       0x20 ./ra/fsp/src/r_ioport/r_ioport.o
                0x00015efc                R_IOPORT_PinWrite
 .text.bsp_vbatt_init.isra.0
                0x00015f1c       0xac ./ra/fsp/src/r_ioport/r_ioport.o
 .text.r_ioport_pins_config
                0x00015fc8       0xd4 ./ra/fsp/src/r_ioport/r_ioport.o
 .text.R_IOPORT_Open
                0x0001609c       0x18 ./ra/fsp/src/r_ioport/r_ioport.o
                0x0001609c                R_IOPORT_Open
 .text.R_GPT_Stop
                0x000160b4        0xc ./ra/fsp/src/r_gpt/r_gpt.o
                0x000160b4                R_GPT_Stop
 .text.R_GPT_Start
                0x000160c0        0xc ./ra/fsp/src/r_gpt/r_gpt.o
                0x000160c0                R_GPT_Start
 .text.R_GPT_Reset
                0x000160cc        0xc ./ra/fsp/src/r_gpt/r_gpt.o
                0x000160cc                R_GPT_Reset
 .text.r_gpt_enable_irq
                0x000160d8       0x58 ./ra/fsp/src/r_gpt/r_gpt.o
 .text.R_GPT_Open
                0x00016130      0x100 ./ra/fsp/src/r_gpt/r_gpt.o
                0x00016130                R_GPT_Open
 .text.r_gpt_call_callback
                0x00016230       0x3c ./ra/fsp/src/r_gpt/r_gpt.o
 .text.gpt_counter_overflow_isr
                0x0001626c       0x78 ./ra/fsp/src/r_gpt/r_gpt.o
                0x0001626c                gpt_counter_overflow_isr
 .text.flash_hp_init
                0x000162e4      0x114 ./ra/fsp/src/r_flash_hp/r_flash_hp.o
 .text.R_FLASH_HP_Open
                0x000163f8       0xe0 ./ra/fsp/src/r_flash_hp/r_flash_hp.o
                0x000163f8                R_FLASH_HP_Open
 .text.flash_hp_enter_pe_df_mode.isra.0
                0x000164d8       0xb4 ./ra/fsp/src/r_flash_hp/r_flash_hp.o
 .text.R_FLASH_HP_Write
                0x0001658c       0x80 ./ra/fsp/src/r_flash_hp/r_flash_hp.o
                0x0001658c                R_FLASH_HP_Write
 .text.R_FLASH_HP_Erase
                0x0001660c       0xe4 ./ra/fsp/src/r_flash_hp/r_flash_hp.o
                0x0001660c                R_FLASH_HP_Erase
 .text.R_FLASH_HP_StartUpAreaSelect
                0x000166f0        0x4 ./ra/fsp/src/r_flash_hp/r_flash_hp.o
                0x000166f0                R_FLASH_HP_StartUpAreaSelect
 .text.R_DTC_Reset
                0x000166f4       0x9c ./ra/fsp/src/r_dtc/r_dtc.o
                0x000166f4                R_DTC_Reset
 .text.R_DTC_SoftwareStart
                0x00016790        0x4 ./ra/fsp/src/r_dtc/r_dtc.o
                0x00016790                R_DTC_SoftwareStart
 .text.R_DTC_SoftwareStop
                0x00016794        0x4 ./ra/fsp/src/r_dtc/r_dtc.o
                0x00016794                R_DTC_SoftwareStop
 .text.R_DTC_Enable
                0x00016798       0x1c ./ra/fsp/src/r_dtc/r_dtc.o
                0x00016798                R_DTC_Enable
 .text.R_DTC_Disable
                0x000167b4       0x1c ./ra/fsp/src/r_dtc/r_dtc.o
                0x000167b4                R_DTC_Disable
 .text.R_DTC_InfoGet
                0x000167d0       0x60 ./ra/fsp/src/r_dtc/r_dtc.o
                0x000167d0                R_DTC_InfoGet
 .text.R_DTC_Close
                0x00016830       0x30 ./ra/fsp/src/r_dtc/r_dtc.o
                0x00016830                R_DTC_Close
 .text.r_dtc_set_info.isra.0
                0x00016860       0x44 ./ra/fsp/src/r_dtc/r_dtc.o
 .text.R_DTC_Reconfigure
                0x000168a4       0x54 ./ra/fsp/src/r_dtc/r_dtc.o
                0x000168a4                R_DTC_Reconfigure
 .text.R_DTC_Open
                0x000168f8       0x88 ./ra/fsp/src/r_dtc/r_dtc.o
                0x000168f8                R_DTC_Open
 .text.r_can_call_callback.isra.0
                0x00016980       0x64 ./ra/fsp/src/r_can/r_can.o
 .text.r_can_mode_transition
                0x000169e4       0xbc ./ra/fsp/src/r_can/r_can.o
 .text.R_CAN_Open
                0x00016aa0      0x2d4 ./ra/fsp/src/r_can/r_can.o
                0x00016aa0                R_CAN_Open
 .text.can_error_isr
                0x00016d74       0xd8 ./ra/fsp/src/r_can/r_can.o
                0x00016d74                can_error_isr
 .text.can_mailbox_rx_isr
                0x00016e4c      0x118 ./ra/fsp/src/r_can/r_can.o
                0x00016e4c                can_mailbox_rx_isr
 .text.can_mailbox_tx_isr
                0x00016f64       0xa8 ./ra/fsp/src/r_can/r_can.o
                0x00016f64                can_mailbox_tx_isr
 .text.SystemCoreClockUpdate
                0x0001700c       0x28 ./ra/fsp/src/bsp/mcu/all/bsp_clocks.o
                0x0001700c                SystemCoreClockUpdate
 .text.bsp_clock_init
                0x00017034      0x100 ./ra/fsp/src/bsp/mcu/all/bsp_clocks.o
                0x00017034                bsp_clock_init
 .text.bsp_init_internal
                0x00017134        0x4 ./ra/fsp/src/bsp/mcu/all/bsp_common.o
                0x00017134                bsp_init_internal
                0x00017134                bsp_init
 .text.NMI_Handler
                0x00017138       0x38 ./ra/fsp/src/bsp/mcu/all/bsp_group_irq.o
                0x00017138                NMI_Handler
 .text.bsp_irq_cfg
                0x00017170       0xa8 ./ra/fsp/src/bsp/mcu/all/bsp_irq.o
                0x00017170                bsp_irq_cfg
 .text.R_BSP_RegisterProtectEnable
                0x00017218       0x60 ./ra/fsp/src/bsp/mcu/all/bsp_register_protection.o
                0x00017218                R_BSP_RegisterProtectEnable
 .text.R_BSP_RegisterProtectDisable
                0x00017278       0x50 ./ra/fsp/src/bsp/mcu/all/bsp_register_protection.o
                0x00017278                R_BSP_RegisterProtectDisable
 .text._sbrk    0x000172c8       0x44 ./ra/fsp/src/bsp/mcu/all/bsp_sbrk.o
                0x000172c8                _sbrk
 .text.Default_Handler
                0x0001730c        0x4 ./ra/fsp/src/bsp/cmsis/Device/RENESAS/Source/startup.o
                0x0001730c                DebugMon_Handler
                0x0001730c                HardFault_Handler
                0x0001730c                SysTick_Handler
                0x0001730c                PendSV_Handler
                0x0001730c                UsageFault_Handler
                0x0001730c                SecureFault_Handler
                0x0001730c                Default_Handler
                0x0001730c                MemManage_Handler
                0x0001730c                SVC_Handler
                0x0001730c                BusFault_Handler
 .text.Reset_Handler
                0x00017310        0xc ./ra/fsp/src/bsp/cmsis/Device/RENESAS/Source/startup.o
                0x00017310                Reset_Handler
 .text.SystemInit
                0x0001731c       0xc0 ./ra/fsp/src/bsp/cmsis/Device/RENESAS/Source/system.o
                0x0001731c                SystemInit
 .text.crc16    0x000173dc       0x40 ./public/u_function.o
                0x000173dc                crc16
 .text.led_run  0x0001741c      0x144 ./public/u_led.o
                0x0001741c                led_run
 .text.led_init
                0x00017560       0x4c ./public/u_led.o
                0x00017560                led_init
 .text.setting_page_update
                0x000175ac       0x28 ./public/u_setting.o
                0x000175ac                setting_page_update
 .text.setting_init
                0x000175d4      0x108 ./public/u_setting.o
                0x000175d4                setting_init
 .text.setting_write
                0x000176dc       0x7c ./public/u_setting_tool_ntp.o
                0x000176dc                setting_write
 .text.setting_read
                0x00017758       0xc8 ./public/u_setting_tool_ntp.o
                0x00017758                setting_read
 .text.setting_tool_ntp_init
                0x00017820       0x20 ./public/u_setting_tool_ntp.o
                0x00017820                setting_tool_ntp_init
 .text.log_task
                0x00017840       0x64 ./mlos/services/mlos_log.o
                0x00017840                log_task
 .text.log_shell_cmd_handle
                0x000178a4      0x158 ./mlos/services/mlos_log.o
                0x000178a4                log_shell_cmd_handle
 .text.log_print
                0x000179fc       0x4c ./mlos/services/mlos_log.o
                0x000179fc                log_print
 .text.log_set_output
                0x00017a48       0x10 ./mlos/services/mlos_log.o
                0x00017a48                log_set_output
 .text.log_init
                0x00017a58       0x54 ./mlos/services/mlos_log.o
                0x00017a58                log_init
 .text.shell_cmd_reboot
                0x00017aac       0x44 ./mlos/services/mlos_shell.o
                0x00017aac                shell_cmd_reboot
 .text.shell_cmd_seek
                0x00017af0       0x28 ./mlos/services/mlos_shell.o
                0x00017af0                shell_cmd_seek
 .text.shell_cmd_help
                0x00017b18       0xf4 ./mlos/services/mlos_shell.o
                0x00017b18                shell_cmd_help
 .text.shell_reply
                0x00017c0c       0x3c ./mlos/services/mlos_shell.o
                0x00017c0c                shell_reply
 .text.shell_print
                0x00017c48       0x34 ./mlos/services/mlos_shell.o
                0x00017c48                shell_print
 .text.shell_cmd_mem
                0x00017c7c       0x38 ./mlos/services/mlos_shell.o
                0x00017c7c                shell_cmd_mem
 .text.shell_cmd_register
                0x00017cb4       0x44 ./mlos/services/mlos_shell.o
                0x00017cb4                shell_cmd_register
 .text.shell_rcv_cmd
                0x00017cf8       0x48 ./mlos/services/mlos_shell.o
                0x00017cf8                shell_rcv_cmd
 .text.shell_set_output
                0x00017d40        0xc ./mlos/services/mlos_shell.o
                0x00017d40                shell_set_output
 .text.shell_cmd_buf_read
                0x00017d4c       0xf4 ./mlos/services/mlos_shell.o
                0x00017d4c                shell_cmd_buf_read
 .text.shell_task
                0x00017e40      0x124 ./mlos/services/mlos_shell.o
                0x00017e40                shell_task
 .text.shell_init
                0x00017f64       0x84 ./mlos/services/mlos_shell.o
                0x00017f64                shell_init
 .text.port_clock_init
                0x00017fe8       0x30 ./mlos/port/RA6M4/mlos_port.o
                0x00017fe8                port_clock_init
 .text.mlos_clock_timer_isr
                0x00018018       0x3c ./mlos/port/RA6M4/mlos_port.o
                0x00018018                mlos_clock_timer_isr
 .text.task_clock_start
                0x00018054       0x20 ./mlos/port/RA6M4/mlos_port.o
                0x00018054                task_clock_start
 .text.task_clock_stop
                0x00018074       0x20 ./mlos/port/RA6M4/mlos_port.o
                0x00018074                task_clock_stop
 .text.port_mem_init
                0x00018094       0x58 ./mlos/port/RA6M4/mlos_port.o
                0x00018094                port_mem_init
 .text.mlos_init
                0x000180ec       0x38 ./mlos/os/mlos.o
                0x000180ec                mlos_init
 .text.mlos_us_delay
                0x00018124        0x4 ./mlos/os/mlos_clock.o
                0x00018124                mlos_us_delay
 .text.mlos_clock_init
                0x00018128        0x4 ./mlos/os/mlos_clock.o
                0x00018128                mlos_clock_init
 .text.list_dl_remove
                0x0001812c       0x64 ./mlos/os/mlos_list.o
                0x0001812c                list_dl_remove
 .text.list_append
                0x00018190       0xa8 ./mlos/os/mlos_list.o
                0x00018190                list_append
 .text.list_init
                0x00018238       0x10 ./mlos/os/mlos_list.o
                0x00018238                list_init
 .text.list_create
                0x00018248       0x1c ./mlos/os/mlos_list.o
                0x00018248                list_create
 .text.ltimer_create
                0x00018264       0x20 ./mlos/os/mlos_ltimer.o
                0x00018264                ltimer_create
 .text.mlos_mem_list
                0x00018284        0x8 ./mlos/os/mlos_malloc.o
                0x00018284                mlos_mem_list
 .text.mlos_malloc
                0x0001828c       0x60 ./mlos/os/mlos_malloc.o
                0x0001828c                mlos_malloc
 .text.mlos_mem_mount
                0x000182ec       0x28 ./mlos/os/mlos_malloc.o
                0x000182ec                mlos_mem_mount
 .text.mlos_mem_init
                0x00018314       0x18 ./mlos/os/mlos_malloc.o
                0x00018314                mlos_mem_init
 .text.mpump_create
                0x0001832c       0x68 ./mlos/os/mlos_mpump.o
                0x0001832c                mpump_create
 .text.list_message_register
                0x00018394       0x54 ./mlos/os/mlos_mpump.o
                0x00018394                list_message_register
 .text.consumer_register
                0x000183e8       0x3c ./mlos/os/mlos_mpump.o
                0x000183e8                consumer_register
 .text.mpump_consumer_register
                0x00018424       0x38 ./mlos/os/mlos_mpump.o
                0x00018424                mpump_consumer_register
 .text.mpump_consumers_find
                0x0001845c       0x30 ./mlos/os/mlos_mpump.o
                0x0001845c                mpump_consumers_find
 .text.mpump_dispatch
                0x0001848c       0x2c ./mlos/os/mlos_mpump.o
                0x0001848c                mpump_dispatch
 .text.que_take
                0x000184b8       0x14 ./mlos/os/mlos_que.o
                0x000184b8                que_take
 .text.que_de   0x000184cc       0x14 ./mlos/os/mlos_que.o
                0x000184cc                que_de
 .text.que_en   0x000184e0       0x28 ./mlos/os/mlos_que.o
                0x000184e0                que_en
 .text.que_create
                0x00018508       0x7c ./mlos/os/mlos_que.o
                0x00018508                que_create
 .text.rtimer_clock_overflow
                0x00018584       0x44 ./mlos/os/mlos_rtimer.o
                0x00018584                rtimer_clock_overflow
 .text.rtimer_start
                0x000185c8       0x44 ./mlos/os/mlos_rtimer.o
                0x000185c8                rtimer_start
 .text.rtimer_task
                0x0001860c       0xec ./mlos/os/mlos_rtimer.o
                0x0001860c                rtimer_task
 .text.rtimer_task_create
                0x000186f8       0x50 ./mlos/os/mlos_rtimer.o
                0x000186f8                rtimer_task_create
 .text.task_create
                0x00018748       0x7c ./mlos/os/mlos_task.o
                0x00018748                task_create
 .text.subtask_create
                0x000187c4       0x20 ./mlos/os/mlos_task.o
                0x000187c4                subtask_create
 .text.mlos_alltask_names
                0x000187e4       0x44 ./mlos/os/mlos_task.o
                0x000187e4                mlos_alltask_names
 .text.mlos_task_debug_info
                0x00018828       0x60 ./mlos/os/mlos_task.o
                0x00018828                mlos_task_debug_info
 .text.task_debug_reset
                0x00018888       0x28 ./mlos/os/mlos_task.o
                0x00018888                task_debug_reset
 .text.mlos_task_schedule
                0x000188b0       0x84 ./mlos/os/mlos_task.o
                0x000188b0                mlos_task_schedule
 .text.mlos_task_init
                0x00018934       0x54 ./mlos/os/mlos_task.o
                0x00018934                mlos_task_init
 .text.uart0_tx
                0x00018988       0x40 ./mllib/utp/ra6m4/utp_uart_driver.o
                0x00018988                uart0_tx
 .text.uart1_tx
                0x000189c8       0x40 ./mllib/utp/ra6m4/utp_uart_driver.o
                0x000189c8                uart1_tx
 .text.uart_callback
                0x00018a08       0xc0 ./mllib/utp/ra6m4/utp_uart_driver.o
                0x00018a08                uart_callback
 .text.uart_init
                0x00018ac8       0x44 ./mllib/utp/ra6m4/utp_uart_driver.o
                0x00018ac8                uart_init
 .text.Pb_task  0x00018b0c       0x78 ./mllib/utp/pb.o
                0x00018b0c                Pb_task
 .text.Pb_txbuf_malloc
                0x00018b84       0x30 ./mllib/utp/pb.o
                0x00018b84                Pb_txbuf_malloc
 .text.Pb_init  0x00018bb4       0x68 ./mllib/utp/pb.o
                0x00018bb4                Pb_init
 .text.crc16_check
                0x00018c1c       0x38 ./mllib/utp/public.o
                0x00018c1c                crc16_check
 .text.delay_rough_ms
                0x00018c54        0x4 ./mllib/utp/public.o
                0x00018c54                delay_rough_ms
 .text.GetOSRunTime
                0x00018c58        0xc ./mllib/utp/public.o
                0x00018c58                GetOSRunTime
 .text.GetOSRunTimeDiff
                0x00018c64       0x14 ./mllib/utp/public.o
                0x00018c64                GetOSRunTimeDiff
 .text.utp_tx.part.0
                0x00018c78       0x38 ./mllib/utp/utp.o
 .text.Utp_TxMessage
                0x00018cb0       0x20 ./mllib/utp/utp.o
                0x00018cb0                Utp_TxMessage
 .text.utp_init
                0x00018cd0       0xbc ./mllib/utp/utp.o
                0x00018cd0                utp_init
 .text.utp_RxComplete
                0x00018d8c       0x38 ./mllib/utp/utp.o
                0x00018d8c                utp_RxComplete
 .text.Utp_RxMessage
                0x00018dc4       0x34 ./mllib/utp/utp.o
                0x00018dc4                Utp_RxMessage
 .text.Utp_SubMasterStationtask
                0x00018df8       0x74 ./mllib/utp/utp.o
                0x00018df8                Utp_SubMasterStationtask
 .text.utp_task
                0x00018e6c       0x80 ./mllib/utp/utp.o
                0x00018e6c                utp_task
 .text.upper_consumer_register
                0x00018eec       0x10 ./mllib/upper/upper_ntp.o
                0x00018eec                upper_consumer_register
 .text.upper_data_send
                0x00018efc       0x3c ./mllib/upper/upper_ntp.o
                0x00018efc                upper_data_send
 .text.upper_datagram_process
                0x00018f38       0xb4 ./mllib/upper/upper_ntp.o
                0x00018f38                upper_datagram_process
 .text.upper_ntp_task
                0x00018fec       0x68 ./mllib/upper/upper_ntp.o
                0x00018fec                upper_ntp_task
 .text.upper_ntp_init
                0x00019054       0x88 ./mllib/upper/upper_ntp.o
                0x00019054                upper_ntp_init
 .text.tool_txbuf_malloc
                0x000190dc       0x38 ./mllib/tool/tool.o
                0x000190dc                tool_txbuf_malloc
 .text.tool_txbuf_free
                0x00019114       0x18 ./mllib/tool/tool.o
                0x00019114                tool_txbuf_free
 .text.tool_consumer_register
                0x0001912c       0x10 ./mllib/tool/tool.o
                0x0001912c                tool_consumer_register
 .text.tool_tx_data
                0x0001913c       0xd0 ./mllib/tool/tool.o
                0x0001913c                tool_tx_data
 .text.tool_packet_extract
                0x0001920c       0x9c ./mllib/tool/tool.o
                0x0001920c                tool_packet_extract
 .text.tool_task
                0x000192a8       0x78 ./mllib/tool/tool.o
                0x000192a8                tool_task
 .text.tool_init
                0x00019320       0x60 ./mllib/tool/tool.o
                0x00019320                tool_init
 .text.w5500_hdw_reset_enable
                0x00019380       0x10 ./mllib/ntp/w5500/ra6m4/ntp_w5500_spi_driver.o
                0x00019380                w5500_hdw_reset_enable
 .text.w5500_hdw_reset_disable
                0x00019390       0x10 ./mllib/ntp/w5500/ra6m4/ntp_w5500_spi_driver.o
                0x00019390                w5500_hdw_reset_disable
 .text.w5500_spi_callback
                0x000193a0       0x14 ./mllib/ntp/w5500/ra6m4/ntp_w5500_spi_driver.o
                0x000193a0                w5500_spi_callback
 .text.w5500_r_byte
                0x000193b4       0x8c ./mllib/ntp/w5500/ra6m4/ntp_w5500_spi_driver.o
                0x000193b4                w5500_r_byte
 .text.w5500_w_byte
                0x00019440       0x90 ./mllib/ntp/w5500/ra6m4/ntp_w5500_spi_driver.o
                0x00019440                w5500_w_byte
 .text.w5500_rw_buf
                0x000194d0       0xd8 ./mllib/ntp/w5500/ra6m4/ntp_w5500_spi_driver.o
                0x000194d0                w5500_rw_buf
 .text.w5500_spi_init
                0x000195a8       0x9c ./mllib/ntp/w5500/ra6m4/ntp_w5500_spi_driver.o
                0x000195a8                w5500_spi_init
 .text.w5500_ussn_generate
                0x00019644       0x10 ./mllib/ntp/w5500/ntp_w5500.o
                0x00019644                w5500_ussn_generate
 .text.w5500_network_card
                0x00019654        0x8 ./mllib/ntp/w5500/ntp_w5500.o
                0x00019654                w5500_network_card
 .text.w5500_interrupt_handler
                0x0001965c       0x5c ./mllib/ntp/w5500/ntp_w5500.o
                0x0001965c                w5500_interrupt_handler
 .text.w5500_rx_rsr
                0x000196b8       0x54 ./mllib/ntp/w5500/ntp_w5500.o
                0x000196b8                w5500_rx_rsr
 .text.w5500_tx_fsr
                0x0001970c       0x54 ./mllib/ntp/w5500/ntp_w5500.o
                0x0001970c                w5500_tx_fsr
 .text.w5500_socket_rx
                0x00019760       0xec ./mllib/ntp/w5500/ntp_w5500.o
                0x00019760                w5500_socket_rx
 .text.w5500_socket_tx
                0x0001984c      0x134 ./mllib/ntp/w5500/ntp_w5500.o
                0x0001984c                w5500_socket_tx
 .text.w5500_usocket_open
                0x00019980      0x198 ./mllib/ntp/w5500/ntp_w5500.o
                0x00019980                w5500_usocket_open
 .text.w5500_usocket_connect
                0x00019b18       0xe0 ./mllib/ntp/w5500/ntp_w5500.o
                0x00019b18                w5500_usocket_connect
 .text.w5500_usocket_close
                0x00019bf8      0x100 ./mllib/ntp/w5500/ntp_w5500.o
                0x00019bf8                w5500_usocket_close
 .text.w5500_usocket_work
                0x00019cf8       0x90 ./mllib/ntp/w5500/ntp_w5500.o
                0x00019cf8                w5500_usocket_work
 .text.w5500_reset
                0x00019d88       0xc4 ./mllib/ntp/w5500/ntp_w5500.o
                0x00019d88                w5500_reset
 .text.w5500_setting
                0x00019e4c      0x11c ./mllib/ntp/w5500/ntp_w5500.o
                0x00019e4c                w5500_setting
 .text.w5500_working
                0x00019f68       0x64 ./mllib/ntp/w5500/ntp_w5500.o
                0x00019f68                w5500_working
 .text.w5500_unlinked
                0x00019fcc       0x64 ./mllib/ntp/w5500/ntp_w5500.o
                0x00019fcc                w5500_unlinked
 .text.w5500_fsm_run
                0x0001a030       0x20 ./mllib/ntp/w5500/ntp_w5500.o
                0x0001a030                w5500_fsm_run
 .text.w5500_usocket_drive
                0x0001a050       0x50 ./mllib/ntp/w5500/ntp_w5500.o
                0x0001a050                w5500_usocket_drive
 .text.w5500_init
                0x0001a0a0       0x74 ./mllib/ntp/w5500/ntp_w5500.o
                0x0001a0a0                w5500_init
 .text.ntp_init
                0x0001a114       0x50 ./mllib/ntp/ntp.o
                0x0001a114                ntp_init
 .text.usocket_create
                0x0001a164       0x78 ./mllib/ntp/ntp_usocket.o
                0x0001a164                usocket_create
 .text.mcu_flash_erase
                0x0001a1dc       0x30 ./mllib/mlflash/mcuflash/RA6M4/mcu_flash.o
                0x0001a1dc                mcu_flash_erase
 .text.mcu_flash_write
                0x0001a20c       0x5c ./mllib/mlflash/mcuflash/RA6M4/mcu_flash.o
                0x0001a20c                mcu_flash_write
 .text.mcu_flash_callback
                0x0001a268       0x34 ./mllib/mlflash/mcuflash/RA6M4/mcu_flash.o
                0x0001a268                mcu_flash_callback
 .text.mcu_flash_init
                0x0001a29c       0x2c ./mllib/mlflash/mcuflash/RA6M4/mcu_flash.o
                0x0001a29c                mcu_flash_init
 .text.iap_power_rerun_reply
                0x0001a2c8       0x44 ./mllib/iap/mc_ra6m4_iap_protocol/iap_tool_ntp.o
                0x0001a2c8                iap_power_rerun_reply
 .text.iap_power_start_reply
                0x0001a30c       0x48 ./mllib/iap/mc_ra6m4_iap_protocol/iap_tool_ntp.o
                0x0001a30c                iap_power_start_reply
 .text.iap_power_data_reply
                0x0001a354       0x48 ./mllib/iap/mc_ra6m4_iap_protocol/iap_tool_ntp.o
                0x0001a354                iap_power_data_reply
 .text.iap_power_backup_reply
                0x0001a39c       0x2c ./mllib/iap/mc_ra6m4_iap_protocol/iap_tool_ntp.o
                0x0001a39c                iap_power_backup_reply
 .text.iap_power_conn_reply
                0x0001a3c8       0x48 ./mllib/iap/mc_ra6m4_iap_protocol/iap_tool_ntp.o
                0x0001a3c8                iap_power_conn_reply
 .text.iap_mc_rerun_reply.part.0
                0x0001a410       0x20 ./mllib/iap/mc_ra6m4_iap_protocol/iap_tool_ntp.o
 .text.iap_mc_conn_reply
                0x0001a430       0x20 ./mllib/iap/mc_ra6m4_iap_protocol/iap_tool_ntp.o
                0x0001a430                iap_mc_conn_reply
 .text.iap_connect_power
                0x0001a450       0x28 ./mllib/iap/mc_ra6m4_iap_protocol/iap_tool_ntp.o
                0x0001a450                iap_connect_power
 .text.iap_tool_connect
                0x0001a478       0x38 ./mllib/iap/mc_ra6m4_iap_protocol/iap_tool_ntp.o
                0x0001a478                iap_tool_connect
 .text.iap_power_rerun
                0x0001a4b0       0x34 ./mllib/iap/mc_ra6m4_iap_protocol/iap_tool_ntp.o
                0x0001a4b0                iap_power_rerun
 .text.iap_tool_rerun
                0x0001a4e4       0x4c ./mllib/iap/mc_ra6m4_iap_protocol/iap_tool_ntp.o
                0x0001a4e4                iap_tool_rerun
 .text.iap_power_start
                0x0001a530       0x54 ./mllib/iap/mc_ra6m4_iap_protocol/iap_tool_ntp.o
                0x0001a530                iap_power_start
 .text.iap_tool_start
                0x0001a584       0x48 ./mllib/iap/mc_ra6m4_iap_protocol/iap_tool_ntp.o
                0x0001a584                iap_tool_start
 .text.iap_power_data
                0x0001a5cc       0x2c ./mllib/iap/mc_ra6m4_iap_protocol/iap_tool_ntp.o
                0x0001a5cc                iap_power_data
 .text.iap_tool_data
                0x0001a5f8       0x28 ./mllib/iap/mc_ra6m4_iap_protocol/iap_tool_ntp.o
                0x0001a5f8                iap_tool_data
 .text.iap_power_backup
                0x0001a620       0x20 ./mllib/iap/mc_ra6m4_iap_protocol/iap_tool_ntp.o
                0x0001a620                iap_power_backup
 .text.iap_tool_backup
                0x0001a640       0x24 ./mllib/iap/mc_ra6m4_iap_protocol/iap_tool_ntp.o
                0x0001a640                iap_tool_backup
 .text.iap_tool_ntp_init
                0x0001a664       0x88 ./mllib/iap/mc_ra6m4_iap_protocol/iap_tool_ntp.o
                0x0001a664                iap_tool_ntp_init
 .text.iap_upper_ntp_init
                0x0001a6ec        0x4 ./mllib/iap/mc_ra6m4_iap_protocol/iap_upper_ntp.o
                0x0001a6ec                iap_upper_ntp_init
 .text.iap_disable_irq
                0x0001a6f0      0x174 ./mllib/iap/RA6M4/iap_mcu_port.o
                0x0001a6f0                iap_disable_irq
 .text.iap_set_msp
                0x0001a864       0x30 ./mllib/iap/RA6M4/iap_mcu_port.o
                0x0001a864                iap_set_msp
 .text.iap_run_boot
                0x0001a894       0x18 ./mllib/iap/iap.o
                0x0001a894                iap_run_boot
 .text.iap_init
                0x0001a8ac       0x10 ./mllib/iap/iap.o
                0x0001a8ac                iap_init
 .text.can_tx   0x0001a8bc       0x78 ./mllib/ctp/ra6m4/ctp_can_driver.o
                0x0001a8bc                can_tx
 .text.can_callback
                0x0001a934       0x6c ./mllib/ctp/ra6m4/ctp_can_driver.o
                0x0001a934                can_callback
 .text.can_init
                0x0001a9a0       0x3c ./mllib/ctp/ra6m4/ctp_can_driver.o
                0x0001a9a0                can_init
 .text.ctp_txbuf_malloc
                0x0001a9dc        0x8 ./mllib/ctp/ctp.o
                0x0001a9dc                ctp_txbuf_malloc
 .text.ctp_txframe_malloc
                0x0001a9e4       0x10 ./mllib/ctp/ctp.o
                0x0001a9e4                ctp_txframe_malloc
 .text.ctp_slaver_connection_monitor
                0x0001a9f4       0x64 ./mllib/ctp/ctp.o
                0x0001a9f4                ctp_slaver_connection_monitor
 .text.ctp_consumer_register
                0x0001aa58       0x10 ./mllib/ctp/ctp.o
                0x0001aa58                ctp_consumer_register
 .text.ctp_send
                0x0001aa68       0xa4 ./mllib/ctp/ctp.o
                0x0001aa68                ctp_send
 .text.ctp_mfmsg_repack
                0x0001ab0c       0xd0 ./mllib/ctp/ctp.o
                0x0001ab0c                ctp_mfmsg_repack
 .text.ctp_rx   0x0001abdc       0x90 ./mllib/ctp/ctp.o
                0x0001abdc                ctp_rx
 .text.ctp_tx   0x0001ac6c       0x30 ./mllib/ctp/ctp.o
                0x0001ac6c                ctp_tx
 .text.ctp_task
                0x0001ac9c       0x80 ./mllib/ctp/ctp.o
                0x0001ac9c                ctp_task
 .text.ctp_cancard1_init
                0x0001ad1c       0xb8 ./mllib/ctp/ctp.o
                0x0001ad1c                ctp_cancard1_init
 .text.ctp_cancard2_init
                0x0001add4       0xb4 ./mllib/ctp/ctp.o
                0x0001add4                ctp_cancard2_init
 .text.ctp_init
                0x0001ae88       0x50 ./mllib/ctp/ctp.o
                0x0001ae88                ctp_init
 .text.app_init
                0x0001aed8       0x60 ./app/u_app.o
                0x0001aed8                app_init
 .text.app_shell_send
                0x0001af38       0x14 ./app/u_app_tool_debug.o
                0x0001af38                app_shell_send
 .text.app_osinfo_print
                0x0001af4c       0x8c ./app/u_app_tool_debug.o
                0x0001af4c                app_osinfo_print
 .text.app_log_send
                0x0001afd8       0x20 ./app/u_app_tool_debug.o
                0x0001afd8                app_log_send
 .text.app_debug_connect
                0x0001aff8       0x38 ./app/u_app_tool_debug.o
                0x0001aff8                app_debug_connect
 .text.app_taskinfo_print
                0x0001b030       0x8c ./app/u_app_tool_debug.o
                0x0001b030                app_taskinfo_print
 .text.app_shell_cmd_tskinfo
                0x0001b0bc       0x84 ./app/u_app_tool_debug.o
                0x0001b0bc                app_shell_cmd_tskinfo
 .text.app_debug_task
                0x0001b140       0x38 ./app/u_app_tool_debug.o
                0x0001b140                app_debug_task
 .text.app_debug_int
                0x0001b178       0xa0 ./app/u_app_tool_debug.o
                0x0001b178                app_debug_int
 .text.__errno  0x0001b218        0xc c:/renesas/ra/e2studio_v2021-04_fsp_v3.0.0/toolchains/gcc_arm/9_2020q2/bin/../lib/gcc/arm-none-eabi/9.3.1/../../../../arm-none-eabi/lib/thumb/v8-m.main+fp/hard\libg_nano.a(lib_a-errno.o)
                0x0001b218                __errno
 .text.memcmp   0x0001b224       0x1c c:/renesas/ra/e2studio_v2021-04_fsp_v3.0.0/toolchains/gcc_arm/9_2020q2/bin/../lib/gcc/arm-none-eabi/9.3.1/../../../../arm-none-eabi/lib/thumb/v8-m.main+fp/hard\libg_nano.a(lib_a-memcmp.o)
                0x0001b224                memcmp
 .text.memcpy   0x0001b240       0x1a c:/renesas/ra/e2studio_v2021-04_fsp_v3.0.0/toolchains/gcc_arm/9_2020q2/bin/../lib/gcc/arm-none-eabi/9.3.1/../../../../arm-none-eabi/lib/thumb/v8-m.main+fp/hard\libg_nano.a(lib_a-memcpy-stub.o)
                0x0001b240                memcpy
 .text.memset   0x0001b25a       0x10 c:/renesas/ra/e2studio_v2021-04_fsp_v3.0.0/toolchains/gcc_arm/9_2020q2/bin/../lib/gcc/arm-none-eabi/9.3.1/../../../../arm-none-eabi/lib/thumb/v8-m.main+fp/hard\libg_nano.a(lib_a-memset.o)
                0x0001b25a                memset
 *fill*         0x0001b26a        0x2 ff
 .text.sprintf  0x0001b26c       0x40 c:/renesas/ra/e2studio_v2021-04_fsp_v3.0.0/toolchains/gcc_arm/9_2020q2/bin/../lib/gcc/arm-none-eabi/9.3.1/../../../../arm-none-eabi/lib/thumb/v8-m.main+fp/hard\libg_nano.a(lib_a-sprintf.o)
                0x0001b26c                siprintf
                0x0001b26c                sprintf
 .text          0x0001b2ac       0x14 c:/renesas/ra/e2studio_v2021-04_fsp_v3.0.0/toolchains/gcc_arm/9_2020q2/bin/../lib/gcc/arm-none-eabi/9.3.1/../../../../arm-none-eabi/lib/thumb/v8-m.main+fp/hard\libg_nano.a(lib_a-strcmp.o)
                0x0001b2ac                strcmp
 .text.strcpy   0x0001b2c0       0x10 c:/renesas/ra/e2studio_v2021-04_fsp_v3.0.0/toolchains/gcc_arm/9_2020q2/bin/../lib/gcc/arm-none-eabi/9.3.1/../../../../arm-none-eabi/lib/thumb/v8-m.main+fp/hard\libg_nano.a(lib_a-strcpy.o)
                0x0001b2c0                strcpy
 .text          0x0001b2d0       0x10 c:/renesas/ra/e2studio_v2021-04_fsp_v3.0.0/toolchains/gcc_arm/9_2020q2/bin/../lib/gcc/arm-none-eabi/9.3.1/../../../../arm-none-eabi/lib/thumb/v8-m.main+fp/hard\libg_nano.a(lib_a-strlen.o)
                0x0001b2d0                strlen
 .text._vsnprintf_r
                0x0001b2e0       0x58 c:/renesas/ra/e2studio_v2021-04_fsp_v3.0.0/toolchains/gcc_arm/9_2020q2/bin/../lib/gcc/arm-none-eabi/9.3.1/../../../../arm-none-eabi/lib/thumb/v8-m.main+fp/hard\libg_nano.a(lib_a-vsnprintf.o)
                0x0001b2e0                _vsniprintf_r
                0x0001b2e0                _vsnprintf_r
 .text.vsnprintf
                0x0001b338       0x1c c:/renesas/ra/e2studio_v2021-04_fsp_v3.0.0/toolchains/gcc_arm/9_2020q2/bin/../lib/gcc/arm-none-eabi/9.3.1/../../../../arm-none-eabi/lib/thumb/v8-m.main+fp/hard\libg_nano.a(lib_a-vsnprintf.o)
                0x0001b338                vsniprintf
                0x0001b338                vsnprintf
 .text._vsprintf_r
                0x0001b354       0x2c c:/renesas/ra/e2studio_v2021-04_fsp_v3.0.0/toolchains/gcc_arm/9_2020q2/bin/../lib/gcc/arm-none-eabi/9.3.1/../../../../arm-none-eabi/lib/thumb/v8-m.main+fp/hard\libg_nano.a(lib_a-vsprintf.o)
                0x0001b354                _vsprintf_r
                0x0001b354                _vsiprintf_r
 .text.vsprintf
                0x0001b380       0x14 c:/renesas/ra/e2studio_v2021-04_fsp_v3.0.0/toolchains/gcc_arm/9_2020q2/bin/../lib/gcc/arm-none-eabi/9.3.1/../../../../arm-none-eabi/lib/thumb/v8-m.main+fp/hard\libg_nano.a(lib_a-vsprintf.o)
                0x0001b380                vsiprintf
                0x0001b380                vsprintf
 .text.__ssputs_r
                0x0001b394       0xb6 c:/renesas/ra/e2studio_v2021-04_fsp_v3.0.0/toolchains/gcc_arm/9_2020q2/bin/../lib/gcc/arm-none-eabi/9.3.1/../../../../arm-none-eabi/lib/thumb/v8-m.main+fp/hard\libg_nano.a(lib_a-nano-svfprintf.o)
                0x0001b394                __ssputs_r
 *fill*         0x0001b44a        0x2 ff
 .text._svfprintf_r
                0x0001b44c      0x200 c:/renesas/ra/e2studio_v2021-04_fsp_v3.0.0/toolchains/gcc_arm/9_2020q2/bin/../lib/gcc/arm-none-eabi/9.3.1/../../../../arm-none-eabi/lib/thumb/v8-m.main+fp/hard\libg_nano.a(lib_a-nano-svfprintf.o)
                0x0001b44c                _svfiprintf_r
                0x0001b44c                _svfprintf_r
 .text._printf_common
                0x0001b64c       0xe0 c:/renesas/ra/e2studio_v2021-04_fsp_v3.0.0/toolchains/gcc_arm/9_2020q2/bin/../lib/gcc/arm-none-eabi/9.3.1/../../../../arm-none-eabi/lib/thumb/v8-m.main+fp/hard\libg_nano.a(lib_a-nano-vfprintf_i.o)
                0x0001b64c                _printf_common
 .text._printf_i
                0x0001b72c      0x24c c:/renesas/ra/e2studio_v2021-04_fsp_v3.0.0/toolchains/gcc_arm/9_2020q2/bin/../lib/gcc/arm-none-eabi/9.3.1/../../../../arm-none-eabi/lib/thumb/v8-m.main+fp/hard\libg_nano.a(lib_a-nano-vfprintf_i.o)
                0x0001b72c                _printf_i
 .text.memchr   0x0001b978       0x1c c:/renesas/ra/e2studio_v2021-04_fsp_v3.0.0/toolchains/gcc_arm/9_2020q2/bin/../lib/gcc/arm-none-eabi/9.3.1/../../../../arm-none-eabi/lib/thumb/v8-m.main+fp/hard\libg_nano.a(lib_a-memchr-stub.o)
                0x0001b978                memchr
 .text.memmove  0x0001b994       0x34 c:/renesas/ra/e2studio_v2021-04_fsp_v3.0.0/toolchains/gcc_arm/9_2020q2/bin/../lib/gcc/arm-none-eabi/9.3.1/../../../../arm-none-eabi/lib/thumb/v8-m.main+fp/hard\libg_nano.a(lib_a-memmove.o)
                0x0001b994                memmove
 .text._free_r  0x0001b9c8       0xa0 c:/renesas/ra/e2studio_v2021-04_fsp_v3.0.0/toolchains/gcc_arm/9_2020q2/bin/../lib/gcc/arm-none-eabi/9.3.1/../../../../arm-none-eabi/lib/thumb/v8-m.main+fp/hard\libg_nano.a(lib_a-nano-freer.o)
                0x0001b9c8                _free_r
 .text._malloc_r
                0x0001ba68       0xb4 c:/renesas/ra/e2studio_v2021-04_fsp_v3.0.0/toolchains/gcc_arm/9_2020q2/bin/../lib/gcc/arm-none-eabi/9.3.1/../../../../arm-none-eabi/lib/thumb/v8-m.main+fp/hard\libg_nano.a(lib_a-nano-mallocr.o)
                0x0001ba68                _malloc_r
 .text._realloc_r
                0x0001bb1c       0x4c c:/renesas/ra/e2studio_v2021-04_fsp_v3.0.0/toolchains/gcc_arm/9_2020q2/bin/../lib/gcc/arm-none-eabi/9.3.1/../../../../arm-none-eabi/lib/thumb/v8-m.main+fp/hard\libg_nano.a(lib_a-nano-reallocr.o)
                0x0001bb1c                _realloc_r
 .text._sbrk_r  0x0001bb68       0x20 c:/renesas/ra/e2studio_v2021-04_fsp_v3.0.0/toolchains/gcc_arm/9_2020q2/bin/../lib/gcc/arm-none-eabi/9.3.1/../../../../arm-none-eabi/lib/thumb/v8-m.main+fp/hard\libg_nano.a(lib_a-sbrkr.o)
                0x0001bb68                _sbrk_r
 .text.__malloc_lock
                0x0001bb88        0xc c:/renesas/ra/e2studio_v2021-04_fsp_v3.0.0/toolchains/gcc_arm/9_2020q2/bin/../lib/gcc/arm-none-eabi/9.3.1/../../../../arm-none-eabi/lib/thumb/v8-m.main+fp/hard\libg_nano.a(lib_a-mlock.o)
                0x0001bb88                __malloc_lock
 .text.__malloc_unlock
                0x0001bb94        0xc c:/renesas/ra/e2studio_v2021-04_fsp_v3.0.0/toolchains/gcc_arm/9_2020q2/bin/../lib/gcc/arm-none-eabi/9.3.1/../../../../arm-none-eabi/lib/thumb/v8-m.main+fp/hard\libg_nano.a(lib_a-mlock.o)
                0x0001bb94                __malloc_unlock
 .text._malloc_usable_size_r
                0x0001bba0       0x10 c:/renesas/ra/e2studio_v2021-04_fsp_v3.0.0/toolchains/gcc_arm/9_2020q2/bin/../lib/gcc/arm-none-eabi/9.3.1/../../../../arm-none-eabi/lib/thumb/v8-m.main+fp/hard\libg_nano.a(lib_a-nano-msizer.o)
                0x0001bba0                _malloc_usable_size_r
 .text.__retarget_lock_acquire_recursive
                0x0001bbb0        0x2 c:/renesas/ra/e2studio_v2021-04_fsp_v3.0.0/toolchains/gcc_arm/9_2020q2/bin/../lib/gcc/arm-none-eabi/9.3.1/../../../../arm-none-eabi/lib/thumb/v8-m.main+fp/hard\libg_nano.a(lib_a-lock.o)
                0x0001bbb0                __retarget_lock_acquire_recursive
 .text.__retarget_lock_release_recursive
                0x0001bbb2        0x2 c:/renesas/ra/e2studio_v2021-04_fsp_v3.0.0/toolchains/gcc_arm/9_2020q2/bin/../lib/gcc/arm-none-eabi/9.3.1/../../../../arm-none-eabi/lib/thumb/v8-m.main+fp/hard\libg_nano.a(lib_a-lock.o)
                0x0001bbb2                __retarget_lock_release_recursive
 *(.version)
 .version       0x0001bbb4       0x50 ./ra/fsp/src/bsp/mcu/all/bsp_common.o
 *(.init)
 .init          0x0001bc04        0x4 c:/renesas/ra/e2studio_v2021-04_fsp_v3.0.0/toolchains/gcc_arm/9_2020q2/bin/../lib/gcc/arm-none-eabi/9.3.1/thumb/v8-m.main+fp/hard/crti.o
                0x0001bc04                _init
 .init          0x0001bc08        0x8 c:/renesas/ra/e2studio_v2021-04_fsp_v3.0.0/toolchains/gcc_arm/9_2020q2/bin/../lib/gcc/arm-none-eabi/9.3.1/thumb/v8-m.main+fp/hard/crtn.o
 *(.fini)
 .fini          0x0001bc10        0x4 c:/renesas/ra/e2studio_v2021-04_fsp_v3.0.0/toolchains/gcc_arm/9_2020q2/bin/../lib/gcc/arm-none-eabi/9.3.1/thumb/v8-m.main+fp/hard/crti.o
                0x0001bc10                _fini
 .fini          0x0001bc14        0x8 c:/renesas/ra/e2studio_v2021-04_fsp_v3.0.0/toolchains/gcc_arm/9_2020q2/bin/../lib/gcc/arm-none-eabi/9.3.1/thumb/v8-m.main+fp/hard/crtn.o
 *fill*         0x0001bc1c        0x4 ff
 .fini.__stub   0x0001bc20       0x60 linker stubs
 *crtbegin.o(.ctors)
 *crtbegin?.o(.ctors)
 *(EXCLUDE_FILE(*crtend.o *crtend?.o) .ctors)
 *(SORT_BY_NAME(.ctors.*))
 *(.ctors)
 *crtbegin.o(.dtors)
 *crtbegin?.o(.dtors)
 *(EXCLUDE_FILE(*crtend.o *crtend?.o) .dtors)
 *(SORT_BY_NAME(.dtors.*))
 *(.dtors)
 *(.rodata*)
 .rodata.boxRxConnAck.str1.4
                0x0001bc80       0x18 ./tray/box.o
 .rodata        0x0001bc98        0x8 ./tray/entry.o
 .rodata.recvCtrlSetup.str1.4
                0x0001bca0       0x29 ./tray/flow.o
 *fill*         0x0001bcc9        0x3 ff
 .rodata.upFlowSave.str1.4
                0x0001bccc       0x1a ./tray/flow.o
 *fill*         0x0001bce6        0x2 ff
 .rodata.upProtGenSave.str1.4
                0x0001bce8       0x12 ./tray/flow.o
 *fill*         0x0001bcfa        0x2 ff
 .rodata.upProtStepSave.str1.4
                0x0001bcfc       0x12 ./tray/flow.o
 *fill*         0x0001bd0e        0x2 ff
 .rodata.__FUNCTION__.29251
                0x0001bd10        0xe ./tray/flow.o
 *fill*         0x0001bd1e        0x2 ff
 .rodata.__FUNCTION__.29260
                0x0001bd20        0xb ./tray/flow.o
 *fill*         0x0001bd2b        0x1 ff
 .rodata.__FUNCTION__.29266
                0x0001bd2c        0xe ./tray/flow.o
 *fill*         0x0001bd3a        0x2 ff
 .rodata.__FUNCTION__.29272
                0x0001bd3c        0xf ./tray/flow.o
 *fill*         0x0001bd4b        0x1 ff
 .rodata.logTrc.str1.4
                0x0001bd4c       0x28 ./tray/log.o
 .rodata.plcInitAddr.str1.4
                0x0001bd74      0x156 ./tray/plc.o
 *fill*         0x0001beca        0x2 ff
 .rodata.upFlowChk.str1.4
                0x0001becc       0x61 ./tray/tray_upper.o
 *fill*         0x0001bf2d        0x3 ff
 .rodata.upProtGenChk.str1.4
                0x0001bf30       0x10 ./tray/tray_upper.o
 .rodata.upProtStepChk.str1.4
                0x0001bf40       0x12 ./tray/tray_upper.o
 .rodata.upMsgFlowStart.str1.4
                0x0001bf40       0x3e ./tray/tray_upper.o
                                 0x46 (size before relaxing)
 *fill*         0x0001bf7e        0x2 ff
 .rodata.upMsgFlowCtnu.str1.4
                0x0001bf80       0x31 ./tray/tray_upper.o
 *fill*         0x0001bfb1        0x3 ff
 .rodata.__FUNCTION__.29625
                0x0001bfb4        0xa ./tray/tray_upper.o
 *fill*         0x0001bfbe        0x2 ff
 .rodata.__FUNCTION__.29645
                0x0001bfc0        0xd ./tray/tray_upper.o
 *fill*         0x0001bfcd        0x3 ff
 .rodata.__FUNCTION__.29655
                0x0001bfd0        0xe ./tray/tray_upper.o
 *fill*         0x0001bfde        0x2 ff
 .rodata.__FUNCTION__.29799
                0x0001bfe0        0xf ./tray/tray_upper.o
 *fill*         0x0001bfef        0x1 ff
 .rodata.__FUNCTION__.29814
                0x0001bff0        0xf ./tray/tray_upper.o
 *fill*         0x0001bfff        0x1 ff
 .rodata.__FUNCTION__.29829
                0x0001c000        0xe ./tray/tray_upper.o
 *fill*         0x0001c00e        0x2 ff
 .rodata.__FUNCTION__.29844
                0x0001c010        0xe ./tray/tray_upper.o
 *fill*         0x0001c01e        0x2 ff
 .rodata.__FUNCTION__.29860
                0x0001c020        0xe ./tray/tray_upper.o
 *fill*         0x0001c02e        0x2 ff
 .rodata.g_can0_cfg
                0x0001c030       0x18 ./ra_gen/hal_data.o
                0x0001c030                g_can0_cfg
 .rodata.g_can0_extended_cfg
                0x0001c048       0x18 ./ra_gen/hal_data.o
                0x0001c048                g_can0_extended_cfg
 .rodata.g_can1_cfg
                0x0001c060       0x18 ./ra_gen/hal_data.o
                0x0001c060                g_can1_cfg
 .rodata.g_can1_extended_cfg
                0x0001c078       0x18 ./ra_gen/hal_data.o
                0x0001c078                g_can1_extended_cfg
 .rodata.g_mcuflash_cfg
                0x0001c090       0x14 ./ra_gen/hal_data.o
                0x0001c090                g_mcuflash_cfg
 .rodata.g_mlosClockTimer_cfg
                0x0001c0a4       0x20 ./ra_gen/hal_data.o
                0x0001c0a4                g_mlosClockTimer_cfg
 .rodata.g_mlosClockTimer_extend
                0x0001c0c4       0x2c ./ra_gen/hal_data.o
                0x0001c0c4                g_mlosClockTimer_extend
 .rodata.g_mlosTaskElapsedTimer_cfg
                0x0001c0f0       0x20 ./ra_gen/hal_data.o
                0x0001c0f0                g_mlosTaskElapsedTimer_cfg
 .rodata.g_mlosTaskElapsedTimer_extend
                0x0001c110       0x2c ./ra_gen/hal_data.o
                0x0001c110                g_mlosTaskElapsedTimer_extend
 .rodata.g_transfer0
                0x0001c13c        0xc ./ra_gen/hal_data.o
                0x0001c13c                g_transfer0
 .rodata.g_transfer0_cfg
                0x0001c148        0x8 ./ra_gen/hal_data.o
                0x0001c148                g_transfer0_cfg
 .rodata.g_transfer0_cfg_extend
                0x0001c150        0x1 ./ra_gen/hal_data.o
                0x0001c150                g_transfer0_cfg_extend
 *fill*         0x0001c151        0x3 ff
 .rodata.g_transfer1
                0x0001c154        0xc ./ra_gen/hal_data.o
                0x0001c154                g_transfer1
 .rodata.g_transfer1_cfg
                0x0001c160        0x8 ./ra_gen/hal_data.o
                0x0001c160                g_transfer1_cfg
 .rodata.g_transfer1_cfg_extend
                0x0001c168        0x1 ./ra_gen/hal_data.o
                0x0001c168                g_transfer1_cfg_extend
 *fill*         0x0001c169        0x3 ff
 .rodata.g_uart0_cfg
                0x0001c16c       0x20 ./ra_gen/hal_data.o
                0x0001c16c                g_uart0_cfg
 .rodata.g_uart0_cfg_extend
                0x0001c18c       0x10 ./ra_gen/hal_data.o
                0x0001c18c                g_uart0_cfg_extend
 .rodata.g_uart1_cfg
                0x0001c19c       0x20 ./ra_gen/hal_data.o
                0x0001c19c                g_uart1_cfg
 .rodata.g_uart1_cfg_extend
                0x0001c1bc       0x10 ./ra_gen/hal_data.o
                0x0001c1bc                g_uart1_cfg_extend
 .rodata.g_w5500spi_cfg
                0x0001c1cc       0x24 ./ra_gen/hal_data.o
                0x0001c1cc                g_w5500spi_cfg
 .rodata.g_w5500spi_ext_cfg
                0x0001c1f0        0xc ./ra_gen/hal_data.o
                0x0001c1f0                g_w5500spi_ext_cfg
 .rodata.g_bsp_pin_cfg
                0x0001c1fc        0x8 ./ra_gen/pin_data.o
                0x0001c1fc                g_bsp_pin_cfg
 .rodata.g_bsp_pin_cfg_data
                0x0001c204      0x208 ./ra_gen/pin_data.o
                0x0001c204                g_bsp_pin_cfg_data
 .rodata.g_interrupt_event_link_select
                0x0001c40c       0xc0 ./ra_gen/vector_data.o
                0x0001c40c                g_interrupt_event_link_select
 .rodata.g_transfer_on_dtc
                0x0001c4cc       0x24 ./ra/fsp/src/r_dtc/r_dtc.o
                0x0001c4cc                g_transfer_on_dtc
 .rodata.g_prcr_masks
                0x0001c4f0        0x8 ./ra/fsp/src/bsp/mcu/all/bsp_register_protection.o
 .rodata.led_init.str1.4
                0x0001c4f8        0x4 ./public/u_led.o
 .rodata.setting_init.str1.4
                0x0001c4fc        0x7 ./public/u_setting.o
 *fill*         0x0001c503        0x1 ff
 .rodata.setFileMagicNumber
                0x0001c504        0x8 ./public/u_setting.o
                0x0001c504                setFileMagicNumber
 .rodata.log_shell_cmd_handle.str1.4
                0x0001c50c       0x14 ./mlos/services/mlos_log.o
                                 0x19 (size before relaxing)
 .rodata.log_init.str1.4
                0x0001c520       0x3e ./mlos/services/mlos_log.o
 *fill*         0x0001c55e        0x2 ff
 .rodata.shell_cmd_reboot.str1.4
                0x0001c560       0x16 ./mlos/services/mlos_shell.o
 *fill*         0x0001c576        0x2 ff
 .rodata.shell_cmd_help.str1.4
                0x0001c578       0x48 ./mlos/services/mlos_shell.o
 .rodata.shell_cmd_mem.str1.4
                0x0001c5c0       0x38 ./mlos/services/mlos_shell.o
 .rodata.shell_cmd_buf_read.str1.4
                0x0001c5f8       0x56 ./mlos/services/mlos_shell.o
 *fill*         0x0001c64e        0x2 ff
 .rodata.shell_task.str1.4
                0x0001c650       0x18 ./mlos/services/mlos_shell.o
 .rodata.shell_init.str1.4
                0x0001c668       0x78 ./mlos/services/mlos_shell.o
 .rodata.rtimer_task_create.str1.4
                0x0001c6e0        0x7 ./mlos/os/mlos_rtimer.o
 *fill*         0x0001c6e7        0x1 ff
 .rodata.Pb_init.str1.4
                0x0001c6e8        0x6 ./mllib/utp/pb.o
 *fill*         0x0001c6ee        0x2 ff
 .rodata.crc_hight_tab
                0x0001c6f0      0x100 ./mllib/utp/public.o
                0x0001c6f0                crc_hight_tab
 .rodata.crc_low_tab
                0x0001c7f0      0x100 ./mllib/utp/public.o
                0x0001c7f0                crc_low_tab
 .rodata.utp_init.str1.4
                0x0001c8f0        0x9 ./mllib/utp/utp.o
 *fill*         0x0001c8f9        0x3 ff
 .rodata.upper_datagram_process.str1.4
                0x0001c8fc       0x35 ./mllib/upper/upper_ntp.o
 .rodata.upper_ntp_init.str1.4
                0x0001c931        0x6 ./mllib/upper/upper_ntp.o
 *fill*         0x0001c931        0x3 ff
 .rodata.tool_init.str1.4
                0x0001c934        0x5 ./mllib/tool/tool.o
 .rodata.ntp_init.str1.4
                0x0001c939        0x7 ./mllib/ntp/ntp.o
 *fill*         0x0001c939        0x3 ff
 .rodata.ctp_init.str1.4
                0x0001c93c        0x4 ./mllib/ctp/ctp.o
 .rodata.app_shell_cmd_tskinfo.str1.4
                0x0001c940       0x1c ./app/u_app_tool_debug.o
                                 0x24 (size before relaxing)
 .rodata.app_debug_int.str1.4
                0x0001c95c       0x58 ./app/u_app_tool_debug.o
                                 0x5c (size before relaxing)
 .rodata._svfprintf_r.str1.1
                0x0001c9b4       0x11 c:/renesas/ra/e2studio_v2021-04_fsp_v3.0.0/toolchains/gcc_arm/9_2020q2/bin/../lib/gcc/arm-none-eabi/9.3.1/../../../../arm-none-eabi/lib/thumb/v8-m.main+fp/hard\libg_nano.a(lib_a-nano-svfprintf.o)
 .rodata._printf_i.str1.1
                0x0001c9c5       0x22 c:/renesas/ra/e2studio_v2021-04_fsp_v3.0.0/toolchains/gcc_arm/9_2020q2/bin/../lib/gcc/arm-none-eabi/9.3.1/../../../../arm-none-eabi/lib/thumb/v8-m.main+fp/hard\libg_nano.a(lib_a-nano-vfprintf_i.o)
 *fill*         0x0001c9e7        0x1 ff
 .rodata.__sf_fake_stderr
                0x0001c9e8       0x20 c:/renesas/ra/e2studio_v2021-04_fsp_v3.0.0/toolchains/gcc_arm/9_2020q2/bin/../lib/gcc/arm-none-eabi/9.3.1/../../../../arm-none-eabi/lib/thumb/v8-m.main+fp/hard\libc_nano.a(lib_a-findfp.o)
                0x0001c9e8                __sf_fake_stderr
 .rodata.__sf_fake_stdin
                0x0001ca08       0x20 c:/renesas/ra/e2studio_v2021-04_fsp_v3.0.0/toolchains/gcc_arm/9_2020q2/bin/../lib/gcc/arm-none-eabi/9.3.1/../../../../arm-none-eabi/lib/thumb/v8-m.main+fp/hard\libc_nano.a(lib_a-findfp.o)
                0x0001ca08                __sf_fake_stdin
 .rodata.__sf_fake_stdout
                0x0001ca28       0x20 c:/renesas/ra/e2studio_v2021-04_fsp_v3.0.0/toolchains/gcc_arm/9_2020q2/bin/../lib/gcc/arm-none-eabi/9.3.1/../../../../arm-none-eabi/lib/thumb/v8-m.main+fp/hard\libc_nano.a(lib_a-findfp.o)
                0x0001ca28                __sf_fake_stdout
                0x0001ca48                __usb_dev_descriptor_start_fs = .
 *(.usb_device_desc_fs*)
                0x0001ca48                __usb_cfg_descriptor_start_fs = .
 *(.usb_config_desc_fs*)
                0x0001ca48                __usb_interface_descriptor_start_fs = .
 *(.usb_interface_desc_fs*)
                0x0001ca48                __usb_descriptor_end_fs = .
                0x0001ca48                __usb_dev_descriptor_start_hs = .
 *(.usb_device_desc_hs*)
                0x0001ca48                __usb_cfg_descriptor_start_hs = .
 *(.usb_config_desc_hs*)
                0x0001ca48                __usb_interface_descriptor_start_hs = .
 *(.usb_interface_desc_hs*)
                0x0001ca48                __usb_descriptor_end_hs = .
 *(.eh_frame*)
 .eh_frame      0x0001ca48        0x0 c:/renesas/ra/e2studio_v2021-04_fsp_v3.0.0/toolchains/gcc_arm/9_2020q2/bin/../lib/gcc/arm-none-eabi/9.3.1/thumb/v8-m.main+fp/hard/crtbegin.o
 .eh_frame      0x0001ca48        0x4 c:/renesas/ra/e2studio_v2021-04_fsp_v3.0.0/toolchains/gcc_arm/9_2020q2/bin/../lib/gcc/arm-none-eabi/9.3.1/thumb/v8-m.main+fp/hard/crtend.o
                0x0001ca4c                __ROM_End = .
                0x000001c0                __Vectors_Size = (__Vectors_End - __Vectors)

.glue_7         0x0001ca4c        0x0
 .glue_7        0x0001ca4c        0x0 linker stubs

.glue_7t        0x0001ca4c        0x0
 .glue_7t       0x0001ca4c        0x0 linker stubs

.vfp11_veneer   0x0001ca4c        0x0
 .vfp11_veneer  0x0001ca4c        0x0 linker stubs

.v4_bx          0x0001ca4c        0x0
 .v4_bx         0x0001ca4c        0x0 linker stubs

.iplt           0x0001ca4c        0x0
 .iplt          0x0001ca4c        0x0 c:/renesas/ra/e2studio_v2021-04_fsp_v3.0.0/toolchains/gcc_arm/9_2020q2/bin/../lib/gcc/arm-none-eabi/9.3.1/thumb/v8-m.main+fp/hard/crtbegin.o

.ARM.extab
 *(.ARM.extab* .gnu.linkonce.armextab.*)
                0x0001ca4c                __exidx_start = .

.ARM.exidx
 *(.ARM.exidx* .gnu.linkonce.armexidx.*)
                0x0001ca4c                __exidx_end = .
                0x0001ca4c                __etext = .
                0x20000000                __tz_RAM_S = ORIGIN (RAM)

.fsp_dtc_vector_table
                0x20000000      0x180
                0x20000000                . = ORIGIN (RAM)
 *(.fsp_dtc_vector_table)
 .fsp_dtc_vector_table
                0x20000000      0x180 ./ra/fsp/src/r_dtc/r_dtc.o

.data           0x20000180      0xa8c load address 0x0001ca4c
                0x20000180                __data_start__ = .
                0x20000180                . = ALIGN (0x4)
                0x20000180                __Code_In_RAM_Start = .
 *(.code_in_ram*)
 .code_in_ram   0x20000180      0x774 ./ra/fsp/src/r_flash_hp/r_flash_hp.o
 *fill*         0x200008f4        0x4 
 .code_in_ram.__stub
                0x200008f8       0x10 linker stubs
                0x20000908                __Code_In_RAM_End = .
 *(vtable)
 *(.data.*)
 .data.gBoxAddr
                0x20000908        0x4 ./tray/entry.o
                0x20000908                gBoxAddr
 .data.gChnModuAmt
                0x2000090c        0x1 ./tray/entry.o
                0x2000090c                gChnModuAmt
 *fill*         0x2000090d        0x3 
 .data.gCurrentMax
                0x20000910        0x4 ./tray/entry.o
                0x20000910                gCurrentMax
 .data.gMediumSoftVer
                0x20000914        0x2 ./tray/entry.o
                0x20000914                gMediumSoftVer
 .data.gTmpBoxChnAmt
                0x20000916        0x1 ./tray/entry.o
                0x20000916                gTmpBoxChnAmt
 .data.gTmpChnCellAmt
                0x20000917        0x1 ./tray/entry.o
                0x20000917                gTmpChnCellAmt
 .data.gTmpTmprAmtPerCell
                0x20000918        0x1 ./tray/entry.o
                0x20000918                gTmpTmprAmtPerCell
 .data.gTmpTmprAmtPerLoc
                0x20000919        0x1 ./tray/entry.o
                0x20000919                gTmpTmprAmtPerLoc
 .data.gTmpTmprSmplAmt
                0x2000091a        0x1 ./tray/entry.o
                0x2000091a                gTmpTmprSmplAmt
 *fill*         0x2000091b        0x1 
 .data.gTmpTmprSmplCellAmt
                0x2000091c        0x2 ./tray/entry.o
                0x2000091c                gTmpTmprSmplCellAmt
 .data.gTmpTmprSmplChnAmt
                0x2000091e        0x2 ./tray/entry.o
                0x2000091e                gTmpTmprSmplChnAmt
 .data.gTmpTmprSmplLocAmt
                0x20000920        0x1 ./tray/entry.o
                0x20000920                gTmpTmprSmplLocAmt
 .data.gTmpTmprSmplLocBase
                0x20000921        0x1 ./tray/entry.o
                0x20000921                gTmpTmprSmplLocBase
 .data.gTmpTrayAmt
                0x20000922        0x1 ./tray/entry.o
                0x20000922                gTmpTrayAmt
 .data.gTmpTrayBoxAmt
                0x20000923        0x1 ./tray/entry.o
                0x20000923                gTmpTrayBoxAmt
 .data.gTrayBoxType
                0x20000924        0x1 ./tray/entry.o
                0x20000924                gTrayBoxType
 *fill*         0x20000925        0x3 
 .data.gVoltageMax
                0x20000928        0x4 ./tray/entry.o
                0x20000928                gVoltageMax
 .data.gLogLvl  0x2000092c        0x1 ./tray/log.o
                0x2000092c                gLogLvl
 .data.gPlcAmt  0x2000092d        0x1 ./tray/plc.o
                0x2000092d                gPlcAmt
 *fill*         0x2000092e        0x2 
 .data.gPlcIp   0x20000930        0x4 ./tray/plc.o
                0x20000930                gPlcIp
 .data.gPlcPort
                0x20000934        0x2 ./tray/plc.o
                0x20000934                gPlcPort
 .data.gPlcReadAmtMax
                0x20000936        0x1 ./tray/plc.o
                0x20000936                gPlcReadAmtMax
 *fill*         0x20000937        0x1 
 .data.g_can0_bit_timing_cfg
                0x20000938       0x10 ./ra_gen/hal_data.o
                0x20000938                g_can0_bit_timing_cfg
 .data.g_can0_mailbox
                0x20000948      0x100 ./ra_gen/hal_data.o
                0x20000948                g_can0_mailbox
 .data.g_can1_bit_timing_cfg
                0x20000a48       0x10 ./ra_gen/hal_data.o
                0x20000a48                g_can1_bit_timing_cfg
 .data.g_can1_mailbox
                0x20000a58      0x100 ./ra_gen/hal_data.o
                0x20000a58                g_can1_mailbox
 .data.g_transfer0_info
                0x20000b58       0x10 ./ra_gen/hal_data.o
                0x20000b58                g_transfer0_info
 .data.g_transfer1_info
                0x20000b68       0x10 ./ra_gen/hal_data.o
                0x20000b68                g_transfer1_info
 .data.g_uart0_baud_setting
                0x20000b78        0x4 ./ra_gen/hal_data.o
                0x20000b78                g_uart0_baud_setting
 .data.g_uart1_baud_setting
                0x20000b7c        0x4 ./ra_gen/hal_data.o
                0x20000b7c                g_uart1_baud_setting
 .data.g_configuration_area_data
                0x20000b80       0x10 ./ra/fsp/src/r_flash_hp/r_flash_hp.o
 .data.mySetting
                0x20000b90        0x4 ./public/u_setting.o
                0x20000b90                mySetting
 .data.logPrintLevelMask
                0x20000b94        0x4 ./mlos/services/mlos_log.o
                0x20000b94                logPrintLevelMask
 .data.pCANCtrl
                0x20000b98        0x8 ./mllib/ctp/ra6m4/ctp_can_driver.o
                0x20000b98                pCANCtrl
 .data._impure_ptr
                0x20000ba0        0x4 c:/renesas/ra/e2studio_v2021-04_fsp_v3.0.0/toolchains/gcc_arm/9_2020q2/bin/../lib/gcc/arm-none-eabi/9.3.1/../../../../arm-none-eabi/lib/thumb/v8-m.main+fp/hard\libg_nano.a(lib_a-impure.o)
                0x20000ba0                _impure_ptr
 .data.impure_data
                0x20000ba4       0x60 c:/renesas/ra/e2studio_v2021-04_fsp_v3.0.0/toolchains/gcc_arm/9_2020q2/bin/../lib/gcc/arm-none-eabi/9.3.1/../../../../arm-none-eabi/lib/thumb/v8-m.main+fp/hard\libg_nano.a(lib_a-impure.o)
 *(.data)
                0x20000c04                . = ALIGN (0x4)
                0x20000c04                PROVIDE (__preinit_array_start = .)
 *(.preinit_array)
                0x20000c04                PROVIDE (__preinit_array_end = .)
                0x20000c04                . = ALIGN (0x4)
                0x20000c04                PROVIDE (__init_array_start = .)
 *(SORT_BY_NAME(.init_array.*))
 *(.init_array)
 .init_array    0x20000c04        0x4 c:/renesas/ra/e2studio_v2021-04_fsp_v3.0.0/toolchains/gcc_arm/9_2020q2/bin/../lib/gcc/arm-none-eabi/9.3.1/thumb/v8-m.main+fp/hard/crtbegin.o
                0x20000c08                PROVIDE (__init_array_end = .)
                0x20000c08                . = ALIGN (0x4)
                [!provide]                PROVIDE (__fini_array_start = .)
 *(SORT_BY_NAME(.fini_array.*))
 *(.fini_array)
 .fini_array    0x20000c08        0x4 c:/renesas/ra/e2studio_v2021-04_fsp_v3.0.0/toolchains/gcc_arm/9_2020q2/bin/../lib/gcc/arm-none-eabi/9.3.1/thumb/v8-m.main+fp/hard/crtbegin.o
                [!provide]                PROVIDE (__fini_array_end = .)
 *(.jcr*)
                0x20000c0c                . = ALIGN (0x4)
                0x20000c0c                __data_end__ = .

.igot.plt       0x20000c0c        0x0 load address 0x0001d4d8
 .igot.plt      0x20000c0c        0x0 c:/renesas/ra/e2studio_v2021-04_fsp_v3.0.0/toolchains/gcc_arm/9_2020q2/bin/../lib/gcc/arm-none-eabi/9.3.1/thumb/v8-m.main+fp/hard/crtbegin.o

.gnu.sgstubs    0x0001d800        0x0
                0x0001d800                . = (DEFINED (PROJECT_SECURE) && DEFINED (FLASH_NSC_START))?ABSOLUTE (FLASH_NSC_START):ALIGN (0x400)
                0x0001d800                __tz_FLASH_C = DEFINED (FLASH_NSC_START)?ABSOLUTE (FLASH_NSC_START):__RESERVE_NS_RAM?ABSOLUTE ((FLASH_START + FLASH_LENGTH)):ALIGN (0x400)
                0x0001d800                _start_sg = .
 *(.gnu.sgstubs*)
                0x0001d800                . = ALIGN (0x20)
                0x0001d800                _end_sg = .
                0x00020000                __tz_FLASH_N = DEFINED (FLASH_NS_START)?ABSOLUTE (FLASH_NS_START):__RESERVE_NS_RAM?ABSOLUTE ((FLASH_START + FLASH_LENGTH)):ALIGN (0x8000)
                0x00020000                FLASH_NS_IMAGE_START = DEFINED (FLASH_NS_IMAGE_START)?FLASH_NS_IMAGE_START:__tz_FLASH_N
                0x60000000                __tz_QSPI_FLASH_S = ORIGIN (QSPI_FLASH)

.qspi_flash     0x60000000        0x0
                0x60000000                __qspi_flash_start__ = .
 *(.qspi_flash*)
 *(.code_in_qspi*)
                0x60000000                __qspi_flash_end__ = .
                0x00000000                __qspi_flash_code_size__ = (__qspi_flash_end__ - __qspi_flash_start__)
                0x0001d4d8                __qspi_flash_code_addr__ = (__etext + (__data_end__ - __data_start__))

.qspi_non_retentive
                0x60000000        0x0 load address 0x0001d4d8
                0x60000000                __qspi_non_retentive_start__ = .
 *(.qspi_non_retentive*)
                0x60000000                __qspi_non_retentive_end__ = .
                0x00000000                __qspi_non_retentive_size__ = (__qspi_non_retentive_end__ - __qspi_non_retentive_start__)
                0x04000000                __qspi_region_max_size__ = 0x4000000
                0x60000000                __qspi_region_start_address__ = __qspi_flash_start__
                0x64000000                __qspi_region_end_address__ = (__qspi_flash_start__ + __qspi_region_max_size__)
                0x60000000                __tz_QSPI_FLASH_N = __qspi_non_retentive_end__
                0x68000000                __tz_OSPI_DEVICE_0_S = ORIGIN (OSPI_DEVICE_0)

.OSPI_DEVICE_0  0x68000000        0x0
                0x68000000                __ospi_device_0_start__ = .
 *(.ospi_device_0*)
 *(.code_in_ospi_device_0*)
                0x68000000                __ospi_device_0_end__ = .
                0x00000000                __ospi_device_0_code_size__ = (__ospi_device_0_end__ - __ospi_device_0_start__)
                0x0001d4d8                __ospi_device_0_code_addr__ = (__etext + (__data_end__ - __data_start__))

.ospi_device_0_non_retentive
                0x68000000        0x0 load address 0x0001d4d8
                0x68000000                __ospi_device_0_non_retentive_start__ = .
 *(.ospi_device_0_non_retentive*)
                0x68000000                __ospi_device_0_non_retentive_end__ = .
                0x00000000                __ospi_device_0_non_retentive_size__ = (__ospi_device_0_non_retentive_end__ - __ospi_device_0_non_retentive_start__)
                0x08000000                __ospi_device_0_region_max_size__ = 0x8000000
                0x68000000                __ospi_device_0_region_start_address__ = __ospi_device_0_start__
                0x70000000                __ospi_device_0_region_end_address__ = (__ospi_device_0_start__ + __ospi_device_0_region_max_size__)
                0x68000000                __tz_OSPI_DEVICE_0_N = __ospi_device_0_non_retentive_end__
                0x70000000                __tz_OSPI_DEVICE_1_S = ORIGIN (OSPI_DEVICE_1)

.OSPI_DEVICE_1  0x70000000        0x0
                0x70000000                __ospi_device_1_start__ = .
 *(.ospi_device_1*)
 *(.code_in_ospi_device_1*)
                0x70000000                __ospi_device_1_end__ = .
                0x00000000                __ospi_device_1_code_size__ = (__ospi_device_1_end__ - __ospi_device_1_start__)
                0x0001d4d8                __ospi_device_1_code_addr__ = (__etext + (__data_end__ - __data_start__))

.ospi_device_1_non_retentive
                0x70000000        0x0 load address 0x0001d4d8
                0x70000000                __ospi_device_1_non_retentive_start__ = .
 *(.ospi_device_1_non_retentive*)
                0x70000000                __ospi_device_1_non_retentive_end__ = .
                0x00000000                __ospi_device_1_non_retentive_size__ = (__ospi_device_1_non_retentive_end__ - __ospi_device_1_non_retentive_start__)
                0x10000000                __ospi_device_1_region_max_size__ = 0x10000000
                0x70000000                __ospi_device_1_region_start_address__ = __ospi_device_1_start__
                0x80000000                __ospi_device_1_region_end_address__ = (__ospi_device_1_start__ + __ospi_device_1_region_max_size__)
                0x70000000                __tz_OSPI_DEVICE_1_N = __ospi_device_1_non_retentive_end__

.noinit         0x20000c0c       0x1c
                0x20000c0c                . = ALIGN (0x4)
                0x20000c0c                __noinit_start = .
 *(.noinit*)
 .noinit        0x20000c0c       0x18 ./ra/fsp/src/bsp/mcu/all/bsp_clocks.o
                0x20000c28                . = ALIGN (0x8)
 *fill*         0x20000c24        0x4 
 *(.heap.*)
                0x20000c28                __noinit_end = .

.bss            0x20000c28     0xa178
                0x20000c28                . = ALIGN (0x4)
                0x20000c28                __bss_start__ = .
 *(.bss*)
 .bss           0x20000c28       0x1c c:/renesas/ra/e2studio_v2021-04_fsp_v3.0.0/toolchains/gcc_arm/9_2020q2/bin/../lib/gcc/arm-none-eabi/9.3.1/thumb/v8-m.main+fp/hard/crtbegin.o
 .bss.gTmpFixtUartIdx
                0x20000c44        0x1 ./tray/entry.o
                0x20000c44                gTmpFixtUartIdx
 .bss.gTmpTmprSmplCellBase
                0x20000c45        0x1 ./tray/entry.o
                0x20000c45                gTmpTmprSmplCellBase
 .bss.gTmpTmprSmplUartIdx
                0x20000c46        0x1 ./tray/entry.o
                0x20000c46                gTmpTmprSmplUartIdx
 *fill*         0x20000c47        0x1 
 .bss.gTmprSmplAddr
                0x20000c48        0x1 ./tray/entry.o
                0x20000c48                gTmprSmplAddr
 *fill*         0x20000c49        0x3 
 .bss.gPlcTrayAddrBase
                0x20000c4c        0x2 ./tray/plc.o
                0x20000c4c                gPlcTrayAddrBase
 *fill*         0x20000c4e        0x2 
 .bss.gPlcTrayIdx
                0x20000c50        0x1 ./tray/plc.o
                0x20000c50                gPlcTrayIdx
 *fill*         0x20000c51        0x3 
 .bss.g_can0_mailbox_mask
                0x20000c54       0x20 ./ra_gen/hal_data.o
                0x20000c54                g_can0_mailbox_mask
 .bss.g_can1_mailbox_mask
                0x20000c74       0x20 ./ra_gen/hal_data.o
                0x20000c74                g_can1_mailbox_mask
 .bss.g_dtc_state_initialized.24782
                0x20000c94        0x1 ./ra/fsp/src/r_dtc/r_dtc.o
 *fill*         0x20000c95        0x3 
 .bss.g_bsp_group_irq_sources
                0x20000c98       0x40 ./ra/fsp/src/bsp/mcu/all/bsp_group_irq.o
 .bss.g_protect_counters
                0x20000cd8        0x8 ./ra/fsp/src/bsp/mcu/all/bsp_register_protection.o
 .bss.current_heap_end.24622
                0x20000ce0        0x4 ./ra/fsp/src/bsp/mcu/all/bsp_sbrk.o
 .bss.SystemCoreClock
                0x20000ce4        0x4 ./ra/fsp/src/bsp/cmsis/Device/RENESAS/Source/system.o
                0x20000ce4                SystemCoreClock
 .bss.msClockTime
                0x20000ce8        0x4 ./mlos/os/mlos_clock.o
                0x20000ce8                msClockTime
 .bss.sysRealTime
                0x20000cec        0x8 ./mlos/os/mlos_clock.o
                0x20000cec                sysRealTime
 .bss.memBlockList
                0x20000cf4        0xc ./mlos/os/mlos_malloc.o
 .bss.lastTime.27919
                0x20000d00        0x4 ./mlos/os/mlos_rtimer.o
 .bss.overflow.27915
                0x20000d04        0x1 ./mlos/os/mlos_rtimer.o
 *fill*         0x20000d05        0x3 
 .bss.mcuFlashEvent
                0x20000d08        0x4 ./mllib/mlflash/mcuflash/RA6M4/mcu_flash.o
                0x20000d08                mcuFlashEvent
 .bss.pCANRxQue
                0x20000d0c        0x8 ./mllib/ctp/ra6m4/ctp_can_driver.o
                0x20000d0c                pCANRxQue
 .bss.txCompletedFlag
                0x20000d14        0x2 ./mllib/ctp/ra6m4/ctp_can_driver.o
                0x20000d14                txCompletedFlag
 *fill*         0x20000d16        0x2 
 .bss.appDebugPrintEnable
                0x20000d18        0x4 ./app/u_app_tool_debug.o
                0x20000d18                appDebugPrintEnable
 .bss.appDebugToolConnected
                0x20000d1c        0x1 ./app/u_app_tool_debug.o
                0x20000d1c                appDebugToolConnected
 *fill*         0x20000d1d        0x3 
 .bss.pAppDebugTask
                0x20000d20        0x4 ./app/u_app_tool_debug.o
                0x20000d20                pAppDebugTask
 .bss.__malloc_free_list
                0x20000d24        0x4 c:/renesas/ra/e2studio_v2021-04_fsp_v3.0.0/toolchains/gcc_arm/9_2020q2/bin/../lib/gcc/arm-none-eabi/9.3.1/../../../../arm-none-eabi/lib/thumb/v8-m.main+fp/hard\libg_nano.a(lib_a-nano-mallocr.o)
                0x20000d24                __malloc_free_list
 .bss.__malloc_sbrk_start
                0x20000d28        0x4 c:/renesas/ra/e2studio_v2021-04_fsp_v3.0.0/toolchains/gcc_arm/9_2020q2/bin/../lib/gcc/arm-none-eabi/9.3.1/../../../../arm-none-eabi/lib/thumb/v8-m.main+fp/hard\libg_nano.a(lib_a-nano-mallocr.o)
                0x20000d28                __malloc_sbrk_start
 *(COMMON)
 COMMON         0x20000d2c       0x14 ./tray/box.o
                0x20000d2c                gMaxSmplAmt
                0x20000d30                gBoxMsgBufTx
                0x20000d34                gStepSmplSeq
                0x20000d38                gCrntSmplSeq
                0x20000d3c                gCanMgr
 COMMON         0x20000d40        0x4 ./tray/entry.o
                0x20000d40                gDevMgr
 COMMON         0x20000d44        0x9 ./tray/flow.o
                0x20000d44                gFlowCb
                0x20000d48                gTmpFlowInfo
                0x20000d4c                gTmpStepAmt
 *fill*         0x20000d4d        0x3 
 COMMON         0x20000d50        0x8 ./tray/func.o
                0x20000d50                gMemFamily
 COMMON         0x20000d58        0x4 ./tray/log.o
                0x20000d58                gLogBuf
 COMMON         0x20000d5c        0x8 ./tray/plc.o
                0x20000d5c                gPlcSendBuf
                0x20000d60                gPlcMgr
 COMMON         0x20000d64        0x4 ./tray/timer.o
                0x20000d64                gTimerMgr
 COMMON         0x20000d68       0x1a ./tray/tray_upper.o
                0x20000d68                gAbsTimeSec
                0x20000d6c                gUpItfCb
                0x20000d70                gNeedSendUpConn
                0x20000d74                gSmplRcd
                0x20000d78                recvUpBuf
                0x20000d7c                sendUpBuf
                0x20000d80                gStepSmplReq
 *fill*         0x20000d82        0x2 
 COMMON         0x20000d84        0x8 ./tray/uart.o
                0x20000d84                gUartSendBuf
                0x20000d88                gUartMgr
 COMMON         0x20000d8c        0x8 ./ra_gen/common_data.o
                0x20000d8c                g_ioport_ctrl
 COMMON         0x20000d94      0x1b4 ./ra_gen/hal_data.o
                0x20000d94                g_qspi0_ctrl
                0x20000da4                g_can1_ctrl
                0x20000dcc                g_cssdSpi_ctrl
                0x20000dfc                g_mcuflash_ctrl
                0x20000e40                g_can0_ctrl
                0x20000e68                g_w5500spi_ctrl
                0x20000e98                g_transfer0_ctrl
                0x20000ea0                g_mlosClockTimer_ctrl
                0x20000ec0                g_mlosTaskElapsedTimer_ctrl
                0x20000ee0                g_transfer1_ctrl
                0x20000ee8                g_uart1_ctrl
                0x20000f18                g_uart0_ctrl
 COMMON         0x20000f48        0x4 ./ra/fsp/src/bsp/mcu/all/bsp_io.o
                0x20000f48                g_protect_pfswe_counter
 COMMON         0x20000f4c      0x180 ./ra/fsp/src/bsp/mcu/all/bsp_irq.o
                0x20000f4c                gp_renesas_isr_context
 COMMON         0x200010cc       0x14 ./public/u_led.o
                0x200010cc                led
 COMMON         0x200010e0       0x10 ./mlos/services/mlos_log.o
                0x200010e0                log
 COMMON         0x200010f0      0x4c4 ./mlos/services/mlos_shell.o
                0x200010f0                shell
 COMMON         0x200015b4     0x8028 ./mlos/port/RA6M4/mlos_port.o
                0x200015b4                memblock1
                0x200015c8                sram1
                0x200095c8                memblock2
 COMMON         0x200095dc       0x18 ./mlos/os/mlos.o
                0x200095dc                mlos
 COMMON         0x200095f4        0xc ./mlos/os/mlos_rtimer.o
                0x200095f4                pRtimerTask
                0x200095f8                pCurTmrList
                0x200095fc                pOvfTmrList
 COMMON         0x20009600       0x88 ./mlos/os/mlos_task.o
                0x20009600                pCurTaskgroup
                0x20009604                taskgroup
                0x2000967c                suspendTaskList
 COMMON         0x20009688       0x10 ./mllib/utp/pb.o
                0x20009688                PbNtp
 COMMON         0x20009698       0x4c ./mllib/utp/utp.o
                0x20009698                utp
 COMMON         0x200096e4       0x10 ./mllib/upper/upper_ntp.o
                0x200096e4                upperNtp
 COMMON         0x200096f4       0x10 ./mllib/tool/tool.o
                0x200096f4                toolNtp
 COMMON         0x20009704        0x4 ./mllib/ntp/w5500/ra6m4/ntp_w5500_spi_driver.o
                0x20009704                w5500spievent
 COMMON         0x20009708       0x24 ./mllib/ntp/w5500/ntp_w5500.o
                0x20009708                w5500
 COMMON         0x2000972c     0x1660 ./mllib/ctp/ctp.o
                0x2000972c                can2TxfrmBuf
                0x20009a2c                can2RxfrmBuf
                0x20009d2c                can1RxfrmBuf
                0x2000a32c                ctp
                0x2000a374                can1TxfrmBuf
                0x2000a974                ctpTxbuf
 COMMON         0x2000ad8c        0x4 ./app/u_app_tool_debug.o
                0x2000ad8c                pOsinfoPrintTimer
 COMMON         0x2000ad90        0x4 c:/renesas/ra/e2studio_v2021-04_fsp_v3.0.0/toolchains/gcc_arm/9_2020q2/bin/../lib/gcc/arm-none-eabi/9.3.1/../../../../arm-none-eabi/lib/thumb/v8-m.main+fp/hard\libg_nano.a(lib_a-reent.o)
                0x2000ad90                errno
 COMMON         0x2000ad94        0x9 c:/renesas/ra/e2studio_v2021-04_fsp_v3.0.0/toolchains/gcc_arm/9_2020q2/bin/../lib/gcc/arm-none-eabi/9.3.1/../../../../arm-none-eabi/lib/thumb/v8-m.main+fp/hard\libg_nano.a(lib_a-lock.o)
                0x2000ad94                __lock___atexit_recursive_mutex
                0x2000ad95                __lock___arc4random_mutex
                0x2000ad96                __lock___env_recursive_mutex
                0x2000ad97                __lock___sinit_recursive_mutex
                0x2000ad98                __lock___malloc_recursive_mutex
                0x2000ad99                __lock___at_quick_exit_mutex
                0x2000ad9a                __lock___dd_hash_mutex
                0x2000ad9b                __lock___tz_mutex
                0x2000ad9c                __lock___sfp_recursive_mutex
                0x2000ada0                . = ALIGN (0x4)
 *fill*         0x2000ad9d        0x3 
                0x2000ada0                __bss_end__ = .

.heap           0x2000ada0        0x0
                0x2000ada0                . = ALIGN (0x8)
                0x2000ada0                __HeapBase = .
 *(.heap)
                0x2000ada0                __HeapLimit = .

.stack_dummy    0x2000ada0      0x400
                0x2000ada0                . = ALIGN (0x8)
                0x2000ada0                __StackLimit = .
 *(.stack)
 .stack         0x2000ada0      0x400 ./ra/fsp/src/bsp/cmsis/Device/RENESAS/Source/startup.o
                0x2000b1a0                __StackTop = .
 *(.stack*)
                0x2000b1a0                __StackTopAll = .
                0x2000b1a0                PROVIDE (__stack = __StackTopAll)
                0x2000b1a0                __RAM_segment_used_end__ = ALIGN (__StackTopAll, 0x4)
                0x2000b400                __tz_RAM_C = DEFINED (RAM_NSC_START)?ABSOLUTE (RAM_NSC_START):__RESERVE_NS_RAM?ABSOLUTE (RAM_NS_BUFFER_BLOCK_START):ALIGN (__RAM_segment_used_end__, 0x400)
                0x2000c000                __tz_RAM_N = DEFINED (RAM_NS_START)?ABSOLUTE (RAM_NS_START):__RESERVE_NS_RAM?ABSOLUTE (RAM_NS_BUFFER_BLOCK_START):ALIGN (__tz_RAM_C, 0x2000)

.ns_buffer      0x2000b1a0        0x0
                0x2000b1a0                . = __RESERVE_NS_RAM?ABSOLUTE ((RAM_NS_BUFFER_START & 0xffffffe0)):.
 *(.ns_buffer*)

.data_flash     0x08000000        0x0
                0x08000000                . = ORIGIN (DATA_FLASH)
                0x08000000                __tz_DATA_FLASH_S = .
                0x08000000                __Data_Flash_Start = .
 *(.data_flash*)
                0x08000000                __Data_Flash_End = .
                0x08000000                __tz_DATA_FLASH_N = DEFINED (DATA_FLASH_NS_START)?ABSOLUTE (DATA_FLASH_NS_START):__RESERVE_NS_RAM?ABSOLUTE ((DATA_FLASH_START + DATA_FLASH_LENGTH)):ALIGN (0x400)
                0x90000000                __tz_SDRAM_S = ORIGIN (SDRAM)

.sdram          0x90000000        0x0
                0x90000000                __SDRAM_Start = .
 *(.sdram*)
 *(.frame*)
                0x90000000                __SDRAM_End = .
                0x90000000                __tz_SDRAM_N = __SDRAM_End
                0x00000000                __tz_ID_CODE_S = ORIGIN (ID_CODE)

.id_code        0x00000000        0x0
                0x00000000                __ID_Code_Start = .
 *(.id_code*)
                0x00000000                __ID_Code_End = .
                0x00000000                __tz_ID_CODE_N = __ID_Code_End
                0x0100a100                __tz_OPTION_SETTING_S = ORIGIN (OPTION_SETTING)

.option_setting
                0x0100a100       0x38
                0x0100a100                __OPTION_SETTING_Start = .
 *(.option_setting_ofs0)
 .option_setting_ofs0
                0x0100a100        0x4 ./ra/fsp/src/bsp/mcu/all/bsp_rom_registers.o
                0x0100a110                . = PROJECT_SECURE_OR_FLAT?(__OPTION_SETTING_Start + 0x10):__OPTION_SETTING_Start
 *fill*         0x0100a104        0xc ff
 *(.option_setting_dualsel)
 .option_setting_dualsel
                0x0100a110        0x4 ./ra/fsp/src/bsp/mcu/all/bsp_rom_registers.o
                0x0100a134                . = PROJECT_SECURE_OR_FLAT?(__OPTION_SETTING_Start + 0x34):__OPTION_SETTING_Start
 *fill*         0x0100a114       0x20 ff
 *(.option_setting_sas)
 .option_setting_sas
                0x0100a134        0x4 ./ra/fsp/src/bsp/mcu/all/bsp_rom_registers.o
                0x0100a138                __OPTION_SETTING_End = .
                0x0100a180                __tz_OPTION_SETTING_N = OPTION_SETTING_START_NS

.option_setting_ns
                0x0100a138        0x0
                0x0100a138                __OPTION_SETTING_NS_Start = .
 *(.option_setting_ofs1)
                0x0100a138                . = USE_OPTION_SETTING_NS?(__OPTION_SETTING_NS_Start + 0x10):__OPTION_SETTING_NS_Start
 *(.option_setting_banksel)
                0x0100a138                . = USE_OPTION_SETTING_NS?(__OPTION_SETTING_NS_Start + 0x40):__OPTION_SETTING_NS_Start
 *(.option_setting_bps0)
                0x0100a138                . = USE_OPTION_SETTING_NS?(__OPTION_SETTING_NS_Start + 0x44):__OPTION_SETTING_NS_Start
 *(.option_setting_bps1)
                0x0100a138                . = USE_OPTION_SETTING_NS?(__OPTION_SETTING_NS_Start + 0x48):__OPTION_SETTING_NS_Start
 *(.option_setting_bps2)
                0x0100a138                . = USE_OPTION_SETTING_NS?(__OPTION_SETTING_NS_Start + 0x60):__OPTION_SETTING_NS_Start
 *(.option_setting_pbps0)
                0x0100a138                . = USE_OPTION_SETTING_NS?(__OPTION_SETTING_NS_Start + 0x64):__OPTION_SETTING_NS_Start
 *(.option_setting_pbps1)
                0x0100a138                . = USE_OPTION_SETTING_NS?(__OPTION_SETTING_NS_Start + 0x68):__OPTION_SETTING_NS_Start
 *(.option_setting_pbps2)
                0x0100a138                __OPTION_SETTING_NS_End = .
                0x0100a200                __tz_OPTION_SETTING_S_S = ORIGIN (OPTION_SETTING_S)

.option_setting_s
                0x0100a200       0xcc
                0x0100a200                __OPTION_SETTING_S_Start = .
 *(.option_setting_ofs1_sec)
 .option_setting_ofs1_sec
                0x0100a200        0x4 ./ra/fsp/src/bsp/mcu/all/bsp_rom_registers.o
                0x0100a210                . = PROJECT_SECURE_OR_FLAT?(__OPTION_SETTING_S_Start + 0x10):__OPTION_SETTING_S_Start
 *fill*         0x0100a204        0xc ff
 *(.option_setting_banksel_sec)
 .option_setting_banksel_sec
                0x0100a210        0x4 ./ra/fsp/src/bsp/mcu/all/bsp_rom_registers.o
                0x0100a240                . = PROJECT_SECURE_OR_FLAT?(__OPTION_SETTING_S_Start + 0x40):__OPTION_SETTING_S_Start
 *fill*         0x0100a214       0x2c ff
 *(.option_setting_bps_sec0)
 .option_setting_bps_sec0
                0x0100a240        0x4 ./ra/fsp/src/bsp/mcu/all/bsp_rom_registers.o
                0x0100a244                . = PROJECT_SECURE_OR_FLAT?(__OPTION_SETTING_S_Start + 0x44):__OPTION_SETTING_S_Start
 *(.option_setting_bps_sec1)
 .option_setting_bps_sec1
                0x0100a244        0x4 ./ra/fsp/src/bsp/mcu/all/bsp_rom_registers.o
                0x0100a248                . = PROJECT_SECURE_OR_FLAT?(__OPTION_SETTING_S_Start + 0x48):__OPTION_SETTING_S_Start
 *(.option_setting_bps_sec2)
 .option_setting_bps_sec2
                0x0100a248        0x4 ./ra/fsp/src/bsp/mcu/all/bsp_rom_registers.o
                0x0100a260                . = PROJECT_SECURE_OR_FLAT?(__OPTION_SETTING_S_Start + 0x60):__OPTION_SETTING_S_Start
 *fill*         0x0100a24c       0x14 ff
 *(.option_setting_pbps_sec0)
 .option_setting_pbps_sec0
                0x0100a260        0x4 ./ra/fsp/src/bsp/mcu/all/bsp_rom_registers.o
                0x0100a264                . = PROJECT_SECURE_OR_FLAT?(__OPTION_SETTING_S_Start + 0x64):__OPTION_SETTING_S_Start
 *(.option_setting_pbps_sec1)
 .option_setting_pbps_sec1
                0x0100a264        0x4 ./ra/fsp/src/bsp/mcu/all/bsp_rom_registers.o
                0x0100a268                . = PROJECT_SECURE_OR_FLAT?(__OPTION_SETTING_S_Start + 0x68):__OPTION_SETTING_S_Start
 *(.option_setting_pbps_sec2)
 .option_setting_pbps_sec2
                0x0100a268        0x4 ./ra/fsp/src/bsp/mcu/all/bsp_rom_registers.o
                0x0100a280                . = PROJECT_SECURE_OR_FLAT?(__OPTION_SETTING_S_Start + 0x80):__OPTION_SETTING_S_Start
 *fill*         0x0100a26c       0x14 ff
 *(.option_setting_ofs1_sel)
 .option_setting_ofs1_sel
                0x0100a280        0x4 ./ra/fsp/src/bsp/mcu/all/bsp_rom_registers.o
                0x0100a290                . = PROJECT_SECURE_OR_FLAT?(__OPTION_SETTING_S_Start + 0x90):__OPTION_SETTING_S_Start
 *fill*         0x0100a284        0xc ff
 *(.option_setting_banksel_sel)
 .option_setting_banksel_sel
                0x0100a290        0x4 ./ra/fsp/src/bsp/mcu/all/bsp_rom_registers.o
                0x0100a2c0                . = PROJECT_SECURE_OR_FLAT?(__OPTION_SETTING_S_Start + 0xc0):__OPTION_SETTING_S_Start
 *fill*         0x0100a294       0x2c ff
 *(.option_setting_bps_sel0)
 .option_setting_bps_sel0
                0x0100a2c0        0x4 ./ra/fsp/src/bsp/mcu/all/bsp_rom_registers.o
                0x0100a2c4                . = PROJECT_SECURE_OR_FLAT?(__OPTION_SETTING_S_Start + 0xc4):__OPTION_SETTING_S_Start
 *(.option_setting_bps_sel1)
 .option_setting_bps_sel1
                0x0100a2c4        0x4 ./ra/fsp/src/bsp/mcu/all/bsp_rom_registers.o
                0x0100a2c8                . = PROJECT_SECURE_OR_FLAT?(__OPTION_SETTING_S_Start + 0xc8):__OPTION_SETTING_S_Start
 *(.option_setting_bps_sel2)
 .option_setting_bps_sel2
                0x0100a2c8        0x4 ./ra/fsp/src/bsp/mcu/all/bsp_rom_registers.o
                0x0100a2cc                __OPTION_SETTING_S_End = .
                0x0100a2cc                __tz_OPTION_SETTING_S_N = __OPTION_SETTING_S_End
OUTPUT(mc_r7fa6m4.elf elf32-littlearm)
LOAD linker stubs

.rel.dyn        0x0100a2cc        0x0
 .rel.iplt      0x0100a2cc        0x0 c:/renesas/ra/e2studio_v2021-04_fsp_v3.0.0/toolchains/gcc_arm/9_2020q2/bin/../lib/gcc/arm-none-eabi/9.3.1/thumb/v8-m.main+fp/hard/crtbegin.o

.ARM.attributes
                0x00000000       0x36
 .ARM.attributes
                0x00000000       0x22 c:/renesas/ra/e2studio_v2021-04_fsp_v3.0.0/toolchains/gcc_arm/9_2020q2/bin/../lib/gcc/arm-none-eabi/9.3.1/thumb/v8-m.main+fp/hard/crti.o
 .ARM.attributes
                0x00000022       0x38 c:/renesas/ra/e2studio_v2021-04_fsp_v3.0.0/toolchains/gcc_arm/9_2020q2/bin/../lib/gcc/arm-none-eabi/9.3.1/thumb/v8-m.main+fp/hard/crtbegin.o
 .ARM.attributes
                0x0000005a       0x3a ./tray/box.o
 .ARM.attributes
                0x00000094       0x3a ./tray/entry.o
 .ARM.attributes
                0x000000ce       0x3a ./tray/flow.o
 .ARM.attributes
                0x00000108       0x3a ./tray/func.o
 .ARM.attributes
                0x00000142       0x3a ./tray/log.o
 .ARM.attributes
                0x0000017c       0x3a ./tray/plc.o
 .ARM.attributes
                0x000001b6       0x3a ./tray/timer.o
 .ARM.attributes
                0x000001f0       0x3a ./tray/tray.o
 .ARM.attributes
                0x0000022a       0x3a ./tray/tray_upper.o
 .ARM.attributes
                0x00000264       0x3a ./tray/uart.o
 .ARM.attributes
                0x0000029e       0x3a ./src/hal_entry.o
 .ARM.attributes
                0x000002d8       0x3a ./ra_gen/common_data.o
 .ARM.attributes
                0x00000312       0x3a ./ra_gen/hal_data.o
 .ARM.attributes
                0x0000034c       0x3a ./ra_gen/main.o
 .ARM.attributes
                0x00000386       0x3c ./ra_gen/pin_data.o
 .ARM.attributes
                0x000003c2       0x3c ./ra_gen/vector_data.o
 .ARM.attributes
                0x000003fe       0x3a ./ra/fsp/src/r_spi/r_spi.o
 .ARM.attributes
                0x00000438       0x3a ./ra/fsp/src/r_sci_uart/r_sci_uart.o
 .ARM.attributes
                0x00000472       0x3a ./ra/fsp/src/r_ioport/r_ioport.o
 .ARM.attributes
                0x000004ac       0x3a ./ra/fsp/src/r_gpt/r_gpt.o
 .ARM.attributes
                0x000004e6       0x3a ./ra/fsp/src/r_flash_hp/r_flash_hp.o
 .ARM.attributes
                0x00000520       0x3a ./ra/fsp/src/r_dtc/r_dtc.o
 .ARM.attributes
                0x0000055a       0x3a ./ra/fsp/src/r_can/r_can.o
 .ARM.attributes
                0x00000594       0x3a ./ra/fsp/src/bsp/mcu/all/bsp_clocks.o
 .ARM.attributes
                0x000005ce       0x3a ./ra/fsp/src/bsp/mcu/all/bsp_common.o
 .ARM.attributes
                0x00000608       0x3a ./ra/fsp/src/bsp/mcu/all/bsp_group_irq.o
 .ARM.attributes
                0x00000642       0x3c ./ra/fsp/src/bsp/mcu/all/bsp_io.o
 .ARM.attributes
                0x0000067e       0x3a ./ra/fsp/src/bsp/mcu/all/bsp_irq.o
 .ARM.attributes
                0x000006b8       0x3a ./ra/fsp/src/bsp/mcu/all/bsp_register_protection.o
 .ARM.attributes
                0x000006f2       0x3c ./ra/fsp/src/bsp/mcu/all/bsp_rom_registers.o
 .ARM.attributes
                0x0000072e       0x3a ./ra/fsp/src/bsp/mcu/all/bsp_sbrk.o
 .ARM.attributes
                0x00000768       0x3a ./ra/fsp/src/bsp/cmsis/Device/RENESAS/Source/startup.o
 .ARM.attributes
                0x000007a2       0x3a ./ra/fsp/src/bsp/cmsis/Device/RENESAS/Source/system.o
 .ARM.attributes
                0x000007dc       0x3a ./public/u_function.o
 .ARM.attributes
                0x00000816       0x3a ./public/u_led.o
 .ARM.attributes
                0x00000850       0x3a ./public/u_setting.o
 .ARM.attributes
                0x0000088a       0x3a ./public/u_setting_tool_ntp.o
 .ARM.attributes
                0x000008c4       0x3a ./mlos/services/mlos_log.o
 .ARM.attributes
                0x000008fe       0x3a ./mlos/services/mlos_shell.o
 .ARM.attributes
                0x00000938       0x3a ./mlos/port/RA6M4/mlos_port.o
 .ARM.attributes
                0x00000972       0x3a ./mlos/os/mlos.o
 .ARM.attributes
                0x000009ac       0x3a ./mlos/os/mlos_clock.o
 .ARM.attributes
                0x000009e6       0x3a ./mlos/os/mlos_list.o
 .ARM.attributes
                0x00000a20       0x3a ./mlos/os/mlos_ltimer.o
 .ARM.attributes
                0x00000a5a       0x3a ./mlos/os/mlos_malloc.o
 .ARM.attributes
                0x00000a94       0x3a ./mlos/os/mlos_mpump.o
 .ARM.attributes
                0x00000ace       0x3a ./mlos/os/mlos_que.o
 .ARM.attributes
                0x00000b08       0x3a ./mlos/os/mlos_rtimer.o
 .ARM.attributes
                0x00000b42       0x3a ./mlos/os/mlos_task.o
 .ARM.attributes
                0x00000b7c       0x3a ./mllib/utp/ra6m4/utp_uart_driver.o
 .ARM.attributes
                0x00000bb6       0x3a ./mllib/utp/pb.o
 .ARM.attributes
                0x00000bf0       0x3a ./mllib/utp/public.o
 .ARM.attributes
                0x00000c2a       0x3a ./mllib/utp/utp.o
 .ARM.attributes
                0x00000c64       0x3a ./mllib/upper/upper_ntp.o
 .ARM.attributes
                0x00000c9e       0x3a ./mllib/tool/tool.o
 .ARM.attributes
                0x00000cd8       0x3a ./mllib/ntp/w5500/ra6m4/ntp_w5500_spi_driver.o
 .ARM.attributes
                0x00000d12       0x3a ./mllib/ntp/w5500/ntp_w5500.o
 .ARM.attributes
                0x00000d4c       0x3a ./mllib/ntp/ntp.o
 .ARM.attributes
                0x00000d86       0x3a ./mllib/ntp/ntp_usocket.o
 .ARM.attributes
                0x00000dc0       0x3a ./mllib/mlflash/mcuflash/RA6M4/mcu_flash.o
 .ARM.attributes
                0x00000dfa       0x3a ./mllib/iap/mc_ra6m4_iap_protocol/iap_tool_ntp.o
 .ARM.attributes
                0x00000e34       0x3a ./mllib/iap/mc_ra6m4_iap_protocol/iap_upper_ntp.o
 .ARM.attributes
                0x00000e6e       0x3a ./mllib/iap/RA6M4/iap_mcu_port.o
 .ARM.attributes
                0x00000ea8       0x3a ./mllib/iap/iap.o
 .ARM.attributes
                0x00000ee2       0x3a ./mllib/ctp/ra6m4/ctp_can_driver.o
 .ARM.attributes
                0x00000f1c       0x3a ./mllib/ctp/ctp.o
 .ARM.attributes
                0x00000f56       0x3a ./app/u_app.o
 .ARM.attributes
                0x00000f90       0x3a ./app/u_app_tool_debug.o
 .ARM.attributes
                0x00000fca       0x38 c:/renesas/ra/e2studio_v2021-04_fsp_v3.0.0/toolchains/gcc_arm/9_2020q2/bin/../lib/gcc/arm-none-eabi/9.3.1/../../../../arm-none-eabi/lib/thumb/v8-m.main+fp/hard\libg_nano.a(lib_a-errno.o)
 .ARM.attributes
                0x00001002       0x36 c:/renesas/ra/e2studio_v2021-04_fsp_v3.0.0/toolchains/gcc_arm/9_2020q2/bin/../lib/gcc/arm-none-eabi/9.3.1/../../../../arm-none-eabi/lib/thumb/v8-m.main+fp/hard\libg_nano.a(lib_a-impure.o)
 .ARM.attributes
                0x00001038       0x38 c:/renesas/ra/e2studio_v2021-04_fsp_v3.0.0/toolchains/gcc_arm/9_2020q2/bin/../lib/gcc/arm-none-eabi/9.3.1/../../../../arm-none-eabi/lib/thumb/v8-m.main+fp/hard\libg_nano.a(lib_a-memcmp.o)
 .ARM.attributes
                0x00001070       0x38 c:/renesas/ra/e2studio_v2021-04_fsp_v3.0.0/toolchains/gcc_arm/9_2020q2/bin/../lib/gcc/arm-none-eabi/9.3.1/../../../../arm-none-eabi/lib/thumb/v8-m.main+fp/hard\libg_nano.a(lib_a-memcpy-stub.o)
 .ARM.attributes
                0x000010a8       0x38 c:/renesas/ra/e2studio_v2021-04_fsp_v3.0.0/toolchains/gcc_arm/9_2020q2/bin/../lib/gcc/arm-none-eabi/9.3.1/../../../../arm-none-eabi/lib/thumb/v8-m.main+fp/hard\libg_nano.a(lib_a-memset.o)
 .ARM.attributes
                0x000010e0       0x38 c:/renesas/ra/e2studio_v2021-04_fsp_v3.0.0/toolchains/gcc_arm/9_2020q2/bin/../lib/gcc/arm-none-eabi/9.3.1/../../../../arm-none-eabi/lib/thumb/v8-m.main+fp/hard\libg_nano.a(lib_a-sprintf.o)
 .ARM.attributes
                0x00001118       0x20 c:/renesas/ra/e2studio_v2021-04_fsp_v3.0.0/toolchains/gcc_arm/9_2020q2/bin/../lib/gcc/arm-none-eabi/9.3.1/../../../../arm-none-eabi/lib/thumb/v8-m.main+fp/hard\libg_nano.a(lib_a-strcmp.o)
 .ARM.attributes
                0x00001138       0x38 c:/renesas/ra/e2studio_v2021-04_fsp_v3.0.0/toolchains/gcc_arm/9_2020q2/bin/../lib/gcc/arm-none-eabi/9.3.1/../../../../arm-none-eabi/lib/thumb/v8-m.main+fp/hard\libg_nano.a(lib_a-strcpy.o)
 .ARM.attributes
                0x00001170       0x17 c:/renesas/ra/e2studio_v2021-04_fsp_v3.0.0/toolchains/gcc_arm/9_2020q2/bin/../lib/gcc/arm-none-eabi/9.3.1/../../../../arm-none-eabi/lib/thumb/v8-m.main+fp/hard\libg_nano.a(lib_a-strlen.o)
 .ARM.attributes
                0x00001187       0x38 c:/renesas/ra/e2studio_v2021-04_fsp_v3.0.0/toolchains/gcc_arm/9_2020q2/bin/../lib/gcc/arm-none-eabi/9.3.1/../../../../arm-none-eabi/lib/thumb/v8-m.main+fp/hard\libg_nano.a(lib_a-vsnprintf.o)
 .ARM.attributes
                0x000011bf       0x38 c:/renesas/ra/e2studio_v2021-04_fsp_v3.0.0/toolchains/gcc_arm/9_2020q2/bin/../lib/gcc/arm-none-eabi/9.3.1/../../../../arm-none-eabi/lib/thumb/v8-m.main+fp/hard\libg_nano.a(lib_a-vsprintf.o)
 .ARM.attributes
                0x000011f7       0x38 c:/renesas/ra/e2studio_v2021-04_fsp_v3.0.0/toolchains/gcc_arm/9_2020q2/bin/../lib/gcc/arm-none-eabi/9.3.1/../../../../arm-none-eabi/lib/thumb/v8-m.main+fp/hard\libg_nano.a(lib_a-nano-svfprintf.o)
 .ARM.attributes
                0x0000122f       0x38 c:/renesas/ra/e2studio_v2021-04_fsp_v3.0.0/toolchains/gcc_arm/9_2020q2/bin/../lib/gcc/arm-none-eabi/9.3.1/../../../../arm-none-eabi/lib/thumb/v8-m.main+fp/hard\libg_nano.a(lib_a-nano-vfprintf_i.o)
 .ARM.attributes
                0x00001267       0x38 c:/renesas/ra/e2studio_v2021-04_fsp_v3.0.0/toolchains/gcc_arm/9_2020q2/bin/../lib/gcc/arm-none-eabi/9.3.1/../../../../arm-none-eabi/lib/thumb/v8-m.main+fp/hard\libg_nano.a(lib_a-memchr-stub.o)
 .ARM.attributes
                0x0000129f       0x38 c:/renesas/ra/e2studio_v2021-04_fsp_v3.0.0/toolchains/gcc_arm/9_2020q2/bin/../lib/gcc/arm-none-eabi/9.3.1/../../../../arm-none-eabi/lib/thumb/v8-m.main+fp/hard\libg_nano.a(lib_a-memmove.o)
 .ARM.attributes
                0x000012d7       0x38 c:/renesas/ra/e2studio_v2021-04_fsp_v3.0.0/toolchains/gcc_arm/9_2020q2/bin/../lib/gcc/arm-none-eabi/9.3.1/../../../../arm-none-eabi/lib/thumb/v8-m.main+fp/hard\libg_nano.a(lib_a-nano-freer.o)
 .ARM.attributes
                0x0000130f       0x38 c:/renesas/ra/e2studio_v2021-04_fsp_v3.0.0/toolchains/gcc_arm/9_2020q2/bin/../lib/gcc/arm-none-eabi/9.3.1/../../../../arm-none-eabi/lib/thumb/v8-m.main+fp/hard\libg_nano.a(lib_a-nano-mallocr.o)
 .ARM.attributes
                0x00001347       0x38 c:/renesas/ra/e2studio_v2021-04_fsp_v3.0.0/toolchains/gcc_arm/9_2020q2/bin/../lib/gcc/arm-none-eabi/9.3.1/../../../../arm-none-eabi/lib/thumb/v8-m.main+fp/hard\libg_nano.a(lib_a-nano-reallocr.o)
 .ARM.attributes
                0x0000137f       0x38 c:/renesas/ra/e2studio_v2021-04_fsp_v3.0.0/toolchains/gcc_arm/9_2020q2/bin/../lib/gcc/arm-none-eabi/9.3.1/../../../../arm-none-eabi/lib/thumb/v8-m.main+fp/hard\libg_nano.a(lib_a-sbrkr.o)
 .ARM.attributes
                0x000013b7       0x38 c:/renesas/ra/e2studio_v2021-04_fsp_v3.0.0/toolchains/gcc_arm/9_2020q2/bin/../lib/gcc/arm-none-eabi/9.3.1/../../../../arm-none-eabi/lib/thumb/v8-m.main+fp/hard\libg_nano.a(lib_a-mlock.o)
 .ARM.attributes
                0x000013ef       0x38 c:/renesas/ra/e2studio_v2021-04_fsp_v3.0.0/toolchains/gcc_arm/9_2020q2/bin/../lib/gcc/arm-none-eabi/9.3.1/../../../../arm-none-eabi/lib/thumb/v8-m.main+fp/hard\libg_nano.a(lib_a-nano-msizer.o)
 .ARM.attributes
                0x00001427       0x38 c:/renesas/ra/e2studio_v2021-04_fsp_v3.0.0/toolchains/gcc_arm/9_2020q2/bin/../lib/gcc/arm-none-eabi/9.3.1/../../../../arm-none-eabi/lib/thumb/v8-m.main+fp/hard\libg_nano.a(lib_a-reent.o)
 .ARM.attributes
                0x0000145f       0x38 c:/renesas/ra/e2studio_v2021-04_fsp_v3.0.0/toolchains/gcc_arm/9_2020q2/bin/../lib/gcc/arm-none-eabi/9.3.1/../../../../arm-none-eabi/lib/thumb/v8-m.main+fp/hard\libg_nano.a(lib_a-lock.o)
 .ARM.attributes
                0x00001497       0x38 c:/renesas/ra/e2studio_v2021-04_fsp_v3.0.0/toolchains/gcc_arm/9_2020q2/bin/../lib/gcc/arm-none-eabi/9.3.1/../../../../arm-none-eabi/lib/thumb/v8-m.main+fp/hard\libc_nano.a(lib_a-findfp.o)
 .ARM.attributes
                0x000014cf       0x36 c:/renesas/ra/e2studio_v2021-04_fsp_v3.0.0/toolchains/gcc_arm/9_2020q2/bin/../lib/gcc/arm-none-eabi/9.3.1/thumb/v8-m.main+fp/hard/crtend.o
 .ARM.attributes
                0x00001505       0x22 c:/renesas/ra/e2studio_v2021-04_fsp_v3.0.0/toolchains/gcc_arm/9_2020q2/bin/../lib/gcc/arm-none-eabi/9.3.1/thumb/v8-m.main+fp/hard/crtn.o

.comment        0x00000000       0x4c
 .comment       0x00000000       0x4c ./tray/box.o
                                 0x4d (size before relaxing)
 .comment       0x0000004c       0x4d ./tray/entry.o
 .comment       0x0000004c       0x4d ./tray/flow.o
 .comment       0x0000004c       0x4d ./tray/func.o
 .comment       0x0000004c       0x4d ./tray/log.o
 .comment       0x0000004c       0x4d ./tray/plc.o
 .comment       0x0000004c       0x4d ./tray/timer.o
 .comment       0x0000004c       0x4d ./tray/tray.o
 .comment       0x0000004c       0x4d ./tray/tray_upper.o
 .comment       0x0000004c       0x4d ./tray/uart.o
 .comment       0x0000004c       0x4d ./src/hal_entry.o
 .comment       0x0000004c       0x4d ./ra_gen/common_data.o
 .comment       0x0000004c       0x4d ./ra_gen/hal_data.o
 .comment       0x0000004c       0x4d ./ra_gen/main.o
 .comment       0x0000004c       0x4d ./ra_gen/pin_data.o
 .comment       0x0000004c       0x4d ./ra_gen/vector_data.o
 .comment       0x0000004c       0x4d ./ra/fsp/src/r_spi/r_spi.o
 .comment       0x0000004c       0x4d ./ra/fsp/src/r_sci_uart/r_sci_uart.o
 .comment       0x0000004c       0x4d ./ra/fsp/src/r_ioport/r_ioport.o
 .comment       0x0000004c       0x4d ./ra/fsp/src/r_gpt/r_gpt.o
 .comment       0x0000004c       0x4d ./ra/fsp/src/r_flash_hp/r_flash_hp.o
 .comment       0x0000004c       0x4d ./ra/fsp/src/r_dtc/r_dtc.o
 .comment       0x0000004c       0x4d ./ra/fsp/src/r_can/r_can.o
 .comment       0x0000004c       0x4d ./ra/fsp/src/bsp/mcu/all/bsp_clocks.o
 .comment       0x0000004c       0x4d ./ra/fsp/src/bsp/mcu/all/bsp_common.o
 .comment       0x0000004c       0x4d ./ra/fsp/src/bsp/mcu/all/bsp_group_irq.o
 .comment       0x0000004c       0x4d ./ra/fsp/src/bsp/mcu/all/bsp_io.o
 .comment       0x0000004c       0x4d ./ra/fsp/src/bsp/mcu/all/bsp_irq.o
 .comment       0x0000004c       0x4d ./ra/fsp/src/bsp/mcu/all/bsp_register_protection.o
 .comment       0x0000004c       0x4d ./ra/fsp/src/bsp/mcu/all/bsp_rom_registers.o
 .comment       0x0000004c       0x4d ./ra/fsp/src/bsp/mcu/all/bsp_sbrk.o
 .comment       0x0000004c       0x4d ./ra/fsp/src/bsp/cmsis/Device/RENESAS/Source/startup.o
 .comment       0x0000004c       0x4d ./ra/fsp/src/bsp/cmsis/Device/RENESAS/Source/system.o
 .comment       0x0000004c       0x4d ./public/u_function.o
 .comment       0x0000004c       0x4d ./public/u_led.o
 .comment       0x0000004c       0x4d ./public/u_setting.o
 .comment       0x0000004c       0x4d ./public/u_setting_tool_ntp.o
 .comment       0x0000004c       0x4d ./mlos/services/mlos_log.o
 .comment       0x0000004c       0x4d ./mlos/services/mlos_shell.o
 .comment       0x0000004c       0x4d ./mlos/port/RA6M4/mlos_port.o
 .comment       0x0000004c       0x4d ./mlos/os/mlos.o
 .comment       0x0000004c       0x4d ./mlos/os/mlos_clock.o
 .comment       0x0000004c       0x4d ./mlos/os/mlos_list.o
 .comment       0x0000004c       0x4d ./mlos/os/mlos_ltimer.o
 .comment       0x0000004c       0x4d ./mlos/os/mlos_malloc.o
 .comment       0x0000004c       0x4d ./mlos/os/mlos_mpump.o
 .comment       0x0000004c       0x4d ./mlos/os/mlos_que.o
 .comment       0x0000004c       0x4d ./mlos/os/mlos_rtimer.o
 .comment       0x0000004c       0x4d ./mlos/os/mlos_task.o
 .comment       0x0000004c       0x4d ./mllib/utp/ra6m4/utp_uart_driver.o
 .comment       0x0000004c       0x4d ./mllib/utp/pb.o
 .comment       0x0000004c       0x4d ./mllib/utp/public.o
 .comment       0x0000004c       0x4d ./mllib/utp/utp.o
 .comment       0x0000004c       0x4d ./mllib/upper/upper_ntp.o
 .comment       0x0000004c       0x4d ./mllib/tool/tool.o
 .comment       0x0000004c       0x4d ./mllib/ntp/w5500/ra6m4/ntp_w5500_spi_driver.o
 .comment       0x0000004c       0x4d ./mllib/ntp/w5500/ntp_w5500.o
 .comment       0x0000004c       0x4d ./mllib/ntp/ntp.o
 .comment       0x0000004c       0x4d ./mllib/ntp/ntp_usocket.o
 .comment       0x0000004c       0x4d ./mllib/mlflash/mcuflash/RA6M4/mcu_flash.o
 .comment       0x0000004c       0x4d ./mllib/iap/mc_ra6m4_iap_protocol/iap_tool_ntp.o
 .comment       0x0000004c       0x4d ./mllib/iap/mc_ra6m4_iap_protocol/iap_upper_ntp.o
 .comment       0x0000004c       0x4d ./mllib/iap/RA6M4/iap_mcu_port.o
 .comment       0x0000004c       0x4d ./mllib/iap/iap.o
 .comment       0x0000004c       0x4d ./mllib/ctp/ra6m4/ctp_can_driver.o
 .comment       0x0000004c       0x4d ./mllib/ctp/ctp.o
 .comment       0x0000004c       0x4d ./app/u_app.o
 .comment       0x0000004c       0x4d ./app/u_app_tool_debug.o

.debug_info     0x00000000   0x227a87
 .debug_info    0x00000000     0xd9e2 ./tray/box.o
 .debug_info    0x0000d9e2     0xbb98 ./tray/entry.o
 .debug_info    0x0001957a     0xb87b ./tray/flow.o
 .debug_info    0x00024df5     0x1006 ./tray/func.o
 .debug_info    0x00025dfb     0xb4bd ./tray/log.o
 .debug_info    0x000312b8     0xb717 ./tray/plc.o
 .debug_info    0x0003c9cf     0xb8ae ./tray/timer.o
 .debug_info    0x0004827d     0xac6d ./tray/tray.o
 .debug_info    0x00052eea    0x12ea2 ./tray/tray_upper.o
 .debug_info    0x00065d8c     0xd4c0 ./tray/uart.o
 .debug_info    0x0007324c     0x9db2 ./src/hal_entry.o
 .debug_info    0x0007cffe     0x1984 ./ra_gen/common_data.o
 .debug_info    0x0007e982     0xa888 ./ra_gen/hal_data.o
 .debug_info    0x0008920a     0x9b88 ./ra_gen/main.o
 .debug_info    0x00092d92     0x1138 ./ra_gen/pin_data.o
 .debug_info    0x00093eca     0x10ea ./ra_gen/vector_data.o
 .debug_info    0x00094fb4     0x853c ./ra/fsp/src/r_spi/r_spi.o
 .debug_info    0x0009d4f0     0x98dd ./ra/fsp/src/r_sci_uart/r_sci_uart.o
 .debug_info    0x000a6dcd     0x6d8f ./ra/fsp/src/r_ioport/r_ioport.o
 .debug_info    0x000adb5c     0x9396 ./ra/fsp/src/r_gpt/r_gpt.o
 .debug_info    0x000b6ef2     0x8b3a ./ra/fsp/src/r_flash_hp/r_flash_hp.o
 .debug_info    0x000bfa2c     0x5c4e ./ra/fsp/src/r_dtc/r_dtc.o
 .debug_info    0x000c567a     0x54b0 ./ra/fsp/src/r_can/r_can.o
 .debug_info    0x000cab2a     0x4aeb ./ra/fsp/src/bsp/mcu/all/bsp_clocks.o
 .debug_info    0x000cf615     0x1154 ./ra/fsp/src/bsp/mcu/all/bsp_common.o
 .debug_info    0x000d0769     0x1b89 ./ra/fsp/src/bsp/mcu/all/bsp_group_irq.o
 .debug_info    0x000d22f2      0x990 ./ra/fsp/src/bsp/mcu/all/bsp_io.o
 .debug_info    0x000d2c82     0x24e7 ./ra/fsp/src/bsp/mcu/all/bsp_irq.o
 .debug_info    0x000d5169     0x402a ./ra/fsp/src/bsp/mcu/all/bsp_register_protection.o
 .debug_info    0x000d9193      0xaa7 ./ra/fsp/src/bsp/mcu/all/bsp_rom_registers.o
 .debug_info    0x000d9c3a      0xa61 ./ra/fsp/src/bsp/mcu/all/bsp_sbrk.o
 .debug_info    0x000da69b      0xa51 ./ra/fsp/src/bsp/cmsis/Device/RENESAS/Source/startup.o
 .debug_info    0x000db0ec     0x1173 ./ra/fsp/src/bsp/cmsis/Device/RENESAS/Source/system.o
 .debug_info    0x000dc25f       0xf9 ./public/u_function.o
 .debug_info    0x000dc358     0xa492 ./public/u_led.o
 .debug_info    0x000e67ea     0xa0e9 ./public/u_setting.o
 .debug_info    0x000f08d3     0xa1d9 ./public/u_setting_tool_ntp.o
 .debug_info    0x000faaac     0xa487 ./mlos/services/mlos_log.o
 .debug_info    0x00104f33     0xabf4 ./mlos/services/mlos_shell.o
 .debug_info    0x0010fb27     0x9f3f ./mlos/port/RA6M4/mlos_port.o
 .debug_info    0x00119a66     0x9e2d ./mlos/os/mlos.o
 .debug_info    0x00123893     0x9c84 ./mlos/os/mlos_clock.o
 .debug_info    0x0012d517      0xe04 ./mlos/os/mlos_list.o
 .debug_info    0x0012e31b     0x9d70 ./mlos/os/mlos_ltimer.o
 .debug_info    0x0013808b     0x9fc0 ./mlos/os/mlos_malloc.o
 .debug_info    0x0014204b     0xa515 ./mlos/os/mlos_mpump.o
 .debug_info    0x0014c560      0xbed ./mlos/os/mlos_que.o
 .debug_info    0x0014d14d     0xa4b1 ./mlos/os/mlos_rtimer.o
 .debug_info    0x001575fe     0xa514 ./mlos/os/mlos_task.o
 .debug_info    0x00161b12     0xa21e ./mllib/utp/ra6m4/utp_uart_driver.o
 .debug_info    0x0016bd30     0xa54b ./mllib/utp/pb.o
 .debug_info    0x0017627b     0x9ec1 ./mllib/utp/public.o
 .debug_info    0x0018013c     0xa610 ./mllib/utp/utp.o
 .debug_info    0x0018a74c     0xa999 ./mllib/upper/upper_ntp.o
 .debug_info    0x001950e5     0xa940 ./mllib/tool/tool.o
 .debug_info    0x0019fa25     0xa137 ./mllib/ntp/w5500/ra6m4/ntp_w5500_spi_driver.o
 .debug_info    0x001a9b5c     0xb49d ./mllib/ntp/w5500/ntp_w5500.o
 .debug_info    0x001b4ff9     0x9e04 ./mllib/ntp/ntp.o
 .debug_info    0x001bedfd     0xa23b ./mllib/ntp/ntp_usocket.o
 .debug_info    0x001c9038     0x9ffe ./mllib/mlflash/mcuflash/RA6M4/mcu_flash.o
 .debug_info    0x001d3036     0xaf90 ./mllib/iap/mc_ra6m4_iap_protocol/iap_tool_ntp.o
 .debug_info    0x001ddfc6     0x9d2e ./mllib/iap/mc_ra6m4_iap_protocol/iap_upper_ntp.o
 .debug_info    0x001e7cf4     0xaa30 ./mllib/iap/RA6M4/iap_mcu_port.o
 .debug_info    0x001f2724     0x9db4 ./mllib/iap/iap.o
 .debug_info    0x001fc4d8     0xa3d1 ./mllib/ctp/ra6m4/ctp_can_driver.o
 .debug_info    0x002068a9     0xc53e ./mllib/ctp/ctp.o
 .debug_info    0x00212de7     0xa31d ./app/u_app.o
 .debug_info    0x0021d104     0xa983 ./app/u_app_tool_debug.o

.debug_abbrev   0x00000000    0x11b03
 .debug_abbrev  0x00000000      0x6aa ./tray/box.o
 .debug_abbrev  0x000006aa      0x41b ./tray/entry.o
 .debug_abbrev  0x00000ac5      0x495 ./tray/flow.o
 .debug_abbrev  0x00000f5a      0x3e0 ./tray/func.o
 .debug_abbrev  0x0000133a      0x47e ./tray/log.o
 .debug_abbrev  0x000017b8      0x4aa ./tray/plc.o
 .debug_abbrev  0x00001c62      0x480 ./tray/timer.o
 .debug_abbrev  0x000020e2      0x336 ./tray/tray.o
 .debug_abbrev  0x00002418      0x772 ./tray/tray_upper.o
 .debug_abbrev  0x00002b8a      0x6eb ./tray/uart.o
 .debug_abbrev  0x00003275      0x341 ./src/hal_entry.o
 .debug_abbrev  0x000035b6      0x227 ./ra_gen/common_data.o
 .debug_abbrev  0x000037dd      0x35d ./ra_gen/hal_data.o
 .debug_abbrev  0x00003b3a      0x2e7 ./ra_gen/main.o
 .debug_abbrev  0x00003e21      0x1fb ./ra_gen/pin_data.o
 .debug_abbrev  0x0000401c      0x1f2 ./ra_gen/vector_data.o
 .debug_abbrev  0x0000420e      0x648 ./ra/fsp/src/r_spi/r_spi.o
 .debug_abbrev  0x00004856      0x61e ./ra/fsp/src/r_sci_uart/r_sci_uart.o
 .debug_abbrev  0x00004e74      0x4f1 ./ra/fsp/src/r_ioport/r_ioport.o
 .debug_abbrev  0x00005365      0x5d9 ./ra/fsp/src/r_gpt/r_gpt.o
 .debug_abbrev  0x0000593e      0x69b ./ra/fsp/src/r_flash_hp/r_flash_hp.o
 .debug_abbrev  0x00005fd9      0x4ee ./ra/fsp/src/r_dtc/r_dtc.o
 .debug_abbrev  0x000064c7      0x5e8 ./ra/fsp/src/r_can/r_can.o
 .debug_abbrev  0x00006aaf      0x3c4 ./ra/fsp/src/bsp/mcu/all/bsp_clocks.o
 .debug_abbrev  0x00006e73      0x293 ./ra/fsp/src/bsp/mcu/all/bsp_common.o
 .debug_abbrev  0x00007106      0x33e ./ra/fsp/src/bsp/mcu/all/bsp_group_irq.o
 .debug_abbrev  0x00007444      0x1c7 ./ra/fsp/src/bsp/mcu/all/bsp_io.o
 .debug_abbrev  0x0000760b      0x333 ./ra/fsp/src/bsp/mcu/all/bsp_irq.o
 .debug_abbrev  0x0000793e      0x369 ./ra/fsp/src/bsp/mcu/all/bsp_register_protection.o
 .debug_abbrev  0x00007ca7      0x1c9 ./ra/fsp/src/bsp/mcu/all/bsp_rom_registers.o
 .debug_abbrev  0x00007e70      0x24b ./ra/fsp/src/bsp/mcu/all/bsp_sbrk.o
 .debug_abbrev  0x000080bb      0x240 ./ra/fsp/src/bsp/cmsis/Device/RENESAS/Source/startup.o
 .debug_abbrev  0x000082fb      0x354 ./ra/fsp/src/bsp/cmsis/Device/RENESAS/Source/system.o
 .debug_abbrev  0x0000864f       0x97 ./public/u_function.o
 .debug_abbrev  0x000086e6      0x4c8 ./public/u_led.o
 .debug_abbrev  0x00008bae      0x44d ./public/u_setting.o
 .debug_abbrev  0x00008ffb      0x3b9 ./public/u_setting_tool_ntp.o
 .debug_abbrev  0x000093b4      0x4fe ./mlos/services/mlos_log.o
 .debug_abbrev  0x000098b2      0x660 ./mlos/services/mlos_shell.o
 .debug_abbrev  0x00009f12      0x44d ./mlos/port/RA6M4/mlos_port.o
 .debug_abbrev  0x0000a35f      0x36a ./mlos/os/mlos.o
 .debug_abbrev  0x0000a6c9      0x32a ./mlos/os/mlos_clock.o
 .debug_abbrev  0x0000a9f3      0x310 ./mlos/os/mlos_list.o
 .debug_abbrev  0x0000ad03      0x31a ./mlos/os/mlos_ltimer.o
 .debug_abbrev  0x0000b01d      0x3fe ./mlos/os/mlos_malloc.o
 .debug_abbrev  0x0000b41b      0x546 ./mlos/os/mlos_mpump.o
 .debug_abbrev  0x0000b961      0x27c ./mlos/os/mlos_que.o
 .debug_abbrev  0x0000bbdd      0x4dc ./mlos/os/mlos_rtimer.o
 .debug_abbrev  0x0000c0b9      0x4b2 ./mlos/os/mlos_task.o
 .debug_abbrev  0x0000c56b      0x3b5 ./mllib/utp/ra6m4/utp_uart_driver.o
 .debug_abbrev  0x0000c920      0x4f0 ./mllib/utp/pb.o
 .debug_abbrev  0x0000ce10      0x3ac ./mllib/utp/public.o
 .debug_abbrev  0x0000d1bc      0x515 ./mllib/utp/utp.o
 .debug_abbrev  0x0000d6d1      0x572 ./mllib/upper/upper_ntp.o
 .debug_abbrev  0x0000dc43      0x59d ./mllib/tool/tool.o
 .debug_abbrev  0x0000e1e0      0x480 ./mllib/ntp/w5500/ra6m4/ntp_w5500_spi_driver.o
 .debug_abbrev  0x0000e660      0x625 ./mllib/ntp/w5500/ntp_w5500.o
 .debug_abbrev  0x0000ec85      0x34b ./mllib/ntp/ntp.o
 .debug_abbrev  0x0000efd0      0x3d4 ./mllib/ntp/ntp_usocket.o
 .debug_abbrev  0x0000f3a4      0x44e ./mllib/mlflash/mcuflash/RA6M4/mcu_flash.o
 .debug_abbrev  0x0000f7f2      0x513 ./mllib/iap/mc_ra6m4_iap_protocol/iap_tool_ntp.o
 .debug_abbrev  0x0000fd05      0x308 ./mllib/iap/mc_ra6m4_iap_protocol/iap_upper_ntp.o
 .debug_abbrev  0x0001000d      0x3d4 ./mllib/iap/RA6M4/iap_mcu_port.o
 .debug_abbrev  0x000103e1      0x360 ./mllib/iap/iap.o
 .debug_abbrev  0x00010741      0x404 ./mllib/ctp/ra6m4/ctp_can_driver.o
 .debug_abbrev  0x00010b45      0x6ba ./mllib/ctp/ctp.o
 .debug_abbrev  0x000111ff      0x39b ./app/u_app.o
 .debug_abbrev  0x0001159a      0x569 ./app/u_app_tool_debug.o

.debug_loc      0x00000000    0x20c8e
 .debug_loc     0x00000000     0x2809 ./tray/box.o
 .debug_loc     0x00002809      0x5a5 ./tray/entry.o
 .debug_loc     0x00002dae      0x3d2 ./tray/flow.o
 .debug_loc     0x00003180      0x7ec ./tray/func.o
 .debug_loc     0x0000396c      0x178 ./tray/log.o
 .debug_loc     0x00003ae4      0x597 ./tray/plc.o
 .debug_loc     0x0000407b      0x377 ./tray/timer.o
 .debug_loc     0x000043f2     0x7db3 ./tray/tray_upper.o
 .debug_loc     0x0000c1a5     0x1cec ./tray/uart.o
 .debug_loc     0x0000de91       0x25 ./src/hal_entry.o
 .debug_loc     0x0000deb6     0x1c23 ./ra/fsp/src/r_spi/r_spi.o
 .debug_loc     0x0000fad9     0x15db ./ra/fsp/src/r_sci_uart/r_sci_uart.o
 .debug_loc     0x000110b4      0xfd1 ./ra/fsp/src/r_ioport/r_ioport.o
 .debug_loc     0x00012085      0xf78 ./ra/fsp/src/r_gpt/r_gpt.o
 .debug_loc     0x00012ffd     0x292e ./ra/fsp/src/r_flash_hp/r_flash_hp.o
 .debug_loc     0x0001592b      0x588 ./ra/fsp/src/r_dtc/r_dtc.o
 .debug_loc     0x00015eb3     0x11c1 ./ra/fsp/src/r_can/r_can.o
 .debug_loc     0x00017074      0x208 ./ra/fsp/src/bsp/mcu/all/bsp_clocks.o
 .debug_loc     0x0001727c       0x22 ./ra/fsp/src/bsp/mcu/all/bsp_common.o
 .debug_loc     0x0001729e       0xaa ./ra/fsp/src/bsp/mcu/all/bsp_group_irq.o
 .debug_loc     0x00017348      0x121 ./ra/fsp/src/bsp/mcu/all/bsp_irq.o
 .debug_loc     0x00017469      0x105 ./ra/fsp/src/bsp/mcu/all/bsp_register_protection.o
 .debug_loc     0x0001756e      0x11a ./ra/fsp/src/bsp/mcu/all/bsp_sbrk.o
 .debug_loc     0x00017688       0xa4 ./ra/fsp/src/bsp/cmsis/Device/RENESAS/Source/system.o
 .debug_loc     0x0001772c      0x106 ./public/u_function.o
 .debug_loc     0x00017832      0x27f ./public/u_led.o
 .debug_loc     0x00017ab1      0x2dc ./public/u_setting.o
 .debug_loc     0x00017d8d      0x4e8 ./public/u_setting_tool_ntp.o
 .debug_loc     0x00018275      0x345 ./mlos/services/mlos_log.o
 .debug_loc     0x000185ba      0xc60 ./mlos/services/mlos_shell.o
 .debug_loc     0x0001921a      0x213 ./mlos/port/RA6M4/mlos_port.o
 .debug_loc     0x0001942d       0xc5 ./mlos/os/mlos.o
 .debug_loc     0x000194f2      0x509 ./mlos/os/mlos_list.o
 .debug_loc     0x000199fb       0x15 ./mlos/os/mlos_ltimer.o
 .debug_loc     0x00019a10      0x1c0 ./mlos/os/mlos_malloc.o
 .debug_loc     0x00019bd0      0x6ce ./mlos/os/mlos_mpump.o
 .debug_loc     0x0001a29e      0x1ca ./mlos/os/mlos_que.o
 .debug_loc     0x0001a468      0x2a0 ./mlos/os/mlos_rtimer.o
 .debug_loc     0x0001a708      0x436 ./mlos/os/mlos_task.o
 .debug_loc     0x0001ab3e      0x17b ./mllib/utp/ra6m4/utp_uart_driver.o
 .debug_loc     0x0001acb9      0x2cb ./mllib/utp/pb.o
 .debug_loc     0x0001af84      0x267 ./mllib/utp/public.o
 .debug_loc     0x0001b1eb      0x560 ./mllib/utp/utp.o
 .debug_loc     0x0001b74b      0x4fb ./mllib/upper/upper_ntp.o
 .debug_loc     0x0001bc46      0x863 ./mllib/tool/tool.o
 .debug_loc     0x0001c4a9      0x231 ./mllib/ntp/w5500/ra6m4/ntp_w5500_spi_driver.o
 .debug_loc     0x0001c6da     0x11e7 ./mllib/ntp/w5500/ntp_w5500.o
 .debug_loc     0x0001d8c1      0x10d ./mllib/ntp/ntp.o
 .debug_loc     0x0001d9ce       0xdd ./mllib/ntp/ntp_usocket.o
 .debug_loc     0x0001daab      0x2d2 ./mllib/mlflash/mcuflash/RA6M4/mcu_flash.o
 .debug_loc     0x0001dd7d     0x1133 ./mllib/iap/mc_ra6m4_iap_protocol/iap_tool_ntp.o
 .debug_loc     0x0001eeb0       0x25 ./mllib/iap/mc_ra6m4_iap_protocol/iap_upper_ntp.o
 .debug_loc     0x0001eed5      0x46a ./mllib/iap/RA6M4/iap_mcu_port.o
 .debug_loc     0x0001f33f       0x30 ./mllib/iap/iap.o
 .debug_loc     0x0001f36f      0x2db ./mllib/ctp/ra6m4/ctp_can_driver.o
 .debug_loc     0x0001f64a     0x1058 ./mllib/ctp/ctp.o
 .debug_loc     0x000206a2      0x5ec ./app/u_app_tool_debug.o

.debug_aranges  0x00000000     0x17c0
 .debug_aranges
                0x00000000      0x150 ./tray/box.o
 .debug_aranges
                0x00000150       0x28 ./tray/entry.o
 .debug_aranges
                0x00000178       0x50 ./tray/flow.o
 .debug_aranges
                0x000001c8       0x58 ./tray/func.o
 .debug_aranges
                0x00000220       0x38 ./tray/log.o
 .debug_aranges
                0x00000258       0x60 ./tray/plc.o
 .debug_aranges
                0x000002b8       0x40 ./tray/timer.o
 .debug_aranges
                0x000002f8       0x20 ./tray/tray.o
 .debug_aranges
                0x00000318      0x2c8 ./tray/tray_upper.o
 .debug_aranges
                0x000005e0      0x100 ./tray/uart.o
 .debug_aranges
                0x000006e0       0x28 ./src/hal_entry.o
 .debug_aranges
                0x00000708       0x20 ./ra_gen/common_data.o
 .debug_aranges
                0x00000728       0x20 ./ra_gen/hal_data.o
 .debug_aranges
                0x00000748       0x20 ./ra_gen/main.o
 .debug_aranges
                0x00000768       0x18 ./ra_gen/pin_data.o
 .debug_aranges
                0x00000780       0x18 ./ra_gen/vector_data.o
 .debug_aranges
                0x00000798       0x80 ./ra/fsp/src/r_spi/r_spi.o
 .debug_aranges
                0x00000818       0x88 ./ra/fsp/src/r_sci_uart/r_sci_uart.o
 .debug_aranges
                0x000008a0       0x98 ./ra/fsp/src/r_ioport/r_ioport.o
 .debug_aranges
                0x00000938       0xd0 ./ra/fsp/src/r_gpt/r_gpt.o
 .debug_aranges
                0x00000a08      0x138 ./ra/fsp/src/r_flash_hp/r_flash_hp.o
 .debug_aranges
                0x00000b40       0x68 ./ra/fsp/src/r_dtc/r_dtc.o
 .debug_aranges
                0x00000ba8       0x78 ./ra/fsp/src/r_can/r_can.o
 .debug_aranges
                0x00000c20       0x48 ./ra/fsp/src/bsp/mcu/all/bsp_clocks.o
 .debug_aranges
                0x00000c68       0x30 ./ra/fsp/src/bsp/mcu/all/bsp_common.o
 .debug_aranges
                0x00000c98       0x28 ./ra/fsp/src/bsp/mcu/all/bsp_group_irq.o
 .debug_aranges
                0x00000cc0       0x18 ./ra/fsp/src/bsp/mcu/all/bsp_io.o
 .debug_aranges
                0x00000cd8       0x20 ./ra/fsp/src/bsp/mcu/all/bsp_irq.o
 .debug_aranges
                0x00000cf8       0x28 ./ra/fsp/src/bsp/mcu/all/bsp_register_protection.o
 .debug_aranges
                0x00000d20       0x18 ./ra/fsp/src/bsp/mcu/all/bsp_rom_registers.o
 .debug_aranges
                0x00000d38       0x20 ./ra/fsp/src/bsp/mcu/all/bsp_sbrk.o
 .debug_aranges
                0x00000d58       0x28 ./ra/fsp/src/bsp/cmsis/Device/RENESAS/Source/startup.o
 .debug_aranges
                0x00000d80       0x28 ./ra/fsp/src/bsp/cmsis/Device/RENESAS/Source/system.o
 .debug_aranges
                0x00000da8       0x20 ./public/u_function.o
 .debug_aranges
                0x00000dc8       0x68 ./public/u_led.o
 .debug_aranges
                0x00000e30       0x38 ./public/u_setting.o
 .debug_aranges
                0x00000e68       0x30 ./public/u_setting_tool_ntp.o
 .debug_aranges
                0x00000e98       0x48 ./mlos/services/mlos_log.o
 .debug_aranges
                0x00000ee0       0x98 ./mlos/services/mlos_shell.o
 .debug_aranges
                0x00000f78       0x48 ./mlos/port/RA6M4/mlos_port.o
 .debug_aranges
                0x00000fc0       0x38 ./mlos/os/mlos.o
 .debug_aranges
                0x00000ff8       0x28 ./mlos/os/mlos_clock.o
 .debug_aranges
                0x00001020       0x58 ./mlos/os/mlos_list.o
 .debug_aranges
                0x00001078       0x20 ./mlos/os/mlos_ltimer.o
 .debug_aranges
                0x00001098       0x40 ./mlos/os/mlos_malloc.o
 .debug_aranges
                0x000010d8       0x58 ./mlos/os/mlos_mpump.o
 .debug_aranges
                0x00001130       0x40 ./mlos/os/mlos_que.o
 .debug_aranges
                0x00001170       0x50 ./mlos/os/mlos_rtimer.o
 .debug_aranges
                0x000011c0       0x58 ./mlos/os/mlos_task.o
 .debug_aranges
                0x00001218       0x38 ./mllib/utp/ra6m4/utp_uart_driver.o
 .debug_aranges
                0x00001250       0x40 ./mllib/utp/pb.o
 .debug_aranges
                0x00001290       0x38 ./mllib/utp/public.o
 .debug_aranges
                0x000012c8       0x58 ./mllib/utp/utp.o
 .debug_aranges
                0x00001320       0x50 ./mllib/upper/upper_ntp.o
 .debug_aranges
                0x00001370       0x58 ./mllib/tool/tool.o
 .debug_aranges
                0x000013c8       0x60 ./mllib/ntp/w5500/ra6m4/ntp_w5500_spi_driver.o
 .debug_aranges
                0x00001428       0xa8 ./mllib/ntp/w5500/ntp_w5500.o
 .debug_aranges
                0x000014d0       0x20 ./mllib/ntp/ntp.o
 .debug_aranges
                0x000014f0       0x20 ./mllib/ntp/ntp_usocket.o
 .debug_aranges
                0x00001510       0x40 ./mllib/mlflash/mcuflash/RA6M4/mcu_flash.o
 .debug_aranges
                0x00001550       0xb0 ./mllib/iap/mc_ra6m4_iap_protocol/iap_tool_ntp.o
 .debug_aranges
                0x00001600       0x28 ./mllib/iap/mc_ra6m4_iap_protocol/iap_upper_ntp.o
 .debug_aranges
                0x00001628       0x28 ./mllib/iap/RA6M4/iap_mcu_port.o
 .debug_aranges
                0x00001650       0x28 ./mllib/iap/iap.o
 .debug_aranges
                0x00001678       0x30 ./mllib/ctp/ra6m4/ctp_can_driver.o
 .debug_aranges
                0x000016a8       0x98 ./mllib/ctp/ctp.o
 .debug_aranges
                0x00001740       0x20 ./app/u_app.o
 .debug_aranges
                0x00001760       0x60 ./app/u_app_tool_debug.o

.debug_ranges   0x00000000     0x4ed8
 .debug_ranges  0x00000000      0x3c8 ./tray/box.o
 .debug_ranges  0x000003c8       0xb0 ./tray/entry.o
 .debug_ranges  0x00000478       0x90 ./tray/flow.o
 .debug_ranges  0x00000508       0x60 ./tray/func.o
 .debug_ranges  0x00000568       0x28 ./tray/log.o
 .debug_ranges  0x00000590       0x50 ./tray/plc.o
 .debug_ranges  0x000005e0       0x70 ./tray/timer.o
 .debug_ranges  0x00000650       0x10 ./tray/tray.o
 .debug_ranges  0x00000660      0xc40 ./tray/tray_upper.o
 .debug_ranges  0x000012a0      0x298 ./tray/uart.o
 .debug_ranges  0x00001538       0x30 ./src/hal_entry.o
 .debug_ranges  0x00001568       0x10 ./ra_gen/common_data.o
 .debug_ranges  0x00001578       0x10 ./ra_gen/hal_data.o
 .debug_ranges  0x00001588       0x10 ./ra_gen/main.o
 .debug_ranges  0x00001598      0x618 ./ra/fsp/src/r_spi/r_spi.o
 .debug_ranges  0x00001bb0      0x778 ./ra/fsp/src/r_sci_uart/r_sci_uart.o
 .debug_ranges  0x00002328      0x148 ./ra/fsp/src/r_ioport/r_ioport.o
 .debug_ranges  0x00002470      0x3c0 ./ra/fsp/src/r_gpt/r_gpt.o
 .debug_ranges  0x00002830      0x6d0 ./ra/fsp/src/r_flash_hp/r_flash_hp.o
 .debug_ranges  0x00002f00       0xf0 ./ra/fsp/src/r_dtc/r_dtc.o
 .debug_ranges  0x00002ff0      0x548 ./ra/fsp/src/r_can/r_can.o
 .debug_ranges  0x00003538      0x118 ./ra/fsp/src/bsp/mcu/all/bsp_clocks.o
 .debug_ranges  0x00003650       0x20 ./ra/fsp/src/bsp/mcu/all/bsp_common.o
 .debug_ranges  0x00003670       0x50 ./ra/fsp/src/bsp/mcu/all/bsp_group_irq.o
 .debug_ranges  0x000036c0       0x70 ./ra/fsp/src/bsp/mcu/all/bsp_irq.o
 .debug_ranges  0x00003730       0x48 ./ra/fsp/src/bsp/mcu/all/bsp_register_protection.o
 .debug_ranges  0x00003778       0x10 ./ra/fsp/src/bsp/mcu/all/bsp_sbrk.o
 .debug_ranges  0x00003788       0x18 ./ra/fsp/src/bsp/cmsis/Device/RENESAS/Source/startup.o
 .debug_ranges  0x000037a0       0x18 ./ra/fsp/src/bsp/cmsis/Device/RENESAS/Source/system.o
 .debug_ranges  0x000037b8       0x10 ./public/u_function.o
 .debug_ranges  0x000037c8      0x158 ./public/u_led.o
 .debug_ranges  0x00003920       0x50 ./public/u_setting.o
 .debug_ranges  0x00003970       0x20 ./public/u_setting_tool_ntp.o
 .debug_ranges  0x00003990       0xc8 ./mlos/services/mlos_log.o
 .debug_ranges  0x00003a58      0x160 ./mlos/services/mlos_shell.o
 .debug_ranges  0x00003bb8       0x98 ./mlos/port/RA6M4/mlos_port.o
 .debug_ranges  0x00003c50       0x28 ./mlos/os/mlos.o
 .debug_ranges  0x00003c78       0x18 ./mlos/os/mlos_clock.o
 .debug_ranges  0x00003c90       0x48 ./mlos/os/mlos_list.o
 .debug_ranges  0x00003cd8       0x10 ./mlos/os/mlos_ltimer.o
 .debug_ranges  0x00003ce8       0x30 ./mlos/os/mlos_malloc.o
 .debug_ranges  0x00003d18       0xb8 ./mlos/os/mlos_mpump.o
 .debug_ranges  0x00003dd0       0x30 ./mlos/os/mlos_que.o
 .debug_ranges  0x00003e00       0xb0 ./mlos/os/mlos_rtimer.o
 .debug_ranges  0x00003eb0       0x80 ./mlos/os/mlos_task.o
 .debug_ranges  0x00003f30       0x28 ./mllib/utp/ra6m4/utp_uart_driver.o
 .debug_ranges  0x00003f58       0x90 ./mllib/utp/pb.o
 .debug_ranges  0x00003fe8       0x28 ./mllib/utp/public.o
 .debug_ranges  0x00004010      0x100 ./mllib/utp/utp.o
 .debug_ranges  0x00004110       0xe0 ./mllib/upper/upper_ntp.o
 .debug_ranges  0x000041f0       0xd0 ./mllib/tool/tool.o
 .debug_ranges  0x000042c0       0xc0 ./mllib/ntp/w5500/ra6m4/ntp_w5500_spi_driver.o
 .debug_ranges  0x00004380      0x4c0 ./mllib/ntp/w5500/ntp_w5500.o
 .debug_ranges  0x00004840       0x10 ./mllib/ntp/ntp.o
 .debug_ranges  0x00004850       0x28 ./mllib/ntp/ntp_usocket.o
 .debug_ranges  0x00004878       0x68 ./mllib/mlflash/mcuflash/RA6M4/mcu_flash.o
 .debug_ranges  0x000048e0      0x138 ./mllib/iap/mc_ra6m4_iap_protocol/iap_tool_ntp.o
 .debug_ranges  0x00004a18       0x18 ./mllib/iap/mc_ra6m4_iap_protocol/iap_upper_ntp.o
 .debug_ranges  0x00004a30       0x18 ./mllib/iap/RA6M4/iap_mcu_port.o
 .debug_ranges  0x00004a48       0x18 ./mllib/iap/iap.o
 .debug_ranges  0x00004a60       0x38 ./mllib/ctp/ra6m4/ctp_can_driver.o
 .debug_ranges  0x00004a98      0x320 ./mllib/ctp/ctp.o
 .debug_ranges  0x00004db8       0x28 ./app/u_app.o
 .debug_ranges  0x00004de0       0xf8 ./app/u_app_tool_debug.o

.debug_line     0x00000000    0x2cac5
 .debug_line    0x00000000     0x220b ./tray/box.o
 .debug_line    0x0000220b     0x11d3 ./tray/entry.o
 .debug_line    0x000033de      0x9e1 ./tray/flow.o
 .debug_line    0x00003dbf      0x72b ./tray/func.o
 .debug_line    0x000044ea      0x79f ./tray/log.o
 .debug_line    0x00004c89      0xf03 ./tray/plc.o
 .debug_line    0x00005b8c      0x899 ./tray/timer.o
 .debug_line    0x00006425      0x578 ./tray/tray.o
 .debug_line    0x0000699d     0x47de ./tray/tray_upper.o
 .debug_line    0x0000b17b     0x1672 ./tray/uart.o
 .debug_line    0x0000c7ed      0x5dc ./src/hal_entry.o
 .debug_line    0x0000cdc9      0x3b0 ./ra_gen/common_data.o
 .debug_line    0x0000d179      0x4ce ./ra_gen/hal_data.o
 .debug_line    0x0000d647      0x4d4 ./ra_gen/main.o
 .debug_line    0x0000db1b      0x2d6 ./ra_gen/pin_data.o
 .debug_line    0x0000ddf1      0x327 ./ra_gen/vector_data.o
 .debug_line    0x0000e118     0x13f3 ./ra/fsp/src/r_spi/r_spi.o
 .debug_line    0x0000f50b     0x160c ./ra/fsp/src/r_sci_uart/r_sci_uart.o
 .debug_line    0x00010b17      0xbe8 ./ra/fsp/src/r_ioport/r_ioport.o
 .debug_line    0x000116ff      0xfb2 ./ra/fsp/src/r_gpt/r_gpt.o
 .debug_line    0x000126b1     0x1f20 ./ra/fsp/src/r_flash_hp/r_flash_hp.o
 .debug_line    0x000145d1      0x883 ./ra/fsp/src/r_dtc/r_dtc.o
 .debug_line    0x00014e54     0x1516 ./ra/fsp/src/r_can/r_can.o
 .debug_line    0x0001636a      0x849 ./ra/fsp/src/bsp/mcu/all/bsp_clocks.o
 .debug_line    0x00016bb3      0x3e2 ./ra/fsp/src/bsp/mcu/all/bsp_common.o
 .debug_line    0x00016f95      0x3b7 ./ra/fsp/src/bsp/mcu/all/bsp_group_irq.o
 .debug_line    0x0001734c      0x2a9 ./ra/fsp/src/bsp/mcu/all/bsp_io.o
 .debug_line    0x000175f5      0x475 ./ra/fsp/src/bsp/mcu/all/bsp_irq.o
 .debug_line    0x00017a6a      0x434 ./ra/fsp/src/bsp/mcu/all/bsp_register_protection.o
 .debug_line    0x00017e9e      0x2b4 ./ra/fsp/src/bsp/mcu/all/bsp_rom_registers.o
 .debug_line    0x00018152      0x345 ./ra/fsp/src/bsp/mcu/all/bsp_sbrk.o
 .debug_line    0x00018497      0x318 ./ra/fsp/src/bsp/cmsis/Device/RENESAS/Source/startup.o
 .debug_line    0x000187af      0x4ad ./ra/fsp/src/bsp/cmsis/Device/RENESAS/Source/system.o
 .debug_line    0x00018c5c       0xf5 ./public/u_function.o
 .debug_line    0x00018d51      0xaa8 ./public/u_led.o
 .debug_line    0x000197f9      0x7f0 ./public/u_setting.o
 .debug_line    0x00019fe9      0x812 ./public/u_setting_tool_ntp.o
 .debug_line    0x0001a7fb      0x995 ./mlos/services/mlos_log.o
 .debug_line    0x0001b190      0xf26 ./mlos/services/mlos_shell.o
 .debug_line    0x0001c0b6      0x779 ./mlos/port/RA6M4/mlos_port.o
 .debug_line    0x0001c82f      0x647 ./mlos/os/mlos.o
 .debug_line    0x0001ce76      0x54f ./mlos/os/mlos_clock.o
 .debug_line    0x0001d3c5      0x743 ./mlos/os/mlos_list.o
 .debug_line    0x0001db08      0x57e ./mlos/os/mlos_ltimer.o
 .debug_line    0x0001e086      0x6fc ./mlos/os/mlos_malloc.o
 .debug_line    0x0001e782      0x904 ./mlos/os/mlos_mpump.o
 .debug_line    0x0001f086      0x3a8 ./mlos/os/mlos_que.o
 .debug_line    0x0001f42e      0x92e ./mlos/os/mlos_rtimer.o
 .debug_line    0x0001fd5c      0xa36 ./mlos/os/mlos_task.o
 .debug_line    0x00020792      0x7b3 ./mllib/utp/ra6m4/utp_uart_driver.o
 .debug_line    0x00020f45      0x85a ./mllib/utp/pb.o
 .debug_line    0x0002179f      0x625 ./mllib/utp/public.o
 .debug_line    0x00021dc4      0xa92 ./mllib/utp/utp.o
 .debug_line    0x00022856      0xb6b ./mllib/upper/upper_ntp.o
 .debug_line    0x000233c1      0xba1 ./mllib/tool/tool.o
 .debug_line    0x00023f62      0xc29 ./mllib/ntp/w5500/ra6m4/ntp_w5500_spi_driver.o
 .debug_line    0x00024b8b     0x19d5 ./mllib/ntp/w5500/ntp_w5500.o
 .debug_line    0x00026560      0x5d3 ./mllib/ntp/ntp.o
 .debug_line    0x00026b33      0x695 ./mllib/ntp/ntp_usocket.o
 .debug_line    0x000271c8      0x76e ./mllib/mlflash/mcuflash/RA6M4/mcu_flash.o
 .debug_line    0x00027936      0xe5a ./mllib/iap/mc_ra6m4_iap_protocol/iap_tool_ntp.o
 .debug_line    0x00028790      0x58e ./mllib/iap/mc_ra6m4_iap_protocol/iap_upper_ntp.o
 .debug_line    0x00028d1e      0xbc6 ./mllib/iap/RA6M4/iap_mcu_port.o
 .debug_line    0x000298e4      0x645 ./mllib/iap/iap.o
 .debug_line    0x00029f29      0x7ba ./mllib/ctp/ra6m4/ctp_can_driver.o
 .debug_line    0x0002a6e3     0x1122 ./mllib/ctp/ctp.o
 .debug_line    0x0002b805      0x7be ./app/u_app.o
 .debug_line    0x0002bfc3      0xb02 ./app/u_app_tool_debug.o

.debug_str      0x00000000    0x14c8e
 .debug_str     0x00000000     0x85b3 ./tray/box.o
                               0x8a26 (size before relaxing)
 .debug_str     0x000085b3      0x403 ./tray/entry.o
                               0x870e (size before relaxing)
 .debug_str     0x000089b6      0x16a ./tray/flow.o
                               0x8452 (size before relaxing)
 .debug_str     0x00008b20       0xdb ./tray/func.o
                                0x6ed (size before relaxing)
 .debug_str     0x00008bfb       0x81 ./tray/log.o
                               0x8361 (size before relaxing)
 .debug_str     0x00008c7c      0x1ae ./tray/plc.o
                               0x834f (size before relaxing)
 .debug_str     0x00008e2a       0x7f ./tray/timer.o
                               0x85a5 (size before relaxing)
 .debug_str     0x00008ea9       0x19 ./tray/tray.o
                               0x802f (size before relaxing)
 .debug_str     0x00008ec2      0xfec ./tray/tray_upper.o
                               0x9842 (size before relaxing)
 .debug_str     0x00009eae      0x63a ./tray/uart.o
                               0x8af2 (size before relaxing)
 .debug_str     0x0000a4e8       0xdd ./src/hal_entry.o
                               0x78a9 (size before relaxing)
 .debug_str     0x0000a5c5       0x26 ./ra_gen/common_data.o
                               0x310a (size before relaxing)
 .debug_str     0x0000a5eb     0x15d6 ./ra_gen/hal_data.o
                               0x8d67 (size before relaxing)
 .debug_str     0x0000bbc1       0x11 ./ra_gen/main.o
                               0x7709 (size before relaxing)
 .debug_str     0x0000bbd2      0x4ea ./ra_gen/pin_data.o
                               0x1be0 (size before relaxing)
 .debug_str     0x0000c0bc     0x199a ./ra_gen/vector_data.o
                               0x1f64 (size before relaxing)
 .debug_str     0x0000da56     0x1dd4 ./ra/fsp/src/r_spi/r_spi.o
                               0x4d29 (size before relaxing)
 .debug_str     0x0000f82a      0x2e5 ./ra/fsp/src/r_sci_uart/r_sci_uart.o
                               0x6045 (size before relaxing)
 .debug_str     0x0000fb0f      0x891 ./ra/fsp/src/r_ioport/r_ioport.o
                               0x50f6 (size before relaxing)
 .debug_str     0x000103a0      0x3ed ./ra/fsp/src/r_gpt/r_gpt.o
                               0x5aac (size before relaxing)
 .debug_str     0x0001078d      0x8d8 ./ra/fsp/src/r_flash_hp/r_flash_hp.o
                               0x4886 (size before relaxing)
 .debug_str     0x00011065      0x1e0 ./ra/fsp/src/r_dtc/r_dtc.o
                               0x3d89 (size before relaxing)
 .debug_str     0x00011245      0x392 ./ra/fsp/src/r_can/r_can.o
                               0x360a (size before relaxing)
 .debug_str     0x000115d7      0x47f ./ra/fsp/src/bsp/mcu/all/bsp_clocks.o
                               0x2057 (size before relaxing)
 .debug_str     0x00011a56       0xdf ./ra/fsp/src/bsp/mcu/all/bsp_common.o
                               0x1d4d (size before relaxing)
 .debug_str     0x00011b35      0x1de ./ra/fsp/src/bsp/mcu/all/bsp_group_irq.o
                               0x223c (size before relaxing)
 .debug_str     0x00011d13       0x23 ./ra/fsp/src/bsp/mcu/all/bsp_io.o
                                0x5ed (size before relaxing)
 .debug_str     0x00011d36      0x2d9 ./ra/fsp/src/bsp/mcu/all/bsp_irq.o
                               0x271b (size before relaxing)
 .debug_str     0x0001200f       0x88 ./ra/fsp/src/bsp/mcu/all/bsp_register_protection.o
                               0x1b64 (size before relaxing)
 .debug_str     0x00012097      0x15d ./ra/fsp/src/bsp/mcu/all/bsp_rom_registers.o
                                0x727 (size before relaxing)
 .debug_str     0x000121f4       0xad ./ra/fsp/src/bsp/mcu/all/bsp_sbrk.o
                                0x67d (size before relaxing)
 .debug_str     0x000122a1       0x82 ./ra/fsp/src/bsp/cmsis/Device/RENESAS/Source/startup.o
                                0x663 (size before relaxing)
 .debug_str     0x00012323      0x1b8 ./ra/fsp/src/bsp/cmsis/Device/RENESAS/Source/system.o
                                0xa0c (size before relaxing)
 .debug_str     0x000124db       0x1d ./public/u_function.o
                                0x188 (size before relaxing)
 .debug_str     0x000124f8      0x1b2 ./public/u_led.o
                               0x7acd (size before relaxing)
 .debug_str     0x000126aa      0x145 ./public/u_setting.o
                               0x7939 (size before relaxing)
 .debug_str     0x000127ef      0x25b ./public/u_setting_tool_ntp.o
                               0x7af4 (size before relaxing)
 .debug_str     0x00012a4a      0x23a ./mlos/services/mlos_log.o
                               0x7bda (size before relaxing)
 .debug_str     0x00012c84      0x2f0 ./mlos/services/mlos_shell.o
                               0x7dca (size before relaxing)
 .debug_str     0x00012f74       0xb2 ./mlos/port/RA6M4/mlos_port.o
                               0x78b1 (size before relaxing)
 .debug_str     0x00013026       0x7d ./mlos/os/mlos.o
                               0x7880 (size before relaxing)
 .debug_str     0x000130a3       0x3a ./mlos/os/mlos_clock.o
                               0x779e (size before relaxing)
 .debug_str     0x000130dd       0xfc ./mlos/os/mlos_list.o
                                0x7a5 (size before relaxing)
 .debug_str     0x000131d9       0x19 ./mlos/os/mlos_ltimer.o
                               0x7845 (size before relaxing)
 .debug_str     0x000131f2       0x4d ./mlos/os/mlos_malloc.o
                               0x79a0 (size before relaxing)
 .debug_str     0x0001323f      0x17d ./mlos/os/mlos_mpump.o
                               0x7aa1 (size before relaxing)
 .debug_str     0x000133bc       0xab ./mlos/os/mlos_que.o
                                0x677 (size before relaxing)
 .debug_str     0x00013467      0x136 ./mlos/os/mlos_rtimer.o
                               0x7c42 (size before relaxing)
 .debug_str     0x0001359d      0x14c ./mlos/os/mlos_task.o
                               0x7c41 (size before relaxing)
 .debug_str     0x000136e9       0x70 ./mllib/utp/ra6m4/utp_uart_driver.o
                               0x7a71 (size before relaxing)
 .debug_str     0x00013759      0x25d ./mllib/utp/pb.o
                               0x7c00 (size before relaxing)
 .debug_str     0x000139b6       0x8c ./mllib/utp/public.o
                               0x7888 (size before relaxing)
 .debug_str     0x00013a42       0x88 ./mllib/utp/utp.o
                               0x7b69 (size before relaxing)
 .debug_str     0x00013aca      0x1ce ./mllib/upper/upper_ntp.o
                               0x7f40 (size before relaxing)
 .debug_str     0x00013c98       0xa3 ./mllib/tool/tool.o
                               0x7ed0 (size before relaxing)
 .debug_str     0x00013d3b       0xe2 ./mllib/ntp/w5500/ra6m4/ntp_w5500_spi_driver.o
                               0x7908 (size before relaxing)
 .debug_str     0x00013e1d      0x2bf ./mllib/ntp/w5500/ntp_w5500.o
                               0x7def (size before relaxing)
 .debug_str     0x000140dc       0x4e ./mllib/ntp/ntp.o
                               0x7843 (size before relaxing)
 .debug_str     0x0001412a       0x41 ./mllib/ntp/ntp_usocket.o
                               0x7b43 (size before relaxing)
 .debug_str     0x0001416b       0xac ./mllib/mlflash/mcuflash/RA6M4/mcu_flash.o
                               0x7930 (size before relaxing)
 .debug_str     0x00014217      0x413 ./mllib/iap/mc_ra6m4_iap_protocol/iap_tool_ntp.o
                               0x7e0c (size before relaxing)
 .debug_str     0x0001462a       0x56 ./mllib/iap/mc_ra6m4_iap_protocol/iap_upper_ntp.o
                               0x783d (size before relaxing)
 .debug_str     0x00014680       0x6a ./mllib/iap/RA6M4/iap_mcu_port.o
                               0x78e2 (size before relaxing)
 .debug_str     0x000146ea       0x35 ./mllib/iap/iap.o
                               0x786c (size before relaxing)
 .debug_str     0x0001471f       0xf4 ./mllib/ctp/ra6m4/ctp_can_driver.o
                               0x7a30 (size before relaxing)
 .debug_str     0x00014813      0x2ef ./mllib/ctp/ctp.o
                               0x88f8 (size before relaxing)
 .debug_str     0x00014b02       0x2a ./app/u_app.o
                               0x7b56 (size before relaxing)
 .debug_str     0x00014b2c      0x162 ./app/u_app_tool_debug.o
                               0x7e4d (size before relaxing)

.debug_frame    0x00000000     0x4d74
 .debug_frame   0x00000000      0x55c ./tray/box.o
 .debug_frame   0x0000055c       0x60 ./tray/entry.o
 .debug_frame   0x000005bc       0xbc ./tray/flow.o
 .debug_frame   0x00000678       0xf0 ./tray/func.o
 .debug_frame   0x00000768       0xac ./tray/log.o
 .debug_frame   0x00000814      0x14c ./tray/plc.o
 .debug_frame   0x00000960       0xa0 ./tray/timer.o
 .debug_frame   0x00000a00       0x20 ./tray/tray.o
 .debug_frame   0x00000a20      0xc7c ./tray/tray_upper.o
 .debug_frame   0x0000169c      0x450 ./tray/uart.o
 .debug_frame   0x00001aec       0x3c ./src/hal_entry.o
 .debug_frame   0x00001b28       0x20 ./ra_gen/common_data.o
 .debug_frame   0x00001b48       0x20 ./ra_gen/hal_data.o
 .debug_frame   0x00001b68       0x28 ./ra_gen/main.o
 .debug_frame   0x00001b90      0x1a8 ./ra/fsp/src/r_spi/r_spi.o
 .debug_frame   0x00001d38      0x1d4 ./ra/fsp/src/r_sci_uart/r_sci_uart.o
 .debug_frame   0x00001f0c      0x170 ./ra/fsp/src/r_ioport/r_ioport.o
 .debug_frame   0x0000207c      0x21c ./ra/fsp/src/r_gpt/r_gpt.o
 .debug_frame   0x00002298      0x4c8 ./ra/fsp/src/r_flash_hp/r_flash_hp.o
 .debug_frame   0x00002760      0x118 ./ra/fsp/src/r_dtc/r_dtc.o
 .debug_frame   0x00002878      0x198 ./ra/fsp/src/r_can/r_can.o
 .debug_frame   0x00002a10       0xb4 ./ra/fsp/src/bsp/mcu/all/bsp_clocks.o
 .debug_frame   0x00002ac4       0x40 ./ra/fsp/src/bsp/mcu/all/bsp_common.o
 .debug_frame   0x00002b04       0x3c ./ra/fsp/src/bsp/mcu/all/bsp_group_irq.o
 .debug_frame   0x00002b40       0x34 ./ra/fsp/src/bsp/mcu/all/bsp_irq.o
 .debug_frame   0x00002b74       0x48 ./ra/fsp/src/bsp/mcu/all/bsp_register_protection.o
 .debug_frame   0x00002bbc       0x28 ./ra/fsp/src/bsp/mcu/all/bsp_sbrk.o
 .debug_frame   0x00002be4       0x38 ./ra/fsp/src/bsp/cmsis/Device/RENESAS/Source/startup.o
 .debug_frame   0x00002c1c       0x44 ./ra/fsp/src/bsp/cmsis/Device/RENESAS/Source/system.o
 .debug_frame   0x00002c60       0x2c ./public/u_function.o
 .debug_frame   0x00002c8c      0x110 ./public/u_led.o
 .debug_frame   0x00002d9c       0xa8 ./public/u_setting.o
 .debug_frame   0x00002e44       0x8c ./public/u_setting_tool_ntp.o
 .debug_frame   0x00002ed0       0xe0 ./mlos/services/mlos_log.o
 .debug_frame   0x00002fb0      0x1e0 ./mlos/services/mlos_shell.o
 .debug_frame   0x00003190       0xb4 ./mlos/port/RA6M4/mlos_port.o
 .debug_frame   0x00003244       0x5c ./mlos/os/mlos.o
 .debug_frame   0x000032a0       0x30 ./mlos/os/mlos_clock.o
 .debug_frame   0x000032d0      0x108 ./mlos/os/mlos_list.o
 .debug_frame   0x000033d8       0x28 ./mlos/os/mlos_ltimer.o
 .debug_frame   0x00003400       0x90 ./mlos/os/mlos_malloc.o
 .debug_frame   0x00003490      0x100 ./mlos/os/mlos_mpump.o
 .debug_frame   0x00003590       0x80 ./mlos/os/mlos_que.o
 .debug_frame   0x00003610       0xf0 ./mlos/os/mlos_rtimer.o
 .debug_frame   0x00003700       0xec ./mlos/os/mlos_task.o
 .debug_frame   0x000037ec       0x90 ./mllib/utp/ra6m4/utp_uart_driver.o
 .debug_frame   0x0000387c       0xa4 ./mllib/utp/pb.o
 .debug_frame   0x00003920       0x70 ./mllib/utp/public.o
 .debug_frame   0x00003990      0x108 ./mllib/utp/utp.o
 .debug_frame   0x00003a98       0xf0 ./mllib/upper/upper_ntp.o
 .debug_frame   0x00003b88      0x10c ./mllib/tool/tool.o
 .debug_frame   0x00003c94       0xd8 ./mllib/ntp/w5500/ra6m4/ntp_w5500_spi_driver.o
 .debug_frame   0x00003d6c      0x218 ./mllib/ntp/w5500/ntp_w5500.o
 .debug_frame   0x00003f84       0x3c ./mllib/ntp/ntp.o
 .debug_frame   0x00003fc0       0x38 ./mllib/ntp/ntp_usocket.o
 .debug_frame   0x00003ff8       0x80 ./mllib/mlflash/mcuflash/RA6M4/mcu_flash.o
 .debug_frame   0x00004078      0x268 ./mllib/iap/mc_ra6m4_iap_protocol/iap_tool_ntp.o
 .debug_frame   0x000042e0       0x30 ./mllib/iap/mc_ra6m4_iap_protocol/iap_upper_ntp.o
 .debug_frame   0x00004310       0x30 ./mllib/iap/RA6M4/iap_mcu_port.o
 .debug_frame   0x00004340       0x44 ./mllib/iap/iap.o
 .debug_frame   0x00004384       0x6c ./mllib/ctp/ra6m4/ctp_can_driver.o
 .debug_frame   0x000043f0      0x1d4 ./mllib/ctp/ctp.o
 .debug_frame   0x000045c4       0x28 ./app/u_app.o
 .debug_frame   0x000045ec      0x108 ./app/u_app_tool_debug.o
 .debug_frame   0x000046f4       0x20 c:/renesas/ra/e2studio_v2021-04_fsp_v3.0.0/toolchains/gcc_arm/9_2020q2/bin/../lib/gcc/arm-none-eabi/9.3.1/../../../../arm-none-eabi/lib/thumb/v8-m.main+fp/hard\libg_nano.a(lib_a-errno.o)
 .debug_frame   0x00004714       0x2c c:/renesas/ra/e2studio_v2021-04_fsp_v3.0.0/toolchains/gcc_arm/9_2020q2/bin/../lib/gcc/arm-none-eabi/9.3.1/../../../../arm-none-eabi/lib/thumb/v8-m.main+fp/hard\libg_nano.a(lib_a-memcmp.o)
 .debug_frame   0x00004740       0x28 c:/renesas/ra/e2studio_v2021-04_fsp_v3.0.0/toolchains/gcc_arm/9_2020q2/bin/../lib/gcc/arm-none-eabi/9.3.1/../../../../arm-none-eabi/lib/thumb/v8-m.main+fp/hard\libg_nano.a(lib_a-memcpy-stub.o)
 .debug_frame   0x00004768       0x20 c:/renesas/ra/e2studio_v2021-04_fsp_v3.0.0/toolchains/gcc_arm/9_2020q2/bin/../lib/gcc/arm-none-eabi/9.3.1/../../../../arm-none-eabi/lib/thumb/v8-m.main+fp/hard\libg_nano.a(lib_a-memset.o)
 .debug_frame   0x00004788       0x6c c:/renesas/ra/e2studio_v2021-04_fsp_v3.0.0/toolchains/gcc_arm/9_2020q2/bin/../lib/gcc/arm-none-eabi/9.3.1/../../../../arm-none-eabi/lib/thumb/v8-m.main+fp/hard\libg_nano.a(lib_a-sprintf.o)
 .debug_frame   0x000047f4       0x20 c:/renesas/ra/e2studio_v2021-04_fsp_v3.0.0/toolchains/gcc_arm/9_2020q2/bin/../lib/gcc/arm-none-eabi/9.3.1/../../../../arm-none-eabi/lib/thumb/v8-m.main+fp/hard\libg_nano.a(lib_a-strcmp.o)
 .debug_frame   0x00004814       0x20 c:/renesas/ra/e2studio_v2021-04_fsp_v3.0.0/toolchains/gcc_arm/9_2020q2/bin/../lib/gcc/arm-none-eabi/9.3.1/../../../../arm-none-eabi/lib/thumb/v8-m.main+fp/hard\libg_nano.a(lib_a-strcpy.o)
 .debug_frame   0x00004834       0x4c c:/renesas/ra/e2studio_v2021-04_fsp_v3.0.0/toolchains/gcc_arm/9_2020q2/bin/../lib/gcc/arm-none-eabi/9.3.1/../../../../arm-none-eabi/lib/thumb/v8-m.main+fp/hard\libg_nano.a(lib_a-vsnprintf.o)
 .debug_frame   0x00004880       0x3c c:/renesas/ra/e2studio_v2021-04_fsp_v3.0.0/toolchains/gcc_arm/9_2020q2/bin/../lib/gcc/arm-none-eabi/9.3.1/../../../../arm-none-eabi/lib/thumb/v8-m.main+fp/hard\libg_nano.a(lib_a-vsprintf.o)
 .debug_frame   0x000048bc       0x90 c:/renesas/ra/e2studio_v2021-04_fsp_v3.0.0/toolchains/gcc_arm/9_2020q2/bin/../lib/gcc/arm-none-eabi/9.3.1/../../../../arm-none-eabi/lib/thumb/v8-m.main+fp/hard\libg_nano.a(lib_a-nano-svfprintf.o)
 .debug_frame   0x0000494c       0x60 c:/renesas/ra/e2studio_v2021-04_fsp_v3.0.0/toolchains/gcc_arm/9_2020q2/bin/../lib/gcc/arm-none-eabi/9.3.1/../../../../arm-none-eabi/lib/thumb/v8-m.main+fp/hard\libg_nano.a(lib_a-nano-vfprintf_i.o)
 .debug_frame   0x000049ac       0x28 c:/renesas/ra/e2studio_v2021-04_fsp_v3.0.0/toolchains/gcc_arm/9_2020q2/bin/../lib/gcc/arm-none-eabi/9.3.1/../../../../arm-none-eabi/lib/thumb/v8-m.main+fp/hard\libg_nano.a(lib_a-memchr-stub.o)
 .debug_frame   0x000049d4       0x28 c:/renesas/ra/e2studio_v2021-04_fsp_v3.0.0/toolchains/gcc_arm/9_2020q2/bin/../lib/gcc/arm-none-eabi/9.3.1/../../../../arm-none-eabi/lib/thumb/v8-m.main+fp/hard\libg_nano.a(lib_a-memmove.o)
 .debug_frame   0x000049fc       0x38 c:/renesas/ra/e2studio_v2021-04_fsp_v3.0.0/toolchains/gcc_arm/9_2020q2/bin/../lib/gcc/arm-none-eabi/9.3.1/../../../../arm-none-eabi/lib/thumb/v8-m.main+fp/hard\libg_nano.a(lib_a-nano-freer.o)
 .debug_frame   0x00004a34       0x30 c:/renesas/ra/e2studio_v2021-04_fsp_v3.0.0/toolchains/gcc_arm/9_2020q2/bin/../lib/gcc/arm-none-eabi/9.3.1/../../../../arm-none-eabi/lib/thumb/v8-m.main+fp/hard\libg_nano.a(lib_a-nano-mallocr.o)
 .debug_frame   0x00004a64       0x3c c:/renesas/ra/e2studio_v2021-04_fsp_v3.0.0/toolchains/gcc_arm/9_2020q2/bin/../lib/gcc/arm-none-eabi/9.3.1/../../../../arm-none-eabi/lib/thumb/v8-m.main+fp/hard\libg_nano.a(lib_a-nano-reallocr.o)
 .debug_frame   0x00004aa0       0x2c c:/renesas/ra/e2studio_v2021-04_fsp_v3.0.0/toolchains/gcc_arm/9_2020q2/bin/../lib/gcc/arm-none-eabi/9.3.1/../../../../arm-none-eabi/lib/thumb/v8-m.main+fp/hard\libg_nano.a(lib_a-sbrkr.o)
 .debug_frame   0x00004acc       0x30 c:/renesas/ra/e2studio_v2021-04_fsp_v3.0.0/toolchains/gcc_arm/9_2020q2/bin/../lib/gcc/arm-none-eabi/9.3.1/../../../../arm-none-eabi/lib/thumb/v8-m.main+fp/hard\libg_nano.a(lib_a-mlock.o)
 .debug_frame   0x00004afc       0x20 c:/renesas/ra/e2studio_v2021-04_fsp_v3.0.0/toolchains/gcc_arm/9_2020q2/bin/../lib/gcc/arm-none-eabi/9.3.1/../../../../arm-none-eabi/lib/thumb/v8-m.main+fp/hard\libg_nano.a(lib_a-nano-msizer.o)
 .debug_frame   0x00004b1c       0x5c c:/renesas/ra/e2studio_v2021-04_fsp_v3.0.0/toolchains/gcc_arm/9_2020q2/bin/../lib/gcc/arm-none-eabi/9.3.1/../../../../arm-none-eabi/lib/thumb/v8-m.main+fp/hard\libg_nano.a(lib_a-reent.o)
 .debug_frame   0x00004b78       0xb0 c:/renesas/ra/e2studio_v2021-04_fsp_v3.0.0/toolchains/gcc_arm/9_2020q2/bin/../lib/gcc/arm-none-eabi/9.3.1/../../../../arm-none-eabi/lib/thumb/v8-m.main+fp/hard\libg_nano.a(lib_a-lock.o)
 .debug_frame   0x00004c28      0x14c c:/renesas/ra/e2studio_v2021-04_fsp_v3.0.0/toolchains/gcc_arm/9_2020q2/bin/../lib/gcc/arm-none-eabi/9.3.1/../../../../arm-none-eabi/lib/thumb/v8-m.main+fp/hard\libc_nano.a(lib_a-findfp.o)
