Archive member included to satisfy reference by file (symbol)

c:/renesas/ra/e2studio_v2021-04_fsp_v3.0.0/toolchains/gcc_arm/9_2020q2/bin/../lib/gcc/arm-none-eabi/9.3.1/thumb/v8-m.main+fp/hard\libgcc.a(_aeabi_ldivmod.o)
                              ./ra/fsp/src/r_sci_uart/r_sci_uart.o (__aeabi_ldivmod)
c:/renesas/ra/e2studio_v2021-04_fsp_v3.0.0/toolchains/gcc_arm/9_2020q2/bin/../lib/gcc/arm-none-eabi/9.3.1/thumb/v8-m.main+fp/hard\libgcc.a(_udivmoddi4.o)
                              c:/renesas/ra/e2studio_v2021-04_fsp_v3.0.0/toolchains/gcc_arm/9_2020q2/bin/../lib/gcc/arm-none-eabi/9.3.1/thumb/v8-m.main+fp/hard\libgcc.a(_aeabi_ldivmod.o) (__udivmoddi4)
c:/renesas/ra/e2studio_v2021-04_fsp_v3.0.0/toolchains/gcc_arm/9_2020q2/bin/../lib/gcc/arm-none-eabi/9.3.1/thumb/v8-m.main+fp/hard\libgcc.a(_dvmd_tls.o)
                              c:/renesas/ra/e2studio_v2021-04_fsp_v3.0.0/toolchains/gcc_arm/9_2020q2/bin/../lib/gcc/arm-none-eabi/9.3.1/thumb/v8-m.main+fp/hard\libgcc.a(_aeabi_ldivmod.o) (__aeabi_ldiv0)
c:/renesas/ra/e2studio_v2021-04_fsp_v3.0.0/toolchains/gcc_arm/9_2020q2/bin/../lib/gcc/arm-none-eabi/9.3.1/../../../../arm-none-eabi/lib/thumb/v8-m.main+fp/hard\libg_nano.a(lib_a-errno.o)
                              ./ra/fsp/src/bsp/mcu/all/bsp_sbrk.o (__errno)
c:/renesas/ra/e2studio_v2021-04_fsp_v3.0.0/toolchains/gcc_arm/9_2020q2/bin/../lib/gcc/arm-none-eabi/9.3.1/../../../../arm-none-eabi/lib/thumb/v8-m.main+fp/hard\libg_nano.a(lib_a-exit.o)
                              c:/renesas/ra/e2studio_v2021-04_fsp_v3.0.0/toolchains/gcc_arm/9_2020q2/bin/../lib/gcc/arm-none-eabi/9.3.1/../../../../arm-none-eabi/lib/thumb/v8-m.main+fp/hard/rdimon-crt0.o (exit)
c:/renesas/ra/e2studio_v2021-04_fsp_v3.0.0/toolchains/gcc_arm/9_2020q2/bin/../lib/gcc/arm-none-eabi/9.3.1/../../../../arm-none-eabi/lib/thumb/v8-m.main+fp/hard\libg_nano.a(lib_a-impure.o)
                              c:/renesas/ra/e2studio_v2021-04_fsp_v3.0.0/toolchains/gcc_arm/9_2020q2/bin/../lib/gcc/arm-none-eabi/9.3.1/../../../../arm-none-eabi/lib/thumb/v8-m.main+fp/hard\libg_nano.a(lib_a-exit.o) (_global_impure_ptr)
c:/renesas/ra/e2studio_v2021-04_fsp_v3.0.0/toolchains/gcc_arm/9_2020q2/bin/../lib/gcc/arm-none-eabi/9.3.1/../../../../arm-none-eabi/lib/thumb/v8-m.main+fp/hard\libg_nano.a(lib_a-init.o)
                              c:/renesas/ra/e2studio_v2021-04_fsp_v3.0.0/toolchains/gcc_arm/9_2020q2/bin/../lib/gcc/arm-none-eabi/9.3.1/../../../../arm-none-eabi/lib/thumb/v8-m.main+fp/hard/rdimon-crt0.o (__libc_init_array)
c:/renesas/ra/e2studio_v2021-04_fsp_v3.0.0/toolchains/gcc_arm/9_2020q2/bin/../lib/gcc/arm-none-eabi/9.3.1/../../../../arm-none-eabi/lib/thumb/v8-m.main+fp/hard\libg_nano.a(lib_a-memcmp.o)
                              ./tray/host.o (memcmp)
c:/renesas/ra/e2studio_v2021-04_fsp_v3.0.0/toolchains/gcc_arm/9_2020q2/bin/../lib/gcc/arm-none-eabi/9.3.1/../../../../arm-none-eabi/lib/thumb/v8-m.main+fp/hard\libg_nano.a(lib_a-memcpy-stub.o)
                              ./tray/flow.o (memcpy)
c:/renesas/ra/e2studio_v2021-04_fsp_v3.0.0/toolchains/gcc_arm/9_2020q2/bin/../lib/gcc/arm-none-eabi/9.3.1/../../../../arm-none-eabi/lib/thumb/v8-m.main+fp/hard\libg_nano.a(lib_a-memset.o)
                              c:/renesas/ra/e2studio_v2021-04_fsp_v3.0.0/toolchains/gcc_arm/9_2020q2/bin/../lib/gcc/arm-none-eabi/9.3.1/../../../../arm-none-eabi/lib/thumb/v8-m.main+fp/hard/rdimon-crt0.o (memset)
c:/renesas/ra/e2studio_v2021-04_fsp_v3.0.0/toolchains/gcc_arm/9_2020q2/bin/../lib/gcc/arm-none-eabi/9.3.1/../../../../arm-none-eabi/lib/thumb/v8-m.main+fp/hard\libg_nano.a(lib_a-sprintf.o)
                              ./tray/func.o (sprintf)
c:/renesas/ra/e2studio_v2021-04_fsp_v3.0.0/toolchains/gcc_arm/9_2020q2/bin/../lib/gcc/arm-none-eabi/9.3.1/../../../../arm-none-eabi/lib/thumb/v8-m.main+fp/hard\libg_nano.a(lib_a-strcmp.o)
                              ./mlos/services/mlos_log.o (strcmp)
c:/renesas/ra/e2studio_v2021-04_fsp_v3.0.0/toolchains/gcc_arm/9_2020q2/bin/../lib/gcc/arm-none-eabi/9.3.1/../../../../arm-none-eabi/lib/thumb/v8-m.main+fp/hard\libg_nano.a(lib_a-strcpy.o)
                              ./mlos/os/mlos_task.o (strcpy)
c:/renesas/ra/e2studio_v2021-04_fsp_v3.0.0/toolchains/gcc_arm/9_2020q2/bin/../lib/gcc/arm-none-eabi/9.3.1/../../../../arm-none-eabi/lib/thumb/v8-m.main+fp/hard\libg_nano.a(lib_a-strlen.o)
                              ./tray/func.o (strlen)
c:/renesas/ra/e2studio_v2021-04_fsp_v3.0.0/toolchains/gcc_arm/9_2020q2/bin/../lib/gcc/arm-none-eabi/9.3.1/../../../../arm-none-eabi/lib/thumb/v8-m.main+fp/hard\libg_nano.a(lib_a-vsnprintf.o)
                              ./tray/log.o (vsnprintf)
c:/renesas/ra/e2studio_v2021-04_fsp_v3.0.0/toolchains/gcc_arm/9_2020q2/bin/../lib/gcc/arm-none-eabi/9.3.1/../../../../arm-none-eabi/lib/thumb/v8-m.main+fp/hard\libg_nano.a(lib_a-vsprintf.o)
                              ./mlos/services/mlos_log.o (vsprintf)
c:/renesas/ra/e2studio_v2021-04_fsp_v3.0.0/toolchains/gcc_arm/9_2020q2/bin/../lib/gcc/arm-none-eabi/9.3.1/../../../../arm-none-eabi/lib/thumb/v8-m.main+fp/hard\libg_nano.a(lib_a-nano-svfprintf.o)
                              c:/renesas/ra/e2studio_v2021-04_fsp_v3.0.0/toolchains/gcc_arm/9_2020q2/bin/../lib/gcc/arm-none-eabi/9.3.1/../../../../arm-none-eabi/lib/thumb/v8-m.main+fp/hard\libg_nano.a(lib_a-sprintf.o) (_svfprintf_r)
c:/renesas/ra/e2studio_v2021-04_fsp_v3.0.0/toolchains/gcc_arm/9_2020q2/bin/../lib/gcc/arm-none-eabi/9.3.1/../../../../arm-none-eabi/lib/thumb/v8-m.main+fp/hard\libg_nano.a(lib_a-nano-vfprintf_i.o)
                              c:/renesas/ra/e2studio_v2021-04_fsp_v3.0.0/toolchains/gcc_arm/9_2020q2/bin/../lib/gcc/arm-none-eabi/9.3.1/../../../../arm-none-eabi/lib/thumb/v8-m.main+fp/hard\libg_nano.a(lib_a-nano-svfprintf.o) (_printf_i)
c:/renesas/ra/e2studio_v2021-04_fsp_v3.0.0/toolchains/gcc_arm/9_2020q2/bin/../lib/gcc/arm-none-eabi/9.3.1/../../../../arm-none-eabi/lib/thumb/v8-m.main+fp/hard\libg_nano.a(lib_a-memchr-stub.o)
                              c:/renesas/ra/e2studio_v2021-04_fsp_v3.0.0/toolchains/gcc_arm/9_2020q2/bin/../lib/gcc/arm-none-eabi/9.3.1/../../../../arm-none-eabi/lib/thumb/v8-m.main+fp/hard\libg_nano.a(lib_a-nano-svfprintf.o) (memchr)
c:/renesas/ra/e2studio_v2021-04_fsp_v3.0.0/toolchains/gcc_arm/9_2020q2/bin/../lib/gcc/arm-none-eabi/9.3.1/../../../../arm-none-eabi/lib/thumb/v8-m.main+fp/hard\libg_nano.a(lib_a-memmove.o)
                              c:/renesas/ra/e2studio_v2021-04_fsp_v3.0.0/toolchains/gcc_arm/9_2020q2/bin/../lib/gcc/arm-none-eabi/9.3.1/../../../../arm-none-eabi/lib/thumb/v8-m.main+fp/hard\libg_nano.a(lib_a-nano-svfprintf.o) (memmove)
c:/renesas/ra/e2studio_v2021-04_fsp_v3.0.0/toolchains/gcc_arm/9_2020q2/bin/../lib/gcc/arm-none-eabi/9.3.1/../../../../arm-none-eabi/lib/thumb/v8-m.main+fp/hard\libg_nano.a(lib_a-nano-freer.o)
                              c:/renesas/ra/e2studio_v2021-04_fsp_v3.0.0/toolchains/gcc_arm/9_2020q2/bin/../lib/gcc/arm-none-eabi/9.3.1/../../../../arm-none-eabi/lib/thumb/v8-m.main+fp/hard\libg_nano.a(lib_a-nano-svfprintf.o) (_free_r)
c:/renesas/ra/e2studio_v2021-04_fsp_v3.0.0/toolchains/gcc_arm/9_2020q2/bin/../lib/gcc/arm-none-eabi/9.3.1/../../../../arm-none-eabi/lib/thumb/v8-m.main+fp/hard\libg_nano.a(lib_a-nano-mallocr.o)
                              c:/renesas/ra/e2studio_v2021-04_fsp_v3.0.0/toolchains/gcc_arm/9_2020q2/bin/../lib/gcc/arm-none-eabi/9.3.1/../../../../arm-none-eabi/lib/thumb/v8-m.main+fp/hard\libg_nano.a(lib_a-nano-svfprintf.o) (_malloc_r)
c:/renesas/ra/e2studio_v2021-04_fsp_v3.0.0/toolchains/gcc_arm/9_2020q2/bin/../lib/gcc/arm-none-eabi/9.3.1/../../../../arm-none-eabi/lib/thumb/v8-m.main+fp/hard\libg_nano.a(lib_a-nano-reallocr.o)
                              c:/renesas/ra/e2studio_v2021-04_fsp_v3.0.0/toolchains/gcc_arm/9_2020q2/bin/../lib/gcc/arm-none-eabi/9.3.1/../../../../arm-none-eabi/lib/thumb/v8-m.main+fp/hard\libg_nano.a(lib_a-nano-svfprintf.o) (_realloc_r)
c:/renesas/ra/e2studio_v2021-04_fsp_v3.0.0/toolchains/gcc_arm/9_2020q2/bin/../lib/gcc/arm-none-eabi/9.3.1/../../../../arm-none-eabi/lib/thumb/v8-m.main+fp/hard\libg_nano.a(lib_a-sbrkr.o)
                              c:/renesas/ra/e2studio_v2021-04_fsp_v3.0.0/toolchains/gcc_arm/9_2020q2/bin/../lib/gcc/arm-none-eabi/9.3.1/../../../../arm-none-eabi/lib/thumb/v8-m.main+fp/hard\libg_nano.a(lib_a-nano-mallocr.o) (_sbrk_r)
c:/renesas/ra/e2studio_v2021-04_fsp_v3.0.0/toolchains/gcc_arm/9_2020q2/bin/../lib/gcc/arm-none-eabi/9.3.1/../../../../arm-none-eabi/lib/thumb/v8-m.main+fp/hard\libg_nano.a(lib_a-mlock.o)
                              c:/renesas/ra/e2studio_v2021-04_fsp_v3.0.0/toolchains/gcc_arm/9_2020q2/bin/../lib/gcc/arm-none-eabi/9.3.1/../../../../arm-none-eabi/lib/thumb/v8-m.main+fp/hard\libg_nano.a(lib_a-nano-freer.o) (__malloc_lock)
c:/renesas/ra/e2studio_v2021-04_fsp_v3.0.0/toolchains/gcc_arm/9_2020q2/bin/../lib/gcc/arm-none-eabi/9.3.1/../../../../arm-none-eabi/lib/thumb/v8-m.main+fp/hard\libg_nano.a(lib_a-nano-msizer.o)
                              c:/renesas/ra/e2studio_v2021-04_fsp_v3.0.0/toolchains/gcc_arm/9_2020q2/bin/../lib/gcc/arm-none-eabi/9.3.1/../../../../arm-none-eabi/lib/thumb/v8-m.main+fp/hard\libg_nano.a(lib_a-nano-reallocr.o) (_malloc_usable_size_r)
c:/renesas/ra/e2studio_v2021-04_fsp_v3.0.0/toolchains/gcc_arm/9_2020q2/bin/../lib/gcc/arm-none-eabi/9.3.1/../../../../arm-none-eabi/lib/thumb/v8-m.main+fp/hard\libg_nano.a(lib_a-reent.o)
                              c:/renesas/ra/e2studio_v2021-04_fsp_v3.0.0/toolchains/gcc_arm/9_2020q2/bin/../lib/gcc/arm-none-eabi/9.3.1/../../../../arm-none-eabi/lib/thumb/v8-m.main+fp/hard\libg_nano.a(lib_a-sbrkr.o) (errno)
c:/renesas/ra/e2studio_v2021-04_fsp_v3.0.0/toolchains/gcc_arm/9_2020q2/bin/../lib/gcc/arm-none-eabi/9.3.1/../../../../arm-none-eabi/lib/thumb/v8-m.main+fp/hard\libg_nano.a(lib_a-lock.o)
                              c:/renesas/ra/e2studio_v2021-04_fsp_v3.0.0/toolchains/gcc_arm/9_2020q2/bin/../lib/gcc/arm-none-eabi/9.3.1/../../../../arm-none-eabi/lib/thumb/v8-m.main+fp/hard\libg_nano.a(lib_a-mlock.o) (__retarget_lock_acquire_recursive)
c:/renesas/ra/e2studio_v2021-04_fsp_v3.0.0/toolchains/gcc_arm/9_2020q2/bin/../lib/gcc/arm-none-eabi/9.3.1/../../../../arm-none-eabi/lib/thumb/v8-m.main+fp/hard\librdimon_nano.a(rdimon-syscalls.o)
                              c:/renesas/ra/e2studio_v2021-04_fsp_v3.0.0/toolchains/gcc_arm/9_2020q2/bin/../lib/gcc/arm-none-eabi/9.3.1/../../../../arm-none-eabi/lib/thumb/v8-m.main+fp/hard/rdimon-crt0.o (initialise_monitor_handles)
c:/renesas/ra/e2studio_v2021-04_fsp_v3.0.0/toolchains/gcc_arm/9_2020q2/bin/../lib/gcc/arm-none-eabi/9.3.1/../../../../arm-none-eabi/lib/thumb/v8-m.main+fp/hard\librdimon_nano.a(rdimon-_exit.o)
                              c:/renesas/ra/e2studio_v2021-04_fsp_v3.0.0/toolchains/gcc_arm/9_2020q2/bin/../lib/gcc/arm-none-eabi/9.3.1/../../../../arm-none-eabi/lib/thumb/v8-m.main+fp/hard\libg_nano.a(lib_a-exit.o) (_exit)
c:/renesas/ra/e2studio_v2021-04_fsp_v3.0.0/toolchains/gcc_arm/9_2020q2/bin/../lib/gcc/arm-none-eabi/9.3.1/../../../../arm-none-eabi/lib/thumb/v8-m.main+fp/hard\librdimon_nano.a(rdimon-_kill.o)
                              c:/renesas/ra/e2studio_v2021-04_fsp_v3.0.0/toolchains/gcc_arm/9_2020q2/bin/../lib/gcc/arm-none-eabi/9.3.1/../../../../arm-none-eabi/lib/thumb/v8-m.main+fp/hard\librdimon_nano.a(rdimon-_exit.o) (_kill_shared)
c:/renesas/ra/e2studio_v2021-04_fsp_v3.0.0/toolchains/gcc_arm/9_2020q2/bin/../lib/gcc/arm-none-eabi/9.3.1/../../../../arm-none-eabi/lib/thumb/v8-m.main+fp/hard\libc_nano.a(lib_a-findfp.o)
                              c:/renesas/ra/e2studio_v2021-04_fsp_v3.0.0/toolchains/gcc_arm/9_2020q2/bin/../lib/gcc/arm-none-eabi/9.3.1/../../../../arm-none-eabi/lib/thumb/v8-m.main+fp/hard\librdimon_nano.a(rdimon-syscalls.o) (__sinit)
c:/renesas/ra/e2studio_v2021-04_fsp_v3.0.0/toolchains/gcc_arm/9_2020q2/bin/../lib/gcc/arm-none-eabi/9.3.1/../../../../arm-none-eabi/lib/thumb/v8-m.main+fp/hard\libc_nano.a(lib_a-fwalk.o)
                              c:/renesas/ra/e2studio_v2021-04_fsp_v3.0.0/toolchains/gcc_arm/9_2020q2/bin/../lib/gcc/arm-none-eabi/9.3.1/../../../../arm-none-eabi/lib/thumb/v8-m.main+fp/hard\libc_nano.a(lib_a-findfp.o) (_fwalk)
c:/renesas/ra/e2studio_v2021-04_fsp_v3.0.0/toolchains/gcc_arm/9_2020q2/bin/../lib/gcc/arm-none-eabi/9.3.1/../../../../arm-none-eabi/lib/thumb/v8-m.main+fp/hard\libc_nano.a(lib_a-stdio.o)
                              c:/renesas/ra/e2studio_v2021-04_fsp_v3.0.0/toolchains/gcc_arm/9_2020q2/bin/../lib/gcc/arm-none-eabi/9.3.1/../../../../arm-none-eabi/lib/thumb/v8-m.main+fp/hard\libc_nano.a(lib_a-findfp.o) (__sread)
c:/renesas/ra/e2studio_v2021-04_fsp_v3.0.0/toolchains/gcc_arm/9_2020q2/bin/../lib/gcc/arm-none-eabi/9.3.1/../../../../arm-none-eabi/lib/thumb/v8-m.main+fp/hard\libc_nano.a(lib_a-writer.o)
                              c:/renesas/ra/e2studio_v2021-04_fsp_v3.0.0/toolchains/gcc_arm/9_2020q2/bin/../lib/gcc/arm-none-eabi/9.3.1/../../../../arm-none-eabi/lib/thumb/v8-m.main+fp/hard\libc_nano.a(lib_a-stdio.o) (_write_r)
c:/renesas/ra/e2studio_v2021-04_fsp_v3.0.0/toolchains/gcc_arm/9_2020q2/bin/../lib/gcc/arm-none-eabi/9.3.1/../../../../arm-none-eabi/lib/thumb/v8-m.main+fp/hard\libc_nano.a(lib_a-closer.o)
                              c:/renesas/ra/e2studio_v2021-04_fsp_v3.0.0/toolchains/gcc_arm/9_2020q2/bin/../lib/gcc/arm-none-eabi/9.3.1/../../../../arm-none-eabi/lib/thumb/v8-m.main+fp/hard\libc_nano.a(lib_a-stdio.o) (_close_r)
c:/renesas/ra/e2studio_v2021-04_fsp_v3.0.0/toolchains/gcc_arm/9_2020q2/bin/../lib/gcc/arm-none-eabi/9.3.1/../../../../arm-none-eabi/lib/thumb/v8-m.main+fp/hard\libc_nano.a(lib_a-fflush.o)
                              c:/renesas/ra/e2studio_v2021-04_fsp_v3.0.0/toolchains/gcc_arm/9_2020q2/bin/../lib/gcc/arm-none-eabi/9.3.1/../../../../arm-none-eabi/lib/thumb/v8-m.main+fp/hard\libc_nano.a(lib_a-findfp.o) (_fflush_r)
c:/renesas/ra/e2studio_v2021-04_fsp_v3.0.0/toolchains/gcc_arm/9_2020q2/bin/../lib/gcc/arm-none-eabi/9.3.1/../../../../arm-none-eabi/lib/thumb/v8-m.main+fp/hard\libc_nano.a(lib_a-lseekr.o)
                              c:/renesas/ra/e2studio_v2021-04_fsp_v3.0.0/toolchains/gcc_arm/9_2020q2/bin/../lib/gcc/arm-none-eabi/9.3.1/../../../../arm-none-eabi/lib/thumb/v8-m.main+fp/hard\libc_nano.a(lib_a-stdio.o) (_lseek_r)
c:/renesas/ra/e2studio_v2021-04_fsp_v3.0.0/toolchains/gcc_arm/9_2020q2/bin/../lib/gcc/arm-none-eabi/9.3.1/../../../../arm-none-eabi/lib/thumb/v8-m.main+fp/hard\libc_nano.a(lib_a-readr.o)
                              c:/renesas/ra/e2studio_v2021-04_fsp_v3.0.0/toolchains/gcc_arm/9_2020q2/bin/../lib/gcc/arm-none-eabi/9.3.1/../../../../arm-none-eabi/lib/thumb/v8-m.main+fp/hard\libc_nano.a(lib_a-stdio.o) (_read_r)

Allocating common symbols
Common symbol       size              file

g_qspi0_ctrl        0x10              ./ra_gen/hal_data.o
g_can1_ctrl         0x28              ./ra_gen/hal_data.o
log                 0x40c             ./mlos/services/mlos_log.o
mlos                0x18              ./mlos/os/mlos.o
pOsinfoPrintTimer   0x4               ./mllib/tool/tool_debug.o
__lock___atexit_recursive_mutex
                    0x1               c:/renesas/ra/e2studio_v2021-04_fsp_v3.0.0/toolchains/gcc_arm/9_2020q2/bin/../lib/gcc/arm-none-eabi/9.3.1/../../../../arm-none-eabi/lib/thumb/v8-m.main+fp/hard\libg_nano.a(lib_a-lock.o)
g_cssdSpi_ctrl      0x30              ./ra_gen/hal_data.o
g_mcuflash_ctrl     0x44              ./ra_gen/hal_data.o
feature             0x3               ./mllib/mlflash/mx35xx/mx35.o
upperNtp            0x14              ./mllib/upper/upper_ntp.o
gAbsTimeSec         0x4               ./tray/host.o
__lock___arc4random_mutex
                    0x1               c:/renesas/ra/e2studio_v2021-04_fsp_v3.0.0/toolchains/gcc_arm/9_2020q2/bin/../lib/gcc/arm-none-eabi/9.3.1/../../../../arm-none-eabi/lib/thumb/v8-m.main+fp/hard\libg_nano.a(lib_a-lock.o)
gFlowCb             0x4               ./tray/flow.o
g_ioport_ctrl       0x8               ./ra_gen/common_data.o
cardinfo            0x58              ./mllib/mlflash/cssdcard/cs_sdcard.o
errno               0x4               c:/renesas/ra/e2studio_v2021-04_fsp_v3.0.0/toolchains/gcc_arm/9_2020q2/bin/../lib/gcc/arm-none-eabi/9.3.1/../../../../arm-none-eabi/lib/thumb/v8-m.main+fp/hard\libg_nano.a(lib_a-reent.o)
gUartSendBuf        0x4               ./tray/uart.o
mx35                0x10              ./mllib/mlflash/mx35xx/mx35.o
gChnMgr             0x4               ./tray/channel.o
pRtimerTask         0x4               ./mlos/os/mlos_rtimer.o
gBoxMsgBufTx        0x4               ./tray/box.o
shell               0x4c4             ./mlos/services/mlos_shell.o
gUpItfCb            0x4               ./tray/host.o
g_can0_ctrl         0x28              ./ra_gen/hal_data.o
g_w5500spi_ctrl     0x30              ./ra_gen/hal_data.o
g_transfer0_ctrl    0x8               ./ra_gen/hal_data.o
w5500spievent       0x4               ./mllib/ntp/w5500/ra6m4/ntp_w5500_spi_driver.o
gPlcSendBuf         0x4               ./tray/plc.o
g_mlosClockTimer_ctrl
                    0x20              ./ra_gen/hal_data.o
g_mlosTaskElapsedTimer_ctrl
                    0x20              ./ra_gen/hal_data.o
__lock___env_recursive_mutex
                    0x1               c:/renesas/ra/e2studio_v2021-04_fsp_v3.0.0/toolchains/gcc_arm/9_2020q2/bin/../lib/gcc/arm-none-eabi/9.3.1/../../../../arm-none-eabi/lib/thumb/v8-m.main+fp/hard\libg_nano.a(lib_a-lock.o)
__lock___sinit_recursive_mutex
                    0x1               c:/renesas/ra/e2studio_v2021-04_fsp_v3.0.0/toolchains/gcc_arm/9_2020q2/bin/../lib/gcc/arm-none-eabi/9.3.1/../../../../arm-none-eabi/lib/thumb/v8-m.main+fp/hard\libg_nano.a(lib_a-lock.o)
recvUpBuf           0x4               ./tray/host.o
pCurTaskgroup       0x4               ./mlos/os/mlos_task.o
lastSecondStatisticsTime
                    0x4               ./mlos/os/mlos_task.o
memblock1           0x14              ./mlos/port/RA6M4/mlos_port.o
prsBed              0x14              ./tray/pb.o
pCurTmrList         0x4               ./mlos/os/mlos_rtimer.o
g_transfer1_ctrl    0x8               ./ra_gen/hal_data.o
g_uart1_ctrl        0x30              ./ra_gen/hal_data.o
__lock___malloc_recursive_mutex
                    0x1               c:/renesas/ra/e2studio_v2021-04_fsp_v3.0.0/toolchains/gcc_arm/9_2020q2/bin/../lib/gcc/arm-none-eabi/9.3.1/../../../../arm-none-eabi/lib/thumb/v8-m.main+fp/hard\libg_nano.a(lib_a-lock.o)
led                 0x14              ./public/u_led.o
trayFile            0x10              ./mllib/dataStorage/ds_tray.o
can2TxfrmBuf        0x600             ./mllib/ctp/ctp.o
trayBl              0x4               ./tray/tray_bl.o
gCanMgr             0x4               ./tray/box.o
gp_renesas_isr_context
                    0x180             ./ra/fsp/src/bsp/mcu/all/bsp_irq.o
gDevMgr             0x4               ./tray/entry.o
gUartMgr            0x4               ./tray/uart.o
w5500               0x24              ./mllib/ntp/w5500/ntp_w5500.o
dsfPageBuf          0x200             ./mllib/dataStorage/ds_file.o
logCachePages       0x800             ./mllib/dataStorage/ds_log.o
sendUpBuf           0x4               ./tray/host.o
can2RxfrmBuf        0x600             ./mllib/ctp/ctp.o
g_uart0_ctrl        0x30              ./ra_gen/hal_data.o
pDSTestTimer        0x4               ./mllib/dataStorage/ds.o
cssdSpievent        0x4               ./mllib/mlflash/cssdcard/RA6M4/cs_sd_spi_driver.o
can1RxfrmBuf        0x600             ./mllib/ctp/ctp.o
gPlcMgr             0x4               ./tray/plc.o
sram1               0x10000           ./mlos/port/RA6M4/mlos_port.o
trayDiskCache       0x80              ./mllib/dataStorage/ds_tray.o
taskgroup           0x78              ./mlos/os/mlos_task.o
gMemFamily          0x8               ./tray/func.o
gTimerMgr           0x4               ./tray/timer.o
g_protect_pfswe_counter
                    0x4               ./ra/fsp/src/bsp/mcu/all/bsp_io.o
utp                 0x4c              ./mllib/utp/utp.o
__lock___at_quick_exit_mutex
                    0x1               c:/renesas/ra/e2studio_v2021-04_fsp_v3.0.0/toolchains/gcc_arm/9_2020q2/bin/../lib/gcc/arm-none-eabi/9.3.1/../../../../arm-none-eabi/lib/thumb/v8-m.main+fp/hard\libg_nano.a(lib_a-lock.o)
app                 0x1               ./app/u_app.o
gLogBuf             0x4               ./tray/log.o
cssd                0x408             ./mllib/mlflash/cssdcard/cs_sdcard.o
suspendTaskList     0xc               ./mlos/os/mlos_task.o
__lock___dd_hash_mutex
                    0x1               c:/renesas/ra/e2studio_v2021-04_fsp_v3.0.0/toolchains/gcc_arm/9_2020q2/bin/../lib/gcc/arm-none-eabi/9.3.1/../../../../arm-none-eabi/lib/thumb/v8-m.main+fp/hard\libg_nano.a(lib_a-lock.o)
__lock___tz_mutex   0x1               c:/renesas/ra/e2studio_v2021-04_fsp_v3.0.0/toolchains/gcc_arm/9_2020q2/bin/../lib/gcc/arm-none-eabi/9.3.1/../../../../arm-none-eabi/lib/thumb/v8-m.main+fp/hard\libg_nano.a(lib_a-lock.o)
pOvfTmrList         0x4               ./mlos/os/mlos_rtimer.o
toolNtp             0x10              ./mllib/tool/tool.o
memblock2           0x14              ./mlos/port/RA6M4/mlos_port.o
ctp                 0x48              ./mllib/ctp/ctp.o
can1TxfrmBuf        0x600             ./mllib/ctp/ctp.o
mx35lID             0x2               ./mllib/mlflash/mx35xx/mx35.o
ctpTxbuf            0x418             ./mllib/ctp/ctp.o
__lock___sfp_recursive_mutex
                    0x1               c:/renesas/ra/e2studio_v2021-04_fsp_v3.0.0/toolchains/gcc_arm/9_2020q2/bin/../lib/gcc/arm-none-eabi/9.3.1/../../../../arm-none-eabi/lib/thumb/v8-m.main+fp/hard\libg_nano.a(lib_a-lock.o)

Discarded input sections

 .text          0x00000000        0x0 c:/renesas/ra/e2studio_v2021-04_fsp_v3.0.0/toolchains/gcc_arm/9_2020q2/bin/../lib/gcc/arm-none-eabi/9.3.1/thumb/v8-m.main+fp/hard/crti.o
 .data          0x00000000        0x0 c:/renesas/ra/e2studio_v2021-04_fsp_v3.0.0/toolchains/gcc_arm/9_2020q2/bin/../lib/gcc/arm-none-eabi/9.3.1/thumb/v8-m.main+fp/hard/crti.o
 .bss           0x00000000        0x0 c:/renesas/ra/e2studio_v2021-04_fsp_v3.0.0/toolchains/gcc_arm/9_2020q2/bin/../lib/gcc/arm-none-eabi/9.3.1/thumb/v8-m.main+fp/hard/crti.o
 .data          0x00000000        0x4 c:/renesas/ra/e2studio_v2021-04_fsp_v3.0.0/toolchains/gcc_arm/9_2020q2/bin/../lib/gcc/arm-none-eabi/9.3.1/thumb/v8-m.main+fp/hard/crtbegin.o
 .text          0x00000000       0xf8 c:/renesas/ra/e2studio_v2021-04_fsp_v3.0.0/toolchains/gcc_arm/9_2020q2/bin/../lib/gcc/arm-none-eabi/9.3.1/../../../../arm-none-eabi/lib/thumb/v8-m.main+fp/hard/rdimon-crt0.o
 .data          0x00000000      0x118 c:/renesas/ra/e2studio_v2021-04_fsp_v3.0.0/toolchains/gcc_arm/9_2020q2/bin/../lib/gcc/arm-none-eabi/9.3.1/../../../../arm-none-eabi/lib/thumb/v8-m.main+fp/hard/rdimon-crt0.o
 .bss           0x00000000        0x0 c:/renesas/ra/e2studio_v2021-04_fsp_v3.0.0/toolchains/gcc_arm/9_2020q2/bin/../lib/gcc/arm-none-eabi/9.3.1/../../../../arm-none-eabi/lib/thumb/v8-m.main+fp/hard/rdimon-crt0.o
 .ARM.extab     0x00000000        0x0 c:/renesas/ra/e2studio_v2021-04_fsp_v3.0.0/toolchains/gcc_arm/9_2020q2/bin/../lib/gcc/arm-none-eabi/9.3.1/../../../../arm-none-eabi/lib/thumb/v8-m.main+fp/hard/rdimon-crt0.o
 .ARM.exidx     0x00000000       0x10 c:/renesas/ra/e2studio_v2021-04_fsp_v3.0.0/toolchains/gcc_arm/9_2020q2/bin/../lib/gcc/arm-none-eabi/9.3.1/../../../../arm-none-eabi/lib/thumb/v8-m.main+fp/hard/rdimon-crt0.o
 .ARM.attributes
                0x00000000       0x20 c:/renesas/ra/e2studio_v2021-04_fsp_v3.0.0/toolchains/gcc_arm/9_2020q2/bin/../lib/gcc/arm-none-eabi/9.3.1/../../../../arm-none-eabi/lib/thumb/v8-m.main+fp/hard/rdimon-crt0.o
 .text          0x00000000        0x0 ./tray/alarm_drive.o
 .data          0x00000000        0x0 ./tray/alarm_drive.o
 .bss           0x00000000        0x0 ./tray/alarm_drive.o
 .text          0x00000000        0x0 ./tray/alarm_led.o
 .data          0x00000000        0x0 ./tray/alarm_led.o
 .bss           0x00000000        0x0 ./tray/alarm_led.o
 .text          0x00000000        0x0 ./tray/boot.o
 .data          0x00000000        0x0 ./tray/boot.o
 .bss           0x00000000        0x0 ./tray/boot.o
 .text.bootIdleStayExpr
                0x00000000        0x2 ./tray/boot.o
 .text.devBootSw2App
                0x00000000        0x2 ./tray/boot.o
 .debug_info    0x00000000      0xa76 ./tray/boot.o
 .debug_abbrev  0x00000000      0x20b ./tray/boot.o
 .debug_aranges
                0x00000000       0x28 ./tray/boot.o
 .debug_ranges  0x00000000       0x18 ./tray/boot.o
 .debug_line    0x00000000      0x177 ./tray/boot.o
 .debug_str     0x00000000      0x5fa ./tray/boot.o
 .comment       0x00000000       0x4d ./tray/boot.o
 .debug_frame   0x00000000       0x30 ./tray/boot.o
 .ARM.attributes
                0x00000000       0x3a ./tray/boot.o
 .text          0x00000000        0x0 ./tray/box.o
 .data          0x00000000        0x0 ./tray/box.o
 .bss           0x00000000        0x0 ./tray/box.o
 .text.canTxMsg
                0x00000000        0x8 ./tray/box.o
 .text._____begin_of_can_ack_expire_____
                0x00000000        0x2 ./tray/box.o
 .text._____begin_of_can_ack_recieve_____
                0x00000000        0x2 ./tray/box.o
 .text          0x00000000        0x0 ./tray/channel.o
 .data          0x00000000        0x0 ./tray/channel.o
 .bss           0x00000000        0x0 ./tray/channel.o
 .text.chnStaMapMed2Up
                0x00000000       0x14 ./tray/channel.o
 .text._____begin_chn_state_machine_____
                0x00000000        0x2 ./tray/channel.o
 .text._____endof_chn_state_machine_____
                0x00000000        0x2 ./tray/channel.o
 .text          0x00000000        0x0 ./tray/entry.o
 .data          0x00000000        0x0 ./tray/entry.o
 .bss           0x00000000        0x0 ./tray/entry.o
 .text.ctrlInitBoot
                0x00000000        0xc ./tray/entry.o
 .text          0x00000000        0x0 ./tray/flow.o
 .data          0x00000000        0x0 ./tray/flow.o
 .bss           0x00000000        0x0 ./tray/flow.o
 .text.trayProtRelMix
                0x00000000       0x10 ./tray/flow.o
 .text          0x00000000        0x0 ./tray/func.o
 .data          0x00000000        0x0 ./tray/func.o
 .bss           0x00000000        0x0 ./tray/func.o
 .rodata.outHex.str1.4
                0x00000000        0xf ./tray/func.o
 .text.outHex   0x00000000      0x13c ./tray/func.o
 .text.strStrip
                0x00000000       0x90 ./tray/func.o
 .text.arrayParse
                0x00000000      0x13c ./tray/func.o
 .text          0x00000000        0x0 ./tray/host.o
 .data          0x00000000        0x0 ./tray/host.o
 .bss           0x00000000        0x0 ./tray/host.o
 .text._____begin_of_product_msg_____
                0x00000000        0x2 ./tray/host.o
 .text.upMsgFlowCtnuChk
                0x00000000        0x6 ./tray/host.o
 .text._____begin_of_upgrade_msg_____
                0x00000000        0x2 ./tray/host.o
 .text.UpUpdCanDevMap
                0x00000000        0xe ./tray/host.o
 .text.UpUpdUartDevMap
                0x00000000       0x4c ./tray/host.o
 .text._____begin_fixture_precision_msg_____
                0x00000000        0x2 ./tray/host.o
 .text._____begin_fixture_temperature_____
                0x00000000        0x2 ./tray/host.o
 .text._____begin_fixture_neg_pressure_____
                0x00000000        0x2 ./tray/host.o
 .text._____begin_fixture_suction_____
                0x00000000        0x2 ./tray/host.o
 .text._____begin_fixture_location_____
                0x00000000        0x2 ./tray/host.o
 .text._____begin_of_calibration__msg_____
                0x00000000        0x2 ./tray/host.o
 .text._____begin_of_needlebed__msg_____
                0x00000000        0x2 ./tray/host.o
 .text.upInitBoot
                0x00000000       0xa8 ./tray/host.o
 .text          0x00000000        0x0 ./tray/log.o
 .data          0x00000000        0x0 ./tray/log.o
 .bss           0x00000000        0x0 ./tray/log.o
 .text.sendDbg  0x00000000        0x6 ./tray/log.o
 .text.logDbg   0x00000000       0x44 ./tray/log.o
 .text          0x00000000        0x0 ./tray/pb.o
 .data          0x00000000        0x0 ./tray/pb.o
 .bss           0x00000000        0x0 ./tray/pb.o
 .text          0x00000000        0x0 ./tray/plc.o
 .data          0x00000000        0x0 ./tray/plc.o
 .bss           0x00000000        0x0 ./tray/plc.o
 .text          0x00000000        0x0 ./tray/protect.o
 .data          0x00000000        0x0 ./tray/protect.o
 .bss           0x00000000        0x0 ./tray/protect.o
 .text          0x00000000        0x0 ./tray/timer.o
 .data          0x00000000        0x0 ./tray/timer.o
 .bss           0x00000000        0x0 ./tray/timer.o
 .text.sysTimeMsGet
                0x00000000        0xc ./tray/timer.o
 .text          0x00000000        0x0 ./tray/tray.o
 .data          0x00000000        0x0 ./tray/tray.o
 .bss           0x00000000        0x0 ./tray/tray.o
 .text.testMakeSmpl
                0x00000000       0x26 ./tray/tray.o
 .text.testSmplDisk
                0x00000000      0x240 ./tray/tray.o
 .text          0x00000000        0x0 ./tray/tray_bl.o
 .data          0x00000000        0x0 ./tray/tray_bl.o
 .bss           0x00000000        0x0 ./tray/tray_bl.o
 .text          0x00000000        0x0 ./tray/uart.o
 .data          0x00000000        0x0 ./tray/uart.o
 .bss           0x00000000        0x0 ./tray/uart.o
 .text._____begin_of_uart_ack_expire_____
                0x00000000        0x2 ./tray/uart.o
 .text._____begin_of_uart_ack_recieve_____
                0x00000000        0x2 ./tray/uart.o
 .text          0x00000000        0x0 ./src/hal_entry.o
 .data          0x00000000        0x0 ./src/hal_entry.o
 .bss           0x00000000        0x0 ./src/hal_entry.o
 .text          0x00000000        0x0 ./ra_gen/common_data.o
 .data          0x00000000        0x0 ./ra_gen/common_data.o
 .bss           0x00000000        0x0 ./ra_gen/common_data.o
 .text.g_common_init
                0x00000000        0x2 ./ra_gen/common_data.o
 .rodata.g_ioport
                0x00000000        0xc ./ra_gen/common_data.o
 .text          0x00000000        0x0 ./ra_gen/hal_data.o
 .data          0x00000000        0x0 ./ra_gen/hal_data.o
 .bss           0x00000000        0x0 ./ra_gen/hal_data.o
 .text.g_hal_init
                0x00000000        0x8 ./ra_gen/hal_data.o
 .rodata.g_can0
                0x00000000        0xc ./ra_gen/hal_data.o
 .rodata.g_can1
                0x00000000        0xc ./ra_gen/hal_data.o
 .rodata.g_cssdSpi
                0x00000000        0xc ./ra_gen/hal_data.o
 .rodata.g_mcuflash
                0x00000000        0xc ./ra_gen/hal_data.o
 .rodata.g_mlosClockTimer
                0x00000000        0xc ./ra_gen/hal_data.o
 .rodata.g_mlosTaskElapsedTimer
                0x00000000        0xc ./ra_gen/hal_data.o
 .rodata.g_qspi0
                0x00000000        0xc ./ra_gen/hal_data.o
 .rodata.g_qspi0_cfg
                0x00000000       0x1c ./ra_gen/hal_data.o
 .rodata.g_qspi0_erase_command_list
                0x00000000       0x20 ./ra_gen/hal_data.o
 .rodata.g_qspi0_extended_cfg
                0x00000000        0x2 ./ra_gen/hal_data.o
 .rodata.g_uart0
                0x00000000        0xc ./ra_gen/hal_data.o
 .rodata.g_uart1
                0x00000000        0xc ./ra_gen/hal_data.o
 .rodata.g_w5500spi
                0x00000000        0xc ./ra_gen/hal_data.o
 .text          0x00000000        0x0 ./ra_gen/main.o
 .data          0x00000000        0x0 ./ra_gen/main.o
 .bss           0x00000000        0x0 ./ra_gen/main.o
 .text          0x00000000        0x0 ./ra_gen/pin_data.o
 .data          0x00000000        0x0 ./ra_gen/pin_data.o
 .bss           0x00000000        0x0 ./ra_gen/pin_data.o
 .text          0x00000000        0x0 ./ra_gen/vector_data.o
 .data          0x00000000        0x0 ./ra_gen/vector_data.o
 .bss           0x00000000        0x0 ./ra_gen/vector_data.o
 .text          0x00000000        0x0 ./ra/fsp/src/r_spi/r_spi.o
 .data          0x00000000        0x0 ./ra/fsp/src/r_spi/r_spi.o
 .bss           0x00000000        0x0 ./ra/fsp/src/r_spi/r_spi.o
 .text.R_SPI_CallbackSet
                0x00000000        0xa ./ra/fsp/src/r_spi/r_spi.o
 .text.R_SPI_Close
                0x00000000       0x9c ./ra/fsp/src/r_spi/r_spi.o
 .text.R_SPI_CalculateBitrate
                0x00000000       0x84 ./ra/fsp/src/r_spi/r_spi.o
 .text.R_SPI_Read
                0x00000000       0x36 ./ra/fsp/src/r_spi/r_spi.o
 .text.R_SPI_WriteRead
                0x00000000       0x3a ./ra/fsp/src/r_spi/r_spi.o
 .text.R_SPI_Write
                0x00000000       0x36 ./ra/fsp/src/r_spi/r_spi.o
 .rodata.g_spi_on_spi
                0x00000000       0x18 ./ra/fsp/src/r_spi/r_spi.o
 .text          0x00000000        0x0 ./ra/fsp/src/r_sci_uart/r_sci_uart.o
 .data          0x00000000        0x0 ./ra/fsp/src/r_sci_uart/r_sci_uart.o
 .bss           0x00000000        0x0 ./ra/fsp/src/r_sci_uart/r_sci_uart.o
 .text.R_SCI_UART_Close
                0x00000000       0xb4 ./ra/fsp/src/r_sci_uart/r_sci_uart.o
 .text.R_SCI_UART_Read
                0x00000000        0x8 ./ra/fsp/src/r_sci_uart/r_sci_uart.o
 .text.R_SCI_UART_CallbackSet
                0x00000000        0xa ./ra/fsp/src/r_sci_uart/r_sci_uart.o
 .text.R_SCI_UART_InfoGet
                0x00000000        0xc ./ra/fsp/src/r_sci_uart/r_sci_uart.o
 .text.R_SCI_UART_Abort
                0x00000000       0x26 ./ra/fsp/src/r_sci_uart/r_sci_uart.o
 .text.R_SCI_UART_BaudSet
                0x00000000       0x44 ./ra/fsp/src/r_sci_uart/r_sci_uart.o
 .text.R_SCI_UART_BaudCalculate
                0x00000000      0x1a0 ./ra/fsp/src/r_sci_uart/r_sci_uart.o
 .rodata.g_async_baud
                0x00000000        0xd ./ra/fsp/src/r_sci_uart/r_sci_uart.o
 .rodata.g_div_coefficient
                0x00000000       0x1a ./ra/fsp/src/r_sci_uart/r_sci_uart.o
 .rodata.g_uart_on_sci
                0x00000000       0x20 ./ra/fsp/src/r_sci_uart/r_sci_uart.o
 .text          0x00000000        0x0 ./ra/fsp/src/r_qspi/r_qspi.o
 .data          0x00000000        0x0 ./ra/fsp/src/r_qspi/r_qspi.o
 .bss           0x00000000        0x0 ./ra/fsp/src/r_qspi/r_qspi.o
 .text.R_QSPI_Write
                0x00000000       0xe8 ./ra/fsp/src/r_qspi/r_qspi.o
 .text.R_QSPI_Erase
                0x00000000       0x92 ./ra/fsp/src/r_qspi/r_qspi.o
 .text.R_QSPI_BankSet
                0x00000000        0xe ./ra/fsp/src/r_qspi/r_qspi.o
 .text.R_QSPI_SpiProtocolSet
                0x00000000       0x10 ./ra/fsp/src/r_qspi/r_qspi.o
 .text.R_QSPI_Close
                0x00000000       0x28 ./ra/fsp/src/r_qspi/r_qspi.o
 .text.R_QSPI_XipEnter
                0x00000000       0x3c ./ra/fsp/src/r_qspi/r_qspi.o
 .text.R_QSPI_StatusGet
                0x00000000       0x28 ./ra/fsp/src/r_qspi/r_qspi.o
 .text.R_QSPI_DirectWrite
                0x00000000       0x38 ./ra/fsp/src/r_qspi/r_qspi.o
 .text.R_QSPI_DirectRead
                0x00000000       0x24 ./ra/fsp/src/r_qspi/r_qspi.o
 .text.qspi_d0_byte_write_quad_mode
                0x00000000       0x3a ./ra/fsp/src/r_qspi/r_qspi.o
 .text.qspi_d0_byte_write_dual_mode
                0x00000000       0x30 ./ra/fsp/src/r_qspi/r_qspi.o
 .text.qspi_d0_byte_write_standard
                0x00000000        0x8 ./ra/fsp/src/r_qspi/r_qspi.o
 .text.R_QSPI_Open
                0x00000000       0x84 ./ra/fsp/src/r_qspi/r_qspi.o
 .text.R_QSPI_XipExit
                0x00000000       0x38 ./ra/fsp/src/r_qspi/r_qspi.o
 .rodata.g_qspi_on_spi_flash
                0x00000000       0x30 ./ra/fsp/src/r_qspi/r_qspi.o
 .rodata.gp_qspi_prv_byte_write
                0x00000000        0xc ./ra/fsp/src/r_qspi/r_qspi.o
 .debug_info    0x00000000     0x2da0 ./ra/fsp/src/r_qspi/r_qspi.o
 .debug_abbrev  0x00000000      0x488 ./ra/fsp/src/r_qspi/r_qspi.o
 .debug_loc     0x00000000      0xd3f ./ra/fsp/src/r_qspi/r_qspi.o
 .debug_aranges
                0x00000000       0x88 ./ra/fsp/src/r_qspi/r_qspi.o
 .debug_ranges  0x00000000       0xc0 ./ra/fsp/src/r_qspi/r_qspi.o
 .debug_line    0x00000000      0xab0 ./ra/fsp/src/r_qspi/r_qspi.o
 .debug_str     0x00000000     0x30ea ./ra/fsp/src/r_qspi/r_qspi.o
 .comment       0x00000000       0x4d ./ra/fsp/src/r_qspi/r_qspi.o
 .debug_frame   0x00000000      0x174 ./ra/fsp/src/r_qspi/r_qspi.o
 .ARM.attributes
                0x00000000       0x3a ./ra/fsp/src/r_qspi/r_qspi.o
 .text          0x00000000        0x0 ./ra/fsp/src/r_ioport/r_ioport.o
 .data          0x00000000        0x0 ./ra/fsp/src/r_ioport/r_ioport.o
 .bss           0x00000000        0x0 ./ra/fsp/src/r_ioport/r_ioport.o
 .text.R_IOPORT_Close
                0x00000000        0x8 ./ra/fsp/src/r_ioport/r_ioport.o
 .text.R_IOPORT_PinRead
                0x00000000       0x1c ./ra/fsp/src/r_ioport/r_ioport.o
 .text.R_IOPORT_PortRead
                0x00000000       0x14 ./ra/fsp/src/r_ioport/r_ioport.o
 .text.R_IOPORT_PortWrite
                0x00000000       0x1c ./ra/fsp/src/r_ioport/r_ioport.o
 .text.R_IOPORT_PortDirectionSet
                0x00000000       0x28 ./ra/fsp/src/r_ioport/r_ioport.o
 .text.R_IOPORT_PortEventInputRead
                0x00000000       0x18 ./ra/fsp/src/r_ioport/r_ioport.o
 .text.R_IOPORT_PinEventInputRead
                0x00000000       0x2a ./ra/fsp/src/r_ioport/r_ioport.o
 .text.R_IOPORT_PortEventOutputWrite
                0x00000000       0x1c ./ra/fsp/src/r_ioport/r_ioport.o
 .text.R_IOPORT_EthernetModeCfg
                0x00000000        0xc ./ra/fsp/src/r_ioport/r_ioport.o
 .text.R_IOPORT_PinEventOutputWrite
                0x00000000       0x42 ./ra/fsp/src/r_ioport/r_ioport.o
 .text.R_IOPORT_PinsCfg
                0x00000000        0xc ./ra/fsp/src/r_ioport/r_ioport.o
 .text.R_IOPORT_PinCfg
                0x00000000       0x80 ./ra/fsp/src/r_ioport/r_ioport.o
 .rodata.g_ioport_on_ioport
                0x00000000       0x38 ./ra/fsp/src/r_ioport/r_ioport.o
 .text          0x00000000        0x0 ./ra/fsp/src/r_gpt/r_gpt.o
 .data          0x00000000        0x0 ./ra/fsp/src/r_gpt/r_gpt.o
 .bss           0x00000000        0x0 ./ra/fsp/src/r_gpt/r_gpt.o
 .text.R_GPT_Stop
                0x00000000        0xa ./ra/fsp/src/r_gpt/r_gpt.o
 .text.R_GPT_Reset
                0x00000000        0xa ./ra/fsp/src/r_gpt/r_gpt.o
 .text.R_GPT_Enable
                0x00000000       0x36 ./ra/fsp/src/r_gpt/r_gpt.o
 .text.R_GPT_PeriodSet
                0x00000000       0x1c ./ra/fsp/src/r_gpt/r_gpt.o
 .text.R_GPT_DutyCycleSet
                0x00000000        0x4 ./ra/fsp/src/r_gpt/r_gpt.o
 .text.R_GPT_StatusGet
                0x00000000       0x14 ./ra/fsp/src/r_gpt/r_gpt.o
 .text.R_GPT_CallbackSet
                0x00000000        0xa ./ra/fsp/src/r_gpt/r_gpt.o
 .text.R_GPT_Disable
                0x00000000        0xa ./ra/fsp/src/r_gpt/r_gpt.o
 .text.r_gpt_disable_irq
                0x00000000       0x30 ./ra/fsp/src/r_gpt/r_gpt.o
 .text.R_GPT_Close
                0x00000000       0x30 ./ra/fsp/src/r_gpt/r_gpt.o
 .text.R_GPT_InfoGet
                0x00000000       0x40 ./ra/fsp/src/r_gpt/r_gpt.o
 .text.r_gpt_capture_common_isr
                0x00000000       0x84 ./ra/fsp/src/r_gpt/r_gpt.o
 .text.R_GPT_CounterSet
                0x00000000        0x8 ./ra/fsp/src/r_gpt/r_gpt.o
 .text.R_GPT_OutputEnable
                0x00000000       0x1a ./ra/fsp/src/r_gpt/r_gpt.o
 .text.R_GPT_OutputDisable
                0x00000000       0x1a ./ra/fsp/src/r_gpt/r_gpt.o
 .text.R_GPT_AdcTriggerSet
                0x00000000        0xc ./ra/fsp/src/r_gpt/r_gpt.o
 .text.gpt_capture_a_isr
                0x00000000        0xa ./ra/fsp/src/r_gpt/r_gpt.o
 .text.gpt_capture_b_isr
                0x00000000        0xa ./ra/fsp/src/r_gpt/r_gpt.o
 .rodata.g_timer_on_gpt
                0x00000000       0x30 ./ra/fsp/src/r_gpt/r_gpt.o
 .text          0x00000000        0x0 ./ra/fsp/src/r_flash_hp/r_flash_hp.o
 .data          0x00000000        0x0 ./ra/fsp/src/r_flash_hp/r_flash_hp.o
 .bss           0x00000000        0x0 ./ra/fsp/src/r_flash_hp/r_flash_hp.o
 .text.R_FLASH_HP_StatusGet
                0x00000000       0x1c ./ra/fsp/src/r_flash_hp/r_flash_hp.o
 .text.R_FLASH_HP_IdCodeSet
                0x00000000        0x4 ./ra/fsp/src/r_flash_hp/r_flash_hp.o
 .text.R_FLASH_HP_AccessWindowSet
                0x00000000        0x4 ./ra/fsp/src/r_flash_hp/r_flash_hp.o
 .text.R_FLASH_HP_AccessWindowClear
                0x00000000        0x4 ./ra/fsp/src/r_flash_hp/r_flash_hp.o
 .text.R_FLASH_HP_InfoGet
                0x00000000       0x24 ./ra/fsp/src/r_flash_hp/r_flash_hp.o
 .text.R_FLASH_HP_Close
                0x00000000       0x68 ./ra/fsp/src/r_flash_hp/r_flash_hp.o
 .text.R_FLASH_HP_CallbackSet
                0x00000000        0xa ./ra/fsp/src/r_flash_hp/r_flash_hp.o
 .text.R_FLASH_HP_UpdateFlashClockFreq
                0x00000000        0x8 ./ra/fsp/src/r_flash_hp/r_flash_hp.o
 .text.r_flash_hp_call_callback
                0x00000000       0x3a ./ra/fsp/src/r_flash_hp/r_flash_hp.o
 .text.R_FLASH_HP_Reset
                0x00000000        0x8 ./ra/fsp/src/r_flash_hp/r_flash_hp.o
 .text.R_FLASH_HP_BlankCheck
                0x00000000       0xe0 ./ra/fsp/src/r_flash_hp/r_flash_hp.o
 .text.R_FLASH_HP_BankSwap
                0x00000000        0xa ./ra/fsp/src/r_flash_hp/r_flash_hp.o
 .text.fcu_fiferr_isr
                0x00000000       0x70 ./ra/fsp/src/r_flash_hp/r_flash_hp.o
 .text.fcu_frdyi_isr
                0x00000000       0x8c ./ra/fsp/src/r_flash_hp/r_flash_hp.o
 .rodata.g_code_flash_macro_info
                0x00000000       0x20 ./ra/fsp/src/r_flash_hp/r_flash_hp.o
 .rodata.g_data_flash_macro_info
                0x00000000       0x10 ./ra/fsp/src/r_flash_hp/r_flash_hp.o
 .rodata.g_flash_code_region
                0x00000000        0x8 ./ra/fsp/src/r_flash_hp/r_flash_hp.o
 .rodata.g_flash_data_region
                0x00000000        0x8 ./ra/fsp/src/r_flash_hp/r_flash_hp.o
 .rodata.g_flash_on_flash_hp
                0x00000000       0x3c ./ra/fsp/src/r_flash_hp/r_flash_hp.o
 .text          0x00000000        0x0 ./ra/fsp/src/r_dtc/r_dtc.o
 .data          0x00000000        0x0 ./ra/fsp/src/r_dtc/r_dtc.o
 .bss           0x00000000        0x0 ./ra/fsp/src/r_dtc/r_dtc.o
 .text          0x00000000        0x0 ./ra/fsp/src/r_can/r_can.o
 .data          0x00000000        0x0 ./ra/fsp/src/r_can/r_can.o
 .bss           0x00000000        0x0 ./ra/fsp/src/r_can/r_can.o
 .text.R_CAN_Close
                0x00000000       0xa0 ./ra/fsp/src/r_can/r_can.o
 .text.R_CAN_Write
                0x00000000       0xa4 ./ra/fsp/src/r_can/r_can.o
 .text.R_CAN_Read
                0x00000000        0x4 ./ra/fsp/src/r_can/r_can.o
 .text.R_CAN_InfoGet
                0x00000000       0x34 ./ra/fsp/src/r_can/r_can.o
 .text.R_CAN_CallbackSet
                0x00000000        0xa ./ra/fsp/src/r_can/r_can.o
 .text.R_CAN_ModeTransition
                0x00000000        0xa ./ra/fsp/src/r_can/r_can.o
 .rodata.g_can_on_can
                0x00000000       0x1c ./ra/fsp/src/r_can/r_can.o
 .text          0x00000000        0x0 ./ra/fsp/src/bsp/mcu/all/bsp_clocks.o
 .data          0x00000000        0x0 ./ra/fsp/src/bsp/mcu/all/bsp_clocks.o
 .bss           0x00000000        0x0 ./ra/fsp/src/bsp/mcu/all/bsp_clocks.o
 .text.bsp_prv_operating_mode_set
                0x00000000       0x68 ./ra/fsp/src/bsp/mcu/all/bsp_clocks.o
 .text.bsp_prv_prepare_pll
                0x00000000        0xc ./ra/fsp/src/bsp/mcu/all/bsp_clocks.o
 .text.bsp_prv_clock_set
                0x00000000       0xcc ./ra/fsp/src/bsp/mcu/all/bsp_clocks.o
 .text.R_BSP_OctaclkUpdate
                0x00000000       0x54 ./ra/fsp/src/bsp/mcu/all/bsp_clocks.o
 .text          0x00000000        0x0 ./ra/fsp/src/bsp/mcu/all/bsp_common.o
 .data          0x00000000        0x0 ./ra/fsp/src/bsp/mcu/all/bsp_common.o
 .bss           0x00000000        0x0 ./ra/fsp/src/bsp/mcu/all/bsp_common.o
 .text.R_FSP_VersionGet
                0x00000000       0x10 ./ra/fsp/src/bsp/mcu/all/bsp_common.o
 .text.__assert_func
                0x00000000        0x4 ./ra/fsp/src/bsp/mcu/all/bsp_common.o
 .text          0x00000000        0x0 ./ra/fsp/src/bsp/mcu/all/bsp_delay.o
 .data          0x00000000        0x0 ./ra/fsp/src/bsp/mcu/all/bsp_delay.o
 .bss           0x00000000        0x0 ./ra/fsp/src/bsp/mcu/all/bsp_delay.o
 .text.bsp_prv_software_delay_loop
                0x00000000        0xa ./ra/fsp/src/bsp/mcu/all/bsp_delay.o
 .text.R_BSP_SoftwareDelay
                0x00000000       0x84 ./ra/fsp/src/bsp/mcu/all/bsp_delay.o
 .debug_info    0x00000000      0xaac ./ra/fsp/src/bsp/mcu/all/bsp_delay.o
 .debug_abbrev  0x00000000      0x273 ./ra/fsp/src/bsp/mcu/all/bsp_delay.o
 .debug_loc     0x00000000      0x129 ./ra/fsp/src/bsp/mcu/all/bsp_delay.o
 .debug_aranges
                0x00000000       0x28 ./ra/fsp/src/bsp/mcu/all/bsp_delay.o
 .debug_ranges  0x00000000       0x18 ./ra/fsp/src/bsp/mcu/all/bsp_delay.o
 .debug_line    0x00000000      0x345 ./ra/fsp/src/bsp/mcu/all/bsp_delay.o
 .debug_str     0x00000000      0x6f2 ./ra/fsp/src/bsp/mcu/all/bsp_delay.o
 .comment       0x00000000       0x4d ./ra/fsp/src/bsp/mcu/all/bsp_delay.o
 .debug_frame   0x00000000       0x3c ./ra/fsp/src/bsp/mcu/all/bsp_delay.o
 .ARM.attributes
                0x00000000       0x3a ./ra/fsp/src/bsp/mcu/all/bsp_delay.o
 .text          0x00000000        0x0 ./ra/fsp/src/bsp/mcu/all/bsp_group_irq.o
 .data          0x00000000        0x0 ./ra/fsp/src/bsp/mcu/all/bsp_group_irq.o
 .bss           0x00000000        0x0 ./ra/fsp/src/bsp/mcu/all/bsp_group_irq.o
 .text.R_BSP_GroupIrqWrite
                0x00000000       0x10 ./ra/fsp/src/bsp/mcu/all/bsp_group_irq.o
 .text          0x00000000        0x0 ./ra/fsp/src/bsp/mcu/all/bsp_guard.o
 .data          0x00000000        0x0 ./ra/fsp/src/bsp/mcu/all/bsp_guard.o
 .bss           0x00000000        0x0 ./ra/fsp/src/bsp/mcu/all/bsp_guard.o
 .debug_info    0x00000000      0x982 ./ra/fsp/src/bsp/mcu/all/bsp_guard.o
 .debug_abbrev  0x00000000      0x1b8 ./ra/fsp/src/bsp/mcu/all/bsp_guard.o
 .debug_aranges
                0x00000000       0x18 ./ra/fsp/src/bsp/mcu/all/bsp_guard.o
 .debug_line    0x00000000      0x280 ./ra/fsp/src/bsp/mcu/all/bsp_guard.o
 .debug_str     0x00000000      0x5ed ./ra/fsp/src/bsp/mcu/all/bsp_guard.o
 .comment       0x00000000       0x4d ./ra/fsp/src/bsp/mcu/all/bsp_guard.o
 .ARM.attributes
                0x00000000       0x3c ./ra/fsp/src/bsp/mcu/all/bsp_guard.o
 .text          0x00000000        0x0 ./ra/fsp/src/bsp/mcu/all/bsp_io.o
 .data          0x00000000        0x0 ./ra/fsp/src/bsp/mcu/all/bsp_io.o
 .bss           0x00000000        0x0 ./ra/fsp/src/bsp/mcu/all/bsp_io.o
 .text          0x00000000        0x0 ./ra/fsp/src/bsp/mcu/all/bsp_irq.o
 .data          0x00000000        0x0 ./ra/fsp/src/bsp/mcu/all/bsp_irq.o
 .bss           0x00000000        0x0 ./ra/fsp/src/bsp/mcu/all/bsp_irq.o
 .rodata.g_interrupt_event_link_select
                0x00000000       0xc0 ./ra/fsp/src/bsp/mcu/all/bsp_irq.o
 .text          0x00000000        0x0 ./ra/fsp/src/bsp/mcu/all/bsp_register_protection.o
 .data          0x00000000        0x0 ./ra/fsp/src/bsp/mcu/all/bsp_register_protection.o
 .bss           0x00000000        0x0 ./ra/fsp/src/bsp/mcu/all/bsp_register_protection.o
 .text          0x00000000        0x0 ./ra/fsp/src/bsp/mcu/all/bsp_rom_registers.o
 .data          0x00000000        0x0 ./ra/fsp/src/bsp/mcu/all/bsp_rom_registers.o
 .bss           0x00000000        0x0 ./ra/fsp/src/bsp/mcu/all/bsp_rom_registers.o
 .text          0x00000000        0x0 ./ra/fsp/src/bsp/mcu/all/bsp_sbrk.o
 .data          0x00000000        0x0 ./ra/fsp/src/bsp/mcu/all/bsp_sbrk.o
 .bss           0x00000000        0x0 ./ra/fsp/src/bsp/mcu/all/bsp_sbrk.o
 .text          0x00000000        0x0 ./ra/fsp/src/bsp/mcu/all/bsp_security.o
 .data          0x00000000        0x0 ./ra/fsp/src/bsp/mcu/all/bsp_security.o
 .bss           0x00000000        0x0 ./ra/fsp/src/bsp/mcu/all/bsp_security.o
 .rodata.gp_start_of_nonsecure_flash
                0x00000000        0x4 ./ra/fsp/src/bsp/mcu/all/bsp_security.o
 .debug_info    0x00000000      0x9e3 ./ra/fsp/src/bsp/mcu/all/bsp_security.o
 .debug_abbrev  0x00000000      0x1cb ./ra/fsp/src/bsp/mcu/all/bsp_security.o
 .debug_aranges
                0x00000000       0x18 ./ra/fsp/src/bsp/mcu/all/bsp_security.o
 .debug_line    0x00000000      0x2e2 ./ra/fsp/src/bsp/mcu/all/bsp_security.o
 .debug_str     0x00000000      0x63d ./ra/fsp/src/bsp/mcu/all/bsp_security.o
 .comment       0x00000000       0x4d ./ra/fsp/src/bsp/mcu/all/bsp_security.o
 .ARM.attributes
                0x00000000       0x3c ./ra/fsp/src/bsp/mcu/all/bsp_security.o
 .text          0x00000000        0x0 ./ra/fsp/src/bsp/cmsis/Device/RENESAS/Source/startup.o
 .data          0x00000000        0x0 ./ra/fsp/src/bsp/cmsis/Device/RENESAS/Source/startup.o
 .bss           0x00000000        0x0 ./ra/fsp/src/bsp/cmsis/Device/RENESAS/Source/startup.o
 .text          0x00000000        0x0 ./ra/fsp/src/bsp/cmsis/Device/RENESAS/Source/system.o
 .data          0x00000000        0x0 ./ra/fsp/src/bsp/cmsis/Device/RENESAS/Source/system.o
 .bss           0x00000000        0x0 ./ra/fsp/src/bsp/cmsis/Device/RENESAS/Source/system.o
 .text.R_BSP_WarmStart
                0x00000000        0x2 ./ra/fsp/src/bsp/cmsis/Device/RENESAS/Source/system.o
 .text          0x00000000        0x0 ./public/u_function.o
 .data          0x00000000        0x0 ./public/u_function.o
 .bss           0x00000000        0x0 ./public/u_function.o
 .text.crc16    0x00000000       0x46 ./public/u_function.o
 .debug_info    0x00000000       0xfd ./public/u_function.o
 .debug_abbrev  0x00000000       0x99 ./public/u_function.o
 .debug_loc     0x00000000      0x131 ./public/u_function.o
 .debug_aranges
                0x00000000       0x20 ./public/u_function.o
 .debug_ranges  0x00000000       0x10 ./public/u_function.o
 .debug_line    0x00000000       0xf8 ./public/u_function.o
 .debug_str     0x00000000      0x185 ./public/u_function.o
 .comment       0x00000000       0x4d ./public/u_function.o
 .debug_frame   0x00000000       0x38 ./public/u_function.o
 .ARM.attributes
                0x00000000       0x3a ./public/u_function.o
 .text          0x00000000        0x0 ./public/u_led.o
 .data          0x00000000        0x0 ./public/u_led.o
 .bss           0x00000000        0x0 ./public/u_led.o
 .text.led_twinkle_disable
                0x00000000       0x34 ./public/u_led.o
 .text.led_red_switch
                0x00000000       0x14 ./public/u_led.o
 .text.led_green_switch
                0x00000000       0x14 ./public/u_led.o
 .text.led_blue_switch
                0x00000000       0x14 ./public/u_led.o
 .text.led_twinkle_red
                0x00000000       0x3c ./public/u_led.o
 .text.led_twinkle_green
                0x00000000       0x3c ./public/u_led.o
 .text.led_twinkle_orange
                0x00000000       0x38 ./public/u_led.o
 .text.led_off  0x00000000       0x1c ./public/u_led.o
 .text          0x00000000        0x0 ./public/u_setting.o
 .data          0x00000000        0x0 ./public/u_setting.o
 .bss           0x00000000        0x0 ./public/u_setting.o
 .text.setting_update
                0x00000000       0x22 ./public/u_setting.o
 .text          0x00000000        0x0 ./mlos/services/mlos_log.o
 .data          0x00000000        0x0 ./mlos/services/mlos_log.o
 .bss           0x00000000        0x0 ./mlos/services/mlos_log.o
 .text.log_print_switch
                0x00000000       0x18 ./mlos/services/mlos_log.o
 .text          0x00000000        0x0 ./mlos/services/mlos_shell.o
 .data          0x00000000        0x0 ./mlos/services/mlos_shell.o
 .bss           0x00000000        0x0 ./mlos/services/mlos_shell.o
 .text.shell_cmd_check
                0x00000000       0x2e ./mlos/services/mlos_shell.o
 .text.shell_cmd_log
                0x00000000        0x4 ./mlos/services/mlos_shell.o
 .rodata.shell_cmd_reset.str1.4
                0x00000000       0x12 ./mlos/services/mlos_shell.o
 .text.shell_cmd_reset
                0x00000000       0x14 ./mlos/services/mlos_shell.o
 .text.shell_cmd_buf
                0x00000000        0x8 ./mlos/services/mlos_shell.o
 .text          0x00000000        0x0 ./mlos/port/RA6M4/mlos_port.o
 .data          0x00000000        0x0 ./mlos/port/RA6M4/mlos_port.o
 .bss           0x00000000        0x0 ./mlos/port/RA6M4/mlos_port.o
 .text.task_clock_start
                0x00000000       0x10 ./mlos/port/RA6M4/mlos_port.o
 .text.task_clock_stop
                0x00000000       0x28 ./mlos/port/RA6M4/mlos_port.o
 .text          0x00000000        0x0 ./mlos/os/mlos.o
 .data          0x00000000        0x0 ./mlos/os/mlos.o
 .bss           0x00000000        0x0 ./mlos/os/mlos.o
 .text.mlos_assert_failed
                0x00000000        0x2 ./mlos/os/mlos.o
 .text.mlos_mem_copy
                0x00000000       0x14 ./mlos/os/mlos.o
 .text.mlos_exit
                0x00000000        0x2 ./mlos/os/mlos.o
 .text          0x00000000        0x0 ./mlos/os/mlos_clock.o
 .data          0x00000000        0x0 ./mlos/os/mlos_clock.o
 .bss           0x00000000        0x0 ./mlos/os/mlos_clock.o
 .text          0x00000000        0x0 ./mlos/os/mlos_list.o
 .data          0x00000000        0x0 ./mlos/os/mlos_list.o
 .bss           0x00000000        0x0 ./mlos/os/mlos_list.o
 .text.list_remove
                0x00000000       0x8c ./mlos/os/mlos_list.o
 .text.list_clear
                0x00000000        0xc ./mlos/os/mlos_list.o
 .text.list_key_contains
                0x00000000       0x3a ./mlos/os/mlos_list.o
 .text.list_value_contains
                0x00000000       0x2a ./mlos/os/mlos_list.o
 .text          0x00000000        0x0 ./mlos/os/mlos_ltimer.o
 .data          0x00000000        0x0 ./mlos/os/mlos_ltimer.o
 .bss           0x00000000        0x0 ./mlos/os/mlos_ltimer.o
 .text          0x00000000        0x0 ./mlos/os/mlos_malloc.o
 .data          0x00000000        0x0 ./mlos/os/mlos_malloc.o
 .bss           0x00000000        0x0 ./mlos/os/mlos_malloc.o
 .text          0x00000000        0x0 ./mlos/os/mlos_mpump.o
 .data          0x00000000        0x0 ./mlos/os/mlos_mpump.o
 .bss           0x00000000        0x0 ./mlos/os/mlos_mpump.o
 .text          0x00000000        0x0 ./mlos/os/mlos_que.o
 .data          0x00000000        0x0 ./mlos/os/mlos_que.o
 .bss           0x00000000        0x0 ./mlos/os/mlos_que.o
 .text.que_clear
                0x00000000        0xc ./mlos/os/mlos_que.o
 .text          0x00000000        0x0 ./mlos/os/mlos_rtimer.o
 .data          0x00000000        0x0 ./mlos/os/mlos_rtimer.o
 .bss           0x00000000        0x0 ./mlos/os/mlos_rtimer.o
 .text.rtimer_init
                0x00000000       0x1e ./mlos/os/mlos_rtimer.o
 .text.rtimer_create
                0x00000000       0x3c ./mlos/os/mlos_rtimer.o
 .text.rtimer_stop
                0x00000000       0x16 ./mlos/os/mlos_rtimer.o
 .text          0x00000000        0x0 ./mlos/os/mlos_task.o
 .data          0x00000000        0x0 ./mlos/os/mlos_task.o
 .bss           0x00000000        0x0 ./mlos/os/mlos_task.o
 .text.task_name_set
                0x00000000        0x4 ./mlos/os/mlos_task.o
 .text          0x00000000        0x0 ./mllib/utp/ra6m4/utp_uart_driver.o
 .data          0x00000000        0x0 ./mllib/utp/ra6m4/utp_uart_driver.o
 .bss           0x00000000        0x0 ./mllib/utp/ra6m4/utp_uart_driver.o
 .text          0x00000000        0x0 ./mllib/utp/public.o
 .data          0x00000000        0x0 ./mllib/utp/public.o
 .bss           0x00000000        0x0 ./mllib/utp/public.o
 .text.delay_rough_ms
                0x00000000       0x32 ./mllib/utp/public.o
 .text          0x00000000        0x0 ./mllib/utp/utp.o
 .data          0x00000000        0x0 ./mllib/utp/utp.o
 .bss           0x00000000        0x0 ./mllib/utp/utp.o
 .text          0x00000000        0x0 ./mllib/upper/upper_ntp.o
 .data          0x00000000        0x0 ./mllib/upper/upper_ntp.o
 .bss           0x00000000        0x0 ./mllib/upper/upper_ntp.o
 .text.upper_sum_check
                0x00000000       0x2a ./mllib/upper/upper_ntp.o
 .text.upper_consumer_register
                0x00000000       0x14 ./mllib/upper/upper_ntp.o
 .text          0x00000000        0x0 ./mllib/tool/tool.o
 .data          0x00000000        0x0 ./mllib/tool/tool.o
 .bss           0x00000000        0x0 ./mllib/tool/tool.o
 .text          0x00000000        0x0 ./mllib/tool/tool_debug.o
 .data          0x00000000        0x0 ./mllib/tool/tool_debug.o
 .bss           0x00000000        0x0 ./mllib/tool/tool_debug.o
 .text.tool_debug_print_switch
                0x00000000       0x18 ./mllib/tool/tool_debug.o
 .bss.pToolDebugTask
                0x00000000        0x4 ./mllib/tool/tool_debug.o
 .text          0x00000000        0x0 ./mllib/tool/tool_ds.o
 .data          0x00000000        0x0 ./mllib/tool/tool_ds.o
 .bss           0x00000000        0x0 ./mllib/tool/tool_ds.o
 .text          0x00000000        0x0 ./mllib/tool/tool_iap.o
 .data          0x00000000        0x0 ./mllib/tool/tool_iap.o
 .bss           0x00000000        0x0 ./mllib/tool/tool_iap.o
 .text          0x00000000        0x0 ./mllib/tool/tool_setting.o
 .data          0x00000000        0x0 ./mllib/tool/tool_setting.o
 .bss           0x00000000        0x0 ./mllib/tool/tool_setting.o
 .text          0x00000000        0x0 ./mllib/ntp/w5500/ra6m4/ntp_w5500_spi_driver.o
 .data          0x00000000        0x0 ./mllib/ntp/w5500/ra6m4/ntp_w5500_spi_driver.o
 .bss           0x00000000        0x0 ./mllib/ntp/w5500/ra6m4/ntp_w5500_spi_driver.o
 .text          0x00000000        0x0 ./mllib/ntp/w5500/ntp_w5500.o
 .data          0x00000000        0x0 ./mllib/ntp/w5500/ntp_w5500.o
 .bss           0x00000000        0x0 ./mllib/ntp/w5500/ntp_w5500.o
 .text          0x00000000        0x0 ./mllib/ntp/ntp.o
 .data          0x00000000        0x0 ./mllib/ntp/ntp.o
 .bss           0x00000000        0x0 ./mllib/ntp/ntp.o
 .text          0x00000000        0x0 ./mllib/ntp/ntp_usocket.o
 .data          0x00000000        0x0 ./mllib/ntp/ntp_usocket.o
 .bss           0x00000000        0x0 ./mllib/ntp/ntp_usocket.o
 .text          0x00000000        0x0 ./mllib/mlflash/mx35xx/RA6M4/mx35_spi_driver.o
 .data          0x00000000        0x0 ./mllib/mlflash/mx35xx/RA6M4/mx35_spi_driver.o
 .bss           0x00000000        0x0 ./mllib/mlflash/mx35xx/RA6M4/mx35_spi_driver.o
 .text.mx_spi_flash_read
                0x00000000       0x9c ./mllib/mlflash/mx35xx/RA6M4/mx35_spi_driver.o
 .text.mx_spi_flash_write
                0x00000000       0x94 ./mllib/mlflash/mx35xx/RA6M4/mx35_spi_driver.o
 .text.mx_spi_init
                0x00000000       0x14 ./mllib/mlflash/mx35xx/RA6M4/mx35_spi_driver.o
 .data.pQspi    0x00000000        0x4 ./mllib/mlflash/mx35xx/RA6M4/mx35_spi_driver.o
 .debug_info    0x00000000     0xa301 ./mllib/mlflash/mx35xx/RA6M4/mx35_spi_driver.o
 .debug_abbrev  0x00000000      0x35b ./mllib/mlflash/mx35xx/RA6M4/mx35_spi_driver.o
 .debug_loc     0x00000000      0x3b6 ./mllib/mlflash/mx35xx/RA6M4/mx35_spi_driver.o
 .debug_aranges
                0x00000000       0x30 ./mllib/mlflash/mx35xx/RA6M4/mx35_spi_driver.o
 .debug_ranges  0x00000000       0x20 ./mllib/mlflash/mx35xx/RA6M4/mx35_spi_driver.o
 .debug_line    0x00000000      0x7b0 ./mllib/mlflash/mx35xx/RA6M4/mx35_spi_driver.o
 .debug_str     0x00000000     0x797e ./mllib/mlflash/mx35xx/RA6M4/mx35_spi_driver.o
 .comment       0x00000000       0x4d ./mllib/mlflash/mx35xx/RA6M4/mx35_spi_driver.o
 .debug_frame   0x00000000       0x78 ./mllib/mlflash/mx35xx/RA6M4/mx35_spi_driver.o
 .ARM.attributes
                0x00000000       0x3a ./mllib/mlflash/mx35xx/RA6M4/mx35_spi_driver.o
 .text          0x00000000        0x0 ./mllib/mlflash/mx35xx/mx35.o
 .data          0x00000000        0x0 ./mllib/mlflash/mx35xx/mx35.o
 .bss           0x00000000        0x0 ./mllib/mlflash/mx35xx/mx35.o
 .text.mx_id_read
                0x00000000       0x26 ./mllib/mlflash/mx35xx/mx35.o
 .text.mx_status_read
                0x00000000       0x26 ./mllib/mlflash/mx35xx/mx35.o
 .text.mx_cnfg_read
                0x00000000       0x26 ./mllib/mlflash/mx35xx/mx35.o
 .text.mx_block_protection_read
                0x00000000       0x26 ./mllib/mlflash/mx35xx/mx35.o
 .text.mx_quad_enable
                0x00000000       0x2e ./mllib/mlflash/mx35xx/mx35.o
 .text.mx_protect_disable
                0x00000000       0x2e ./mllib/mlflash/mx35xx/mx35.o
 .text.mx_reset
                0x00000000       0x2c ./mllib/mlflash/mx35xx/mx35.o
 .text.mx_write_enable
                0x00000000       0x2e ./mllib/mlflash/mx35xx/mx35.o
 .text.mx_block_erase
                0x00000000       0x70 ./mllib/mlflash/mx35xx/mx35.o
 .text.mx_program_execute
                0x00000000       0x30 ./mllib/mlflash/mx35xx/mx35.o
 .text.mx_page_write
                0x00000000       0xc0 ./mllib/mlflash/mx35xx/mx35.o
 .text.mx_page_read
                0x00000000       0x90 ./mllib/mlflash/mx35xx/mx35.o
 .text.mx_task  0x00000000      0x124 ./mllib/mlflash/mx35xx/mx35.o
 .rodata.mx_init.str1.4
                0x00000000        0x5 ./mllib/mlflash/mx35xx/mx35.o
 .text.mx_init  0x00000000       0x68 ./mllib/mlflash/mx35xx/mx35.o
 .bss.readBuf   0x00000000      0x800 ./mllib/mlflash/mx35xx/mx35.o
 .bss.writeBuf  0x00000000      0x800 ./mllib/mlflash/mx35xx/mx35.o
 .debug_info    0x00000000     0xae61 ./mllib/mlflash/mx35xx/mx35.o
 .debug_abbrev  0x00000000      0x4b4 ./mllib/mlflash/mx35xx/mx35.o
 .debug_loc     0x00000000      0x689 ./mllib/mlflash/mx35xx/mx35.o
 .debug_aranges
                0x00000000       0x88 ./mllib/mlflash/mx35xx/mx35.o
 .debug_ranges  0x00000000       0x78 ./mllib/mlflash/mx35xx/mx35.o
 .debug_line    0x00000000      0xd36 ./mllib/mlflash/mx35xx/mx35.o
 .debug_str     0x00000000     0x7e63 ./mllib/mlflash/mx35xx/mx35.o
 .comment       0x00000000       0x4d ./mllib/mlflash/mx35xx/mx35.o
 .debug_frame   0x00000000      0x1b4 ./mllib/mlflash/mx35xx/mx35.o
 .ARM.attributes
                0x00000000       0x3a ./mllib/mlflash/mx35xx/mx35.o
 COMMON         0x00000000       0x16 ./mllib/mlflash/mx35xx/mx35.o
 .text          0x00000000        0x0 ./mllib/mlflash/mcuflash/RA6M4/mcu_flash.o
 .data          0x00000000        0x0 ./mllib/mlflash/mcuflash/RA6M4/mcu_flash.o
 .bss           0x00000000        0x0 ./mllib/mlflash/mcuflash/RA6M4/mcu_flash.o
 .text.mcu_flash_read
                0x00000000        0xe ./mllib/mlflash/mcuflash/RA6M4/mcu_flash.o
 .text          0x00000000        0x0 ./mllib/mlflash/cssdcard/RA6M4/cs_sd_spi_driver.o
 .data          0x00000000        0x0 ./mllib/mlflash/cssdcard/RA6M4/cs_sd_spi_driver.o
 .bss           0x00000000        0x0 ./mllib/mlflash/cssdcard/RA6M4/cs_sd_spi_driver.o
 .text.cssd_rw_buf
                0x00000000       0x14 ./mllib/mlflash/cssdcard/RA6M4/cs_sd_spi_driver.o
 .text.cssd_spi_clean_up
                0x00000000       0x10 ./mllib/mlflash/cssdcard/RA6M4/cs_sd_spi_driver.o
 .text          0x00000000        0x0 ./mllib/mlflash/cssdcard/cs_sdcard.o
 .data          0x00000000        0x0 ./mllib/mlflash/cssdcard/cs_sdcard.o
 .bss           0x00000000        0x0 ./mllib/mlflash/cssdcard/cs_sdcard.o
 .text.cssd_read_a_sector
                0x00000000       0x78 ./mllib/mlflash/cssdcard/cs_sdcard.o
 .text.cssd_write_a_sector
                0x00000000       0xd8 ./mllib/mlflash/cssdcard/cs_sdcard.o
 .rodata.cssd_task.str1.4
                0x00000000       0x36 ./mllib/mlflash/cssdcard/cs_sdcard.o
 .text.cssd_task
                0x00000000      0x100 ./mllib/mlflash/cssdcard/cs_sdcard.o
 .text.cssd_driver_uninstall
                0x00000000        0x8 ./mllib/mlflash/cssdcard/cs_sdcard.o
 .text          0x00000000        0x0 ./mllib/iap/RA6M4/iap_mcu_port.o
 .data          0x00000000        0x0 ./mllib/iap/RA6M4/iap_mcu_port.o
 .bss           0x00000000        0x0 ./mllib/iap/RA6M4/iap_mcu_port.o
 .text          0x00000000        0x0 ./mllib/iap/iap.o
 .data          0x00000000        0x0 ./mllib/iap/iap.o
 .bss           0x00000000        0x0 ./mllib/iap/iap.o
 .text          0x00000000        0x0 ./mllib/dataStorage/ds.o
 .data          0x00000000        0x0 ./mllib/dataStorage/ds.o
 .bss           0x00000000        0x0 ./mllib/dataStorage/ds.o
 .text.ds_tray_dat_test
                0x00000000        0x2 ./mllib/dataStorage/ds.o
 .text.ds_file_seek_end
                0x00000000       0x10 ./mllib/dataStorage/ds.o
 .text.ds_write_file
                0x00000000       0x18 ./mllib/dataStorage/ds.o
 .text.ds_read_file
                0x00000000       0x10 ./mllib/dataStorage/ds.o
 .text          0x00000000        0x0 ./mllib/dataStorage/ds_file.o
 .data          0x00000000        0x0 ./mllib/dataStorage/ds_file.o
 .bss           0x00000000        0x0 ./mllib/dataStorage/ds_file.o
 .text.dsf_backup
                0x00000000       0x50 ./mllib/dataStorage/ds_file.o
 .text.dsf_close
                0x00000000        0x6 ./mllib/dataStorage/ds_file.o
 .rodata.__FUNCTION__.27717
                0x00000000        0xb ./mllib/dataStorage/ds_file.o
 .text          0x00000000        0x0 ./mllib/dataStorage/ds_log.o
 .data          0x00000000        0x0 ./mllib/dataStorage/ds_log.o
 .bss           0x00000000        0x0 ./mllib/dataStorage/ds_log.o
 .text          0x00000000        0x0 ./mllib/dataStorage/ds_tray.o
 .data          0x00000000        0x0 ./mllib/dataStorage/ds_tray.o
 .bss           0x00000000        0x0 ./mllib/dataStorage/ds_tray.o
 .text.ds_tray_write_chache
                0x00000000       0x6c ./mllib/dataStorage/ds_tray.o
 .text.ds_tray_file_seek_end
                0x00000000       0x34 ./mllib/dataStorage/ds_tray.o
 .rodata.ds_tray_file_read_lines.str1.4
                0x00000000       0x23 ./mllib/dataStorage/ds_tray.o
 .text.ds_tray_file_read_lines
                0x00000000       0xcc ./mllib/dataStorage/ds_tray.o
 .text.ds_tray_file_init
                0x00000000       0xe8 ./mllib/dataStorage/ds_tray.o
 .bss.trayBaseDataSize
                0x00000000        0x4 ./mllib/dataStorage/ds_tray.o
 .text          0x00000000        0x0 ./mllib/ctp/ra6m4/ctp_can_driver.o
 .data          0x00000000        0x0 ./mllib/ctp/ra6m4/ctp_can_driver.o
 .bss           0x00000000        0x0 ./mllib/ctp/ra6m4/ctp_can_driver.o
 .text          0x00000000        0x0 ./mllib/ctp/ctp.o
 .data          0x00000000        0x0 ./mllib/ctp/ctp.o
 .bss           0x00000000        0x0 ./mllib/ctp/ctp.o
 .text.ctp_conn_port_set
                0x00000000       0x14 ./mllib/ctp/ctp.o
 .text.ctp_connected
                0x00000000       0x30 ./mllib/ctp/ctp.o
 .text.ctp_sn_generate
                0x00000000       0x14 ./mllib/ctp/ctp.o
 .text.ctp_test
                0x00000000       0x78 ./mllib/ctp/ctp.o
 .bss.ccid.29066
                0x00000000        0x1 ./mllib/ctp/ctp.o
 .text          0x00000000        0x0 ./combine/cmb_bl.o
 .data          0x00000000        0x0 ./combine/cmb_bl.o
 .bss           0x00000000        0x0 ./combine/cmb_bl.o
 .debug_line    0x00000000        0x0 ./combine/cmb_bl.o
 .debug_str     0x00000000      0x104 ./combine/cmb_bl.o
 .comment       0x00000000       0x4d ./combine/cmb_bl.o
 .ARM.attributes
                0x00000000       0x3c ./combine/cmb_bl.o
 .text          0x00000000        0x0 ./combine/cmb_box.o
 .data          0x00000000        0x0 ./combine/cmb_box.o
 .bss           0x00000000        0x0 ./combine/cmb_box.o
 .debug_line    0x00000000        0x0 ./combine/cmb_box.o
 .debug_str     0x00000000      0x105 ./combine/cmb_box.o
 .comment       0x00000000       0x4d ./combine/cmb_box.o
 .ARM.attributes
                0x00000000       0x3c ./combine/cmb_box.o
 .text          0x00000000        0x0 ./combine/cmb_chnl.o
 .data          0x00000000        0x0 ./combine/cmb_chnl.o
 .bss           0x00000000        0x0 ./combine/cmb_chnl.o
 .debug_line    0x00000000        0x0 ./combine/cmb_chnl.o
 .debug_str     0x00000000      0x106 ./combine/cmb_chnl.o
 .comment       0x00000000       0x4d ./combine/cmb_chnl.o
 .ARM.attributes
                0x00000000       0x3c ./combine/cmb_chnl.o
 .text          0x00000000        0x0 ./combine/cmb_ctp.o
 .data          0x00000000        0x0 ./combine/cmb_ctp.o
 .bss           0x00000000        0x0 ./combine/cmb_ctp.o
 .debug_line    0x00000000        0x0 ./combine/cmb_ctp.o
 .debug_str     0x00000000      0x105 ./combine/cmb_ctp.o
 .comment       0x00000000       0x4d ./combine/cmb_ctp.o
 .ARM.attributes
                0x00000000       0x3c ./combine/cmb_ctp.o
 .text          0x00000000        0x0 ./combine/cmb_mdl.o
 .data          0x00000000        0x0 ./combine/cmb_mdl.o
 .bss           0x00000000        0x0 ./combine/cmb_mdl.o
 .debug_line    0x00000000        0x0 ./combine/cmb_mdl.o
 .debug_str     0x00000000      0x105 ./combine/cmb_mdl.o
 .comment       0x00000000       0x4d ./combine/cmb_mdl.o
 .ARM.attributes
                0x00000000       0x3c ./combine/cmb_mdl.o
 .text          0x00000000        0x0 ./combine/cmb_ntp_v1.o
 .data          0x00000000        0x0 ./combine/cmb_ntp_v1.o
 .bss           0x00000000        0x0 ./combine/cmb_ntp_v1.o
 .debug_line    0x00000000        0x0 ./combine/cmb_ntp_v1.o
 .debug_str     0x00000000      0x108 ./combine/cmb_ntp_v1.o
 .comment       0x00000000       0x4d ./combine/cmb_ntp_v1.o
 .ARM.attributes
                0x00000000       0x3c ./combine/cmb_ntp_v1.o
 .text          0x00000000        0x0 ./baseStruct/base_box.o
 .data          0x00000000        0x0 ./baseStruct/base_box.o
 .bss           0x00000000        0x0 ./baseStruct/base_box.o
 .debug_info    0x00000000      0x906 ./baseStruct/base_box.o
 .debug_abbrev  0x00000000      0x19e ./baseStruct/base_box.o
 .debug_aranges
                0x00000000       0x18 ./baseStruct/base_box.o
 .debug_line    0x00000000      0x116 ./baseStruct/base_box.o
 .debug_str     0x00000000      0x56e ./baseStruct/base_box.o
 .comment       0x00000000       0x4d ./baseStruct/base_box.o
 .ARM.attributes
                0x00000000       0x3c ./baseStruct/base_box.o
 .text          0x00000000        0x0 ./app/u_app.o
 .data          0x00000000        0x0 ./app/u_app.o
 .bss           0x00000000        0x0 ./app/u_app.o
 COMMON         0x00000000        0x1 ./app/u_app.o
 .text          0x00000000       0xa0 c:/renesas/ra/e2studio_v2021-04_fsp_v3.0.0/toolchains/gcc_arm/9_2020q2/bin/../lib/gcc/arm-none-eabi/9.3.1/thumb/v8-m.main+fp/hard\libgcc.a(_aeabi_ldivmod.o)
 .data          0x00000000        0x0 c:/renesas/ra/e2studio_v2021-04_fsp_v3.0.0/toolchains/gcc_arm/9_2020q2/bin/../lib/gcc/arm-none-eabi/9.3.1/thumb/v8-m.main+fp/hard\libgcc.a(_aeabi_ldivmod.o)
 .bss           0x00000000        0x0 c:/renesas/ra/e2studio_v2021-04_fsp_v3.0.0/toolchains/gcc_arm/9_2020q2/bin/../lib/gcc/arm-none-eabi/9.3.1/thumb/v8-m.main+fp/hard\libgcc.a(_aeabi_ldivmod.o)
 .debug_frame   0x00000000       0x44 c:/renesas/ra/e2studio_v2021-04_fsp_v3.0.0/toolchains/gcc_arm/9_2020q2/bin/../lib/gcc/arm-none-eabi/9.3.1/thumb/v8-m.main+fp/hard\libgcc.a(_aeabi_ldivmod.o)
 .ARM.attributes
                0x00000000       0x22 c:/renesas/ra/e2studio_v2021-04_fsp_v3.0.0/toolchains/gcc_arm/9_2020q2/bin/../lib/gcc/arm-none-eabi/9.3.1/thumb/v8-m.main+fp/hard\libgcc.a(_aeabi_ldivmod.o)
 .text          0x00000000      0x2e8 c:/renesas/ra/e2studio_v2021-04_fsp_v3.0.0/toolchains/gcc_arm/9_2020q2/bin/../lib/gcc/arm-none-eabi/9.3.1/thumb/v8-m.main+fp/hard\libgcc.a(_udivmoddi4.o)
 .data          0x00000000        0x0 c:/renesas/ra/e2studio_v2021-04_fsp_v3.0.0/toolchains/gcc_arm/9_2020q2/bin/../lib/gcc/arm-none-eabi/9.3.1/thumb/v8-m.main+fp/hard\libgcc.a(_udivmoddi4.o)
 .bss           0x00000000        0x0 c:/renesas/ra/e2studio_v2021-04_fsp_v3.0.0/toolchains/gcc_arm/9_2020q2/bin/../lib/gcc/arm-none-eabi/9.3.1/thumb/v8-m.main+fp/hard\libgcc.a(_udivmoddi4.o)
 .ARM.extab     0x00000000        0x0 c:/renesas/ra/e2studio_v2021-04_fsp_v3.0.0/toolchains/gcc_arm/9_2020q2/bin/../lib/gcc/arm-none-eabi/9.3.1/thumb/v8-m.main+fp/hard\libgcc.a(_udivmoddi4.o)
 .ARM.exidx     0x00000000        0x8 c:/renesas/ra/e2studio_v2021-04_fsp_v3.0.0/toolchains/gcc_arm/9_2020q2/bin/../lib/gcc/arm-none-eabi/9.3.1/thumb/v8-m.main+fp/hard\libgcc.a(_udivmoddi4.o)
 .debug_frame   0x00000000       0x38 c:/renesas/ra/e2studio_v2021-04_fsp_v3.0.0/toolchains/gcc_arm/9_2020q2/bin/../lib/gcc/arm-none-eabi/9.3.1/thumb/v8-m.main+fp/hard\libgcc.a(_udivmoddi4.o)
 .ARM.attributes
                0x00000000       0x38 c:/renesas/ra/e2studio_v2021-04_fsp_v3.0.0/toolchains/gcc_arm/9_2020q2/bin/../lib/gcc/arm-none-eabi/9.3.1/thumb/v8-m.main+fp/hard\libgcc.a(_udivmoddi4.o)
 .text          0x00000000        0x4 c:/renesas/ra/e2studio_v2021-04_fsp_v3.0.0/toolchains/gcc_arm/9_2020q2/bin/../lib/gcc/arm-none-eabi/9.3.1/thumb/v8-m.main+fp/hard\libgcc.a(_dvmd_tls.o)
 .data          0x00000000        0x0 c:/renesas/ra/e2studio_v2021-04_fsp_v3.0.0/toolchains/gcc_arm/9_2020q2/bin/../lib/gcc/arm-none-eabi/9.3.1/thumb/v8-m.main+fp/hard\libgcc.a(_dvmd_tls.o)
 .bss           0x00000000        0x0 c:/renesas/ra/e2studio_v2021-04_fsp_v3.0.0/toolchains/gcc_arm/9_2020q2/bin/../lib/gcc/arm-none-eabi/9.3.1/thumb/v8-m.main+fp/hard\libgcc.a(_dvmd_tls.o)
 .ARM.attributes
                0x00000000       0x22 c:/renesas/ra/e2studio_v2021-04_fsp_v3.0.0/toolchains/gcc_arm/9_2020q2/bin/../lib/gcc/arm-none-eabi/9.3.1/thumb/v8-m.main+fp/hard\libgcc.a(_dvmd_tls.o)
 .text          0x00000000        0x0 c:/renesas/ra/e2studio_v2021-04_fsp_v3.0.0/toolchains/gcc_arm/9_2020q2/bin/../lib/gcc/arm-none-eabi/9.3.1/../../../../arm-none-eabi/lib/thumb/v8-m.main+fp/hard\libg_nano.a(lib_a-errno.o)
 .data          0x00000000        0x0 c:/renesas/ra/e2studio_v2021-04_fsp_v3.0.0/toolchains/gcc_arm/9_2020q2/bin/../lib/gcc/arm-none-eabi/9.3.1/../../../../arm-none-eabi/lib/thumb/v8-m.main+fp/hard\libg_nano.a(lib_a-errno.o)
 .bss           0x00000000        0x0 c:/renesas/ra/e2studio_v2021-04_fsp_v3.0.0/toolchains/gcc_arm/9_2020q2/bin/../lib/gcc/arm-none-eabi/9.3.1/../../../../arm-none-eabi/lib/thumb/v8-m.main+fp/hard\libg_nano.a(lib_a-errno.o)
 .text          0x00000000        0x0 c:/renesas/ra/e2studio_v2021-04_fsp_v3.0.0/toolchains/gcc_arm/9_2020q2/bin/../lib/gcc/arm-none-eabi/9.3.1/../../../../arm-none-eabi/lib/thumb/v8-m.main+fp/hard\libg_nano.a(lib_a-exit.o)
 .data          0x00000000        0x0 c:/renesas/ra/e2studio_v2021-04_fsp_v3.0.0/toolchains/gcc_arm/9_2020q2/bin/../lib/gcc/arm-none-eabi/9.3.1/../../../../arm-none-eabi/lib/thumb/v8-m.main+fp/hard\libg_nano.a(lib_a-exit.o)
 .bss           0x00000000        0x0 c:/renesas/ra/e2studio_v2021-04_fsp_v3.0.0/toolchains/gcc_arm/9_2020q2/bin/../lib/gcc/arm-none-eabi/9.3.1/../../../../arm-none-eabi/lib/thumb/v8-m.main+fp/hard\libg_nano.a(lib_a-exit.o)
 .text.exit     0x00000000       0x28 c:/renesas/ra/e2studio_v2021-04_fsp_v3.0.0/toolchains/gcc_arm/9_2020q2/bin/../lib/gcc/arm-none-eabi/9.3.1/../../../../arm-none-eabi/lib/thumb/v8-m.main+fp/hard\libg_nano.a(lib_a-exit.o)
 .debug_frame   0x00000000       0x28 c:/renesas/ra/e2studio_v2021-04_fsp_v3.0.0/toolchains/gcc_arm/9_2020q2/bin/../lib/gcc/arm-none-eabi/9.3.1/../../../../arm-none-eabi/lib/thumb/v8-m.main+fp/hard\libg_nano.a(lib_a-exit.o)
 .ARM.attributes
                0x00000000       0x38 c:/renesas/ra/e2studio_v2021-04_fsp_v3.0.0/toolchains/gcc_arm/9_2020q2/bin/../lib/gcc/arm-none-eabi/9.3.1/../../../../arm-none-eabi/lib/thumb/v8-m.main+fp/hard\libg_nano.a(lib_a-exit.o)
 .text          0x00000000        0x0 c:/renesas/ra/e2studio_v2021-04_fsp_v3.0.0/toolchains/gcc_arm/9_2020q2/bin/../lib/gcc/arm-none-eabi/9.3.1/../../../../arm-none-eabi/lib/thumb/v8-m.main+fp/hard\libg_nano.a(lib_a-impure.o)
 .data          0x00000000        0x0 c:/renesas/ra/e2studio_v2021-04_fsp_v3.0.0/toolchains/gcc_arm/9_2020q2/bin/../lib/gcc/arm-none-eabi/9.3.1/../../../../arm-none-eabi/lib/thumb/v8-m.main+fp/hard\libg_nano.a(lib_a-impure.o)
 .bss           0x00000000        0x0 c:/renesas/ra/e2studio_v2021-04_fsp_v3.0.0/toolchains/gcc_arm/9_2020q2/bin/../lib/gcc/arm-none-eabi/9.3.1/../../../../arm-none-eabi/lib/thumb/v8-m.main+fp/hard\libg_nano.a(lib_a-impure.o)
 .rodata._global_impure_ptr
                0x00000000        0x4 c:/renesas/ra/e2studio_v2021-04_fsp_v3.0.0/toolchains/gcc_arm/9_2020q2/bin/../lib/gcc/arm-none-eabi/9.3.1/../../../../arm-none-eabi/lib/thumb/v8-m.main+fp/hard\libg_nano.a(lib_a-impure.o)
 .text          0x00000000        0x0 c:/renesas/ra/e2studio_v2021-04_fsp_v3.0.0/toolchains/gcc_arm/9_2020q2/bin/../lib/gcc/arm-none-eabi/9.3.1/../../../../arm-none-eabi/lib/thumb/v8-m.main+fp/hard\libg_nano.a(lib_a-init.o)
 .data          0x00000000        0x0 c:/renesas/ra/e2studio_v2021-04_fsp_v3.0.0/toolchains/gcc_arm/9_2020q2/bin/../lib/gcc/arm-none-eabi/9.3.1/../../../../arm-none-eabi/lib/thumb/v8-m.main+fp/hard\libg_nano.a(lib_a-init.o)
 .bss           0x00000000        0x0 c:/renesas/ra/e2studio_v2021-04_fsp_v3.0.0/toolchains/gcc_arm/9_2020q2/bin/../lib/gcc/arm-none-eabi/9.3.1/../../../../arm-none-eabi/lib/thumb/v8-m.main+fp/hard\libg_nano.a(lib_a-init.o)
 .text.__libc_init_array
                0x00000000       0x48 c:/renesas/ra/e2studio_v2021-04_fsp_v3.0.0/toolchains/gcc_arm/9_2020q2/bin/../lib/gcc/arm-none-eabi/9.3.1/../../../../arm-none-eabi/lib/thumb/v8-m.main+fp/hard\libg_nano.a(lib_a-init.o)
 .debug_frame   0x00000000       0x2c c:/renesas/ra/e2studio_v2021-04_fsp_v3.0.0/toolchains/gcc_arm/9_2020q2/bin/../lib/gcc/arm-none-eabi/9.3.1/../../../../arm-none-eabi/lib/thumb/v8-m.main+fp/hard\libg_nano.a(lib_a-init.o)
 .ARM.attributes
                0x00000000       0x38 c:/renesas/ra/e2studio_v2021-04_fsp_v3.0.0/toolchains/gcc_arm/9_2020q2/bin/../lib/gcc/arm-none-eabi/9.3.1/../../../../arm-none-eabi/lib/thumb/v8-m.main+fp/hard\libg_nano.a(lib_a-init.o)
 .text          0x00000000        0x0 c:/renesas/ra/e2studio_v2021-04_fsp_v3.0.0/toolchains/gcc_arm/9_2020q2/bin/../lib/gcc/arm-none-eabi/9.3.1/../../../../arm-none-eabi/lib/thumb/v8-m.main+fp/hard\libg_nano.a(lib_a-memcmp.o)
 .data          0x00000000        0x0 c:/renesas/ra/e2studio_v2021-04_fsp_v3.0.0/toolchains/gcc_arm/9_2020q2/bin/../lib/gcc/arm-none-eabi/9.3.1/../../../../arm-none-eabi/lib/thumb/v8-m.main+fp/hard\libg_nano.a(lib_a-memcmp.o)
 .bss           0x00000000        0x0 c:/renesas/ra/e2studio_v2021-04_fsp_v3.0.0/toolchains/gcc_arm/9_2020q2/bin/../lib/gcc/arm-none-eabi/9.3.1/../../../../arm-none-eabi/lib/thumb/v8-m.main+fp/hard\libg_nano.a(lib_a-memcmp.o)
 .text          0x00000000        0x0 c:/renesas/ra/e2studio_v2021-04_fsp_v3.0.0/toolchains/gcc_arm/9_2020q2/bin/../lib/gcc/arm-none-eabi/9.3.1/../../../../arm-none-eabi/lib/thumb/v8-m.main+fp/hard\libg_nano.a(lib_a-memcpy-stub.o)
 .data          0x00000000        0x0 c:/renesas/ra/e2studio_v2021-04_fsp_v3.0.0/toolchains/gcc_arm/9_2020q2/bin/../lib/gcc/arm-none-eabi/9.3.1/../../../../arm-none-eabi/lib/thumb/v8-m.main+fp/hard\libg_nano.a(lib_a-memcpy-stub.o)
 .bss           0x00000000        0x0 c:/renesas/ra/e2studio_v2021-04_fsp_v3.0.0/toolchains/gcc_arm/9_2020q2/bin/../lib/gcc/arm-none-eabi/9.3.1/../../../../arm-none-eabi/lib/thumb/v8-m.main+fp/hard\libg_nano.a(lib_a-memcpy-stub.o)
 .text          0x00000000        0x0 c:/renesas/ra/e2studio_v2021-04_fsp_v3.0.0/toolchains/gcc_arm/9_2020q2/bin/../lib/gcc/arm-none-eabi/9.3.1/../../../../arm-none-eabi/lib/thumb/v8-m.main+fp/hard\libg_nano.a(lib_a-memset.o)
 .data          0x00000000        0x0 c:/renesas/ra/e2studio_v2021-04_fsp_v3.0.0/toolchains/gcc_arm/9_2020q2/bin/../lib/gcc/arm-none-eabi/9.3.1/../../../../arm-none-eabi/lib/thumb/v8-m.main+fp/hard\libg_nano.a(lib_a-memset.o)
 .bss           0x00000000        0x0 c:/renesas/ra/e2studio_v2021-04_fsp_v3.0.0/toolchains/gcc_arm/9_2020q2/bin/../lib/gcc/arm-none-eabi/9.3.1/../../../../arm-none-eabi/lib/thumb/v8-m.main+fp/hard\libg_nano.a(lib_a-memset.o)
 .text          0x00000000        0x0 c:/renesas/ra/e2studio_v2021-04_fsp_v3.0.0/toolchains/gcc_arm/9_2020q2/bin/../lib/gcc/arm-none-eabi/9.3.1/../../../../arm-none-eabi/lib/thumb/v8-m.main+fp/hard\libg_nano.a(lib_a-sprintf.o)
 .data          0x00000000        0x0 c:/renesas/ra/e2studio_v2021-04_fsp_v3.0.0/toolchains/gcc_arm/9_2020q2/bin/../lib/gcc/arm-none-eabi/9.3.1/../../../../arm-none-eabi/lib/thumb/v8-m.main+fp/hard\libg_nano.a(lib_a-sprintf.o)
 .bss           0x00000000        0x0 c:/renesas/ra/e2studio_v2021-04_fsp_v3.0.0/toolchains/gcc_arm/9_2020q2/bin/../lib/gcc/arm-none-eabi/9.3.1/../../../../arm-none-eabi/lib/thumb/v8-m.main+fp/hard\libg_nano.a(lib_a-sprintf.o)
 .text._sprintf_r
                0x00000000       0x38 c:/renesas/ra/e2studio_v2021-04_fsp_v3.0.0/toolchains/gcc_arm/9_2020q2/bin/../lib/gcc/arm-none-eabi/9.3.1/../../../../arm-none-eabi/lib/thumb/v8-m.main+fp/hard\libg_nano.a(lib_a-sprintf.o)
 .data          0x00000000        0x0 c:/renesas/ra/e2studio_v2021-04_fsp_v3.0.0/toolchains/gcc_arm/9_2020q2/bin/../lib/gcc/arm-none-eabi/9.3.1/../../../../arm-none-eabi/lib/thumb/v8-m.main+fp/hard\libg_nano.a(lib_a-strcmp.o)
 .bss           0x00000000        0x0 c:/renesas/ra/e2studio_v2021-04_fsp_v3.0.0/toolchains/gcc_arm/9_2020q2/bin/../lib/gcc/arm-none-eabi/9.3.1/../../../../arm-none-eabi/lib/thumb/v8-m.main+fp/hard\libg_nano.a(lib_a-strcmp.o)
 .text          0x00000000        0x0 c:/renesas/ra/e2studio_v2021-04_fsp_v3.0.0/toolchains/gcc_arm/9_2020q2/bin/../lib/gcc/arm-none-eabi/9.3.1/../../../../arm-none-eabi/lib/thumb/v8-m.main+fp/hard\libg_nano.a(lib_a-strcpy.o)
 .data          0x00000000        0x0 c:/renesas/ra/e2studio_v2021-04_fsp_v3.0.0/toolchains/gcc_arm/9_2020q2/bin/../lib/gcc/arm-none-eabi/9.3.1/../../../../arm-none-eabi/lib/thumb/v8-m.main+fp/hard\libg_nano.a(lib_a-strcpy.o)
 .bss           0x00000000        0x0 c:/renesas/ra/e2studio_v2021-04_fsp_v3.0.0/toolchains/gcc_arm/9_2020q2/bin/../lib/gcc/arm-none-eabi/9.3.1/../../../../arm-none-eabi/lib/thumb/v8-m.main+fp/hard\libg_nano.a(lib_a-strcpy.o)
 .data          0x00000000        0x0 c:/renesas/ra/e2studio_v2021-04_fsp_v3.0.0/toolchains/gcc_arm/9_2020q2/bin/../lib/gcc/arm-none-eabi/9.3.1/../../../../arm-none-eabi/lib/thumb/v8-m.main+fp/hard\libg_nano.a(lib_a-strlen.o)
 .bss           0x00000000        0x0 c:/renesas/ra/e2studio_v2021-04_fsp_v3.0.0/toolchains/gcc_arm/9_2020q2/bin/../lib/gcc/arm-none-eabi/9.3.1/../../../../arm-none-eabi/lib/thumb/v8-m.main+fp/hard\libg_nano.a(lib_a-strlen.o)
 .text          0x00000000        0x0 c:/renesas/ra/e2studio_v2021-04_fsp_v3.0.0/toolchains/gcc_arm/9_2020q2/bin/../lib/gcc/arm-none-eabi/9.3.1/../../../../arm-none-eabi/lib/thumb/v8-m.main+fp/hard\libg_nano.a(lib_a-vsnprintf.o)
 .data          0x00000000        0x0 c:/renesas/ra/e2studio_v2021-04_fsp_v3.0.0/toolchains/gcc_arm/9_2020q2/bin/../lib/gcc/arm-none-eabi/9.3.1/../../../../arm-none-eabi/lib/thumb/v8-m.main+fp/hard\libg_nano.a(lib_a-vsnprintf.o)
 .bss           0x00000000        0x0 c:/renesas/ra/e2studio_v2021-04_fsp_v3.0.0/toolchains/gcc_arm/9_2020q2/bin/../lib/gcc/arm-none-eabi/9.3.1/../../../../arm-none-eabi/lib/thumb/v8-m.main+fp/hard\libg_nano.a(lib_a-vsnprintf.o)
 .text          0x00000000        0x0 c:/renesas/ra/e2studio_v2021-04_fsp_v3.0.0/toolchains/gcc_arm/9_2020q2/bin/../lib/gcc/arm-none-eabi/9.3.1/../../../../arm-none-eabi/lib/thumb/v8-m.main+fp/hard\libg_nano.a(lib_a-vsprintf.o)
 .data          0x00000000        0x0 c:/renesas/ra/e2studio_v2021-04_fsp_v3.0.0/toolchains/gcc_arm/9_2020q2/bin/../lib/gcc/arm-none-eabi/9.3.1/../../../../arm-none-eabi/lib/thumb/v8-m.main+fp/hard\libg_nano.a(lib_a-vsprintf.o)
 .bss           0x00000000        0x0 c:/renesas/ra/e2studio_v2021-04_fsp_v3.0.0/toolchains/gcc_arm/9_2020q2/bin/../lib/gcc/arm-none-eabi/9.3.1/../../../../arm-none-eabi/lib/thumb/v8-m.main+fp/hard\libg_nano.a(lib_a-vsprintf.o)
 .text          0x00000000        0x0 c:/renesas/ra/e2studio_v2021-04_fsp_v3.0.0/toolchains/gcc_arm/9_2020q2/bin/../lib/gcc/arm-none-eabi/9.3.1/../../../../arm-none-eabi/lib/thumb/v8-m.main+fp/hard\libg_nano.a(lib_a-nano-svfprintf.o)
 .data          0x00000000        0x0 c:/renesas/ra/e2studio_v2021-04_fsp_v3.0.0/toolchains/gcc_arm/9_2020q2/bin/../lib/gcc/arm-none-eabi/9.3.1/../../../../arm-none-eabi/lib/thumb/v8-m.main+fp/hard\libg_nano.a(lib_a-nano-svfprintf.o)
 .bss           0x00000000        0x0 c:/renesas/ra/e2studio_v2021-04_fsp_v3.0.0/toolchains/gcc_arm/9_2020q2/bin/../lib/gcc/arm-none-eabi/9.3.1/../../../../arm-none-eabi/lib/thumb/v8-m.main+fp/hard\libg_nano.a(lib_a-nano-svfprintf.o)
 .text.__ssprint_r
                0x00000000       0xf6 c:/renesas/ra/e2studio_v2021-04_fsp_v3.0.0/toolchains/gcc_arm/9_2020q2/bin/../lib/gcc/arm-none-eabi/9.3.1/../../../../arm-none-eabi/lib/thumb/v8-m.main+fp/hard\libg_nano.a(lib_a-nano-svfprintf.o)
 .text          0x00000000        0x0 c:/renesas/ra/e2studio_v2021-04_fsp_v3.0.0/toolchains/gcc_arm/9_2020q2/bin/../lib/gcc/arm-none-eabi/9.3.1/../../../../arm-none-eabi/lib/thumb/v8-m.main+fp/hard\libg_nano.a(lib_a-nano-vfprintf_i.o)
 .data          0x00000000        0x0 c:/renesas/ra/e2studio_v2021-04_fsp_v3.0.0/toolchains/gcc_arm/9_2020q2/bin/../lib/gcc/arm-none-eabi/9.3.1/../../../../arm-none-eabi/lib/thumb/v8-m.main+fp/hard\libg_nano.a(lib_a-nano-vfprintf_i.o)
 .bss           0x00000000        0x0 c:/renesas/ra/e2studio_v2021-04_fsp_v3.0.0/toolchains/gcc_arm/9_2020q2/bin/../lib/gcc/arm-none-eabi/9.3.1/../../../../arm-none-eabi/lib/thumb/v8-m.main+fp/hard\libg_nano.a(lib_a-nano-vfprintf_i.o)
 .text          0x00000000        0x0 c:/renesas/ra/e2studio_v2021-04_fsp_v3.0.0/toolchains/gcc_arm/9_2020q2/bin/../lib/gcc/arm-none-eabi/9.3.1/../../../../arm-none-eabi/lib/thumb/v8-m.main+fp/hard\libg_nano.a(lib_a-memchr-stub.o)
 .data          0x00000000        0x0 c:/renesas/ra/e2studio_v2021-04_fsp_v3.0.0/toolchains/gcc_arm/9_2020q2/bin/../lib/gcc/arm-none-eabi/9.3.1/../../../../arm-none-eabi/lib/thumb/v8-m.main+fp/hard\libg_nano.a(lib_a-memchr-stub.o)
 .bss           0x00000000        0x0 c:/renesas/ra/e2studio_v2021-04_fsp_v3.0.0/toolchains/gcc_arm/9_2020q2/bin/../lib/gcc/arm-none-eabi/9.3.1/../../../../arm-none-eabi/lib/thumb/v8-m.main+fp/hard\libg_nano.a(lib_a-memchr-stub.o)
 .text          0x00000000        0x0 c:/renesas/ra/e2studio_v2021-04_fsp_v3.0.0/toolchains/gcc_arm/9_2020q2/bin/../lib/gcc/arm-none-eabi/9.3.1/../../../../arm-none-eabi/lib/thumb/v8-m.main+fp/hard\libg_nano.a(lib_a-memmove.o)
 .data          0x00000000        0x0 c:/renesas/ra/e2studio_v2021-04_fsp_v3.0.0/toolchains/gcc_arm/9_2020q2/bin/../lib/gcc/arm-none-eabi/9.3.1/../../../../arm-none-eabi/lib/thumb/v8-m.main+fp/hard\libg_nano.a(lib_a-memmove.o)
 .bss           0x00000000        0x0 c:/renesas/ra/e2studio_v2021-04_fsp_v3.0.0/toolchains/gcc_arm/9_2020q2/bin/../lib/gcc/arm-none-eabi/9.3.1/../../../../arm-none-eabi/lib/thumb/v8-m.main+fp/hard\libg_nano.a(lib_a-memmove.o)
 .text          0x00000000        0x0 c:/renesas/ra/e2studio_v2021-04_fsp_v3.0.0/toolchains/gcc_arm/9_2020q2/bin/../lib/gcc/arm-none-eabi/9.3.1/../../../../arm-none-eabi/lib/thumb/v8-m.main+fp/hard\libg_nano.a(lib_a-nano-freer.o)
 .data          0x00000000        0x0 c:/renesas/ra/e2studio_v2021-04_fsp_v3.0.0/toolchains/gcc_arm/9_2020q2/bin/../lib/gcc/arm-none-eabi/9.3.1/../../../../arm-none-eabi/lib/thumb/v8-m.main+fp/hard\libg_nano.a(lib_a-nano-freer.o)
 .bss           0x00000000        0x0 c:/renesas/ra/e2studio_v2021-04_fsp_v3.0.0/toolchains/gcc_arm/9_2020q2/bin/../lib/gcc/arm-none-eabi/9.3.1/../../../../arm-none-eabi/lib/thumb/v8-m.main+fp/hard\libg_nano.a(lib_a-nano-freer.o)
 .text          0x00000000        0x0 c:/renesas/ra/e2studio_v2021-04_fsp_v3.0.0/toolchains/gcc_arm/9_2020q2/bin/../lib/gcc/arm-none-eabi/9.3.1/../../../../arm-none-eabi/lib/thumb/v8-m.main+fp/hard\libg_nano.a(lib_a-nano-mallocr.o)
 .data          0x00000000        0x0 c:/renesas/ra/e2studio_v2021-04_fsp_v3.0.0/toolchains/gcc_arm/9_2020q2/bin/../lib/gcc/arm-none-eabi/9.3.1/../../../../arm-none-eabi/lib/thumb/v8-m.main+fp/hard\libg_nano.a(lib_a-nano-mallocr.o)
 .bss           0x00000000        0x0 c:/renesas/ra/e2studio_v2021-04_fsp_v3.0.0/toolchains/gcc_arm/9_2020q2/bin/../lib/gcc/arm-none-eabi/9.3.1/../../../../arm-none-eabi/lib/thumb/v8-m.main+fp/hard\libg_nano.a(lib_a-nano-mallocr.o)
 .text          0x00000000        0x0 c:/renesas/ra/e2studio_v2021-04_fsp_v3.0.0/toolchains/gcc_arm/9_2020q2/bin/../lib/gcc/arm-none-eabi/9.3.1/../../../../arm-none-eabi/lib/thumb/v8-m.main+fp/hard\libg_nano.a(lib_a-nano-reallocr.o)
 .data          0x00000000        0x0 c:/renesas/ra/e2studio_v2021-04_fsp_v3.0.0/toolchains/gcc_arm/9_2020q2/bin/../lib/gcc/arm-none-eabi/9.3.1/../../../../arm-none-eabi/lib/thumb/v8-m.main+fp/hard\libg_nano.a(lib_a-nano-reallocr.o)
 .bss           0x00000000        0x0 c:/renesas/ra/e2studio_v2021-04_fsp_v3.0.0/toolchains/gcc_arm/9_2020q2/bin/../lib/gcc/arm-none-eabi/9.3.1/../../../../arm-none-eabi/lib/thumb/v8-m.main+fp/hard\libg_nano.a(lib_a-nano-reallocr.o)
 .text          0x00000000        0x0 c:/renesas/ra/e2studio_v2021-04_fsp_v3.0.0/toolchains/gcc_arm/9_2020q2/bin/../lib/gcc/arm-none-eabi/9.3.1/../../../../arm-none-eabi/lib/thumb/v8-m.main+fp/hard\libg_nano.a(lib_a-sbrkr.o)
 .data          0x00000000        0x0 c:/renesas/ra/e2studio_v2021-04_fsp_v3.0.0/toolchains/gcc_arm/9_2020q2/bin/../lib/gcc/arm-none-eabi/9.3.1/../../../../arm-none-eabi/lib/thumb/v8-m.main+fp/hard\libg_nano.a(lib_a-sbrkr.o)
 .bss           0x00000000        0x0 c:/renesas/ra/e2studio_v2021-04_fsp_v3.0.0/toolchains/gcc_arm/9_2020q2/bin/../lib/gcc/arm-none-eabi/9.3.1/../../../../arm-none-eabi/lib/thumb/v8-m.main+fp/hard\libg_nano.a(lib_a-sbrkr.o)
 .text          0x00000000        0x0 c:/renesas/ra/e2studio_v2021-04_fsp_v3.0.0/toolchains/gcc_arm/9_2020q2/bin/../lib/gcc/arm-none-eabi/9.3.1/../../../../arm-none-eabi/lib/thumb/v8-m.main+fp/hard\libg_nano.a(lib_a-mlock.o)
 .data          0x00000000        0x0 c:/renesas/ra/e2studio_v2021-04_fsp_v3.0.0/toolchains/gcc_arm/9_2020q2/bin/../lib/gcc/arm-none-eabi/9.3.1/../../../../arm-none-eabi/lib/thumb/v8-m.main+fp/hard\libg_nano.a(lib_a-mlock.o)
 .bss           0x00000000        0x0 c:/renesas/ra/e2studio_v2021-04_fsp_v3.0.0/toolchains/gcc_arm/9_2020q2/bin/../lib/gcc/arm-none-eabi/9.3.1/../../../../arm-none-eabi/lib/thumb/v8-m.main+fp/hard\libg_nano.a(lib_a-mlock.o)
 .text          0x00000000        0x0 c:/renesas/ra/e2studio_v2021-04_fsp_v3.0.0/toolchains/gcc_arm/9_2020q2/bin/../lib/gcc/arm-none-eabi/9.3.1/../../../../arm-none-eabi/lib/thumb/v8-m.main+fp/hard\libg_nano.a(lib_a-nano-msizer.o)
 .data          0x00000000        0x0 c:/renesas/ra/e2studio_v2021-04_fsp_v3.0.0/toolchains/gcc_arm/9_2020q2/bin/../lib/gcc/arm-none-eabi/9.3.1/../../../../arm-none-eabi/lib/thumb/v8-m.main+fp/hard\libg_nano.a(lib_a-nano-msizer.o)
 .bss           0x00000000        0x0 c:/renesas/ra/e2studio_v2021-04_fsp_v3.0.0/toolchains/gcc_arm/9_2020q2/bin/../lib/gcc/arm-none-eabi/9.3.1/../../../../arm-none-eabi/lib/thumb/v8-m.main+fp/hard\libg_nano.a(lib_a-nano-msizer.o)
 .text          0x00000000        0x0 c:/renesas/ra/e2studio_v2021-04_fsp_v3.0.0/toolchains/gcc_arm/9_2020q2/bin/../lib/gcc/arm-none-eabi/9.3.1/../../../../arm-none-eabi/lib/thumb/v8-m.main+fp/hard\libg_nano.a(lib_a-reent.o)
 .data          0x00000000        0x0 c:/renesas/ra/e2studio_v2021-04_fsp_v3.0.0/toolchains/gcc_arm/9_2020q2/bin/../lib/gcc/arm-none-eabi/9.3.1/../../../../arm-none-eabi/lib/thumb/v8-m.main+fp/hard\libg_nano.a(lib_a-reent.o)
 .bss           0x00000000        0x0 c:/renesas/ra/e2studio_v2021-04_fsp_v3.0.0/toolchains/gcc_arm/9_2020q2/bin/../lib/gcc/arm-none-eabi/9.3.1/../../../../arm-none-eabi/lib/thumb/v8-m.main+fp/hard\libg_nano.a(lib_a-reent.o)
 .text.cleanup_glue
                0x00000000       0x1a c:/renesas/ra/e2studio_v2021-04_fsp_v3.0.0/toolchains/gcc_arm/9_2020q2/bin/../lib/gcc/arm-none-eabi/9.3.1/../../../../arm-none-eabi/lib/thumb/v8-m.main+fp/hard\libg_nano.a(lib_a-reent.o)
 .text._reclaim_reent
                0x00000000       0xb8 c:/renesas/ra/e2studio_v2021-04_fsp_v3.0.0/toolchains/gcc_arm/9_2020q2/bin/../lib/gcc/arm-none-eabi/9.3.1/../../../../arm-none-eabi/lib/thumb/v8-m.main+fp/hard\libg_nano.a(lib_a-reent.o)
 .text          0x00000000        0x0 c:/renesas/ra/e2studio_v2021-04_fsp_v3.0.0/toolchains/gcc_arm/9_2020q2/bin/../lib/gcc/arm-none-eabi/9.3.1/../../../../arm-none-eabi/lib/thumb/v8-m.main+fp/hard\libg_nano.a(lib_a-lock.o)
 .data          0x00000000        0x0 c:/renesas/ra/e2studio_v2021-04_fsp_v3.0.0/toolchains/gcc_arm/9_2020q2/bin/../lib/gcc/arm-none-eabi/9.3.1/../../../../arm-none-eabi/lib/thumb/v8-m.main+fp/hard\libg_nano.a(lib_a-lock.o)
 .bss           0x00000000        0x0 c:/renesas/ra/e2studio_v2021-04_fsp_v3.0.0/toolchains/gcc_arm/9_2020q2/bin/../lib/gcc/arm-none-eabi/9.3.1/../../../../arm-none-eabi/lib/thumb/v8-m.main+fp/hard\libg_nano.a(lib_a-lock.o)
 .text.__retarget_lock_init
                0x00000000        0x2 c:/renesas/ra/e2studio_v2021-04_fsp_v3.0.0/toolchains/gcc_arm/9_2020q2/bin/../lib/gcc/arm-none-eabi/9.3.1/../../../../arm-none-eabi/lib/thumb/v8-m.main+fp/hard\libg_nano.a(lib_a-lock.o)
 .text.__retarget_lock_init_recursive
                0x00000000        0x2 c:/renesas/ra/e2studio_v2021-04_fsp_v3.0.0/toolchains/gcc_arm/9_2020q2/bin/../lib/gcc/arm-none-eabi/9.3.1/../../../../arm-none-eabi/lib/thumb/v8-m.main+fp/hard\libg_nano.a(lib_a-lock.o)
 .text.__retarget_lock_close
                0x00000000        0x2 c:/renesas/ra/e2studio_v2021-04_fsp_v3.0.0/toolchains/gcc_arm/9_2020q2/bin/../lib/gcc/arm-none-eabi/9.3.1/../../../../arm-none-eabi/lib/thumb/v8-m.main+fp/hard\libg_nano.a(lib_a-lock.o)
 .text.__retarget_lock_close_recursive
                0x00000000        0x2 c:/renesas/ra/e2studio_v2021-04_fsp_v3.0.0/toolchains/gcc_arm/9_2020q2/bin/../lib/gcc/arm-none-eabi/9.3.1/../../../../arm-none-eabi/lib/thumb/v8-m.main+fp/hard\libg_nano.a(lib_a-lock.o)
 .text.__retarget_lock_acquire
                0x00000000        0x2 c:/renesas/ra/e2studio_v2021-04_fsp_v3.0.0/toolchains/gcc_arm/9_2020q2/bin/../lib/gcc/arm-none-eabi/9.3.1/../../../../arm-none-eabi/lib/thumb/v8-m.main+fp/hard\libg_nano.a(lib_a-lock.o)
 .text.__retarget_lock_try_acquire
                0x00000000        0x4 c:/renesas/ra/e2studio_v2021-04_fsp_v3.0.0/toolchains/gcc_arm/9_2020q2/bin/../lib/gcc/arm-none-eabi/9.3.1/../../../../arm-none-eabi/lib/thumb/v8-m.main+fp/hard\libg_nano.a(lib_a-lock.o)
 .text.__retarget_lock_try_acquire_recursive
                0x00000000        0x4 c:/renesas/ra/e2studio_v2021-04_fsp_v3.0.0/toolchains/gcc_arm/9_2020q2/bin/../lib/gcc/arm-none-eabi/9.3.1/../../../../arm-none-eabi/lib/thumb/v8-m.main+fp/hard\libg_nano.a(lib_a-lock.o)
 .text.__retarget_lock_release
                0x00000000        0x2 c:/renesas/ra/e2studio_v2021-04_fsp_v3.0.0/toolchains/gcc_arm/9_2020q2/bin/../lib/gcc/arm-none-eabi/9.3.1/../../../../arm-none-eabi/lib/thumb/v8-m.main+fp/hard\libg_nano.a(lib_a-lock.o)
 .text          0x00000000        0x0 c:/renesas/ra/e2studio_v2021-04_fsp_v3.0.0/toolchains/gcc_arm/9_2020q2/bin/../lib/gcc/arm-none-eabi/9.3.1/../../../../arm-none-eabi/lib/thumb/v8-m.main+fp/hard\librdimon_nano.a(rdimon-syscalls.o)
 .data          0x00000000        0x0 c:/renesas/ra/e2studio_v2021-04_fsp_v3.0.0/toolchains/gcc_arm/9_2020q2/bin/../lib/gcc/arm-none-eabi/9.3.1/../../../../arm-none-eabi/lib/thumb/v8-m.main+fp/hard\librdimon_nano.a(rdimon-syscalls.o)
 .bss           0x00000000        0x0 c:/renesas/ra/e2studio_v2021-04_fsp_v3.0.0/toolchains/gcc_arm/9_2020q2/bin/../lib/gcc/arm-none-eabi/9.3.1/../../../../arm-none-eabi/lib/thumb/v8-m.main+fp/hard\librdimon_nano.a(rdimon-syscalls.o)
 .text.findslot
                0x00000000       0x34 c:/renesas/ra/e2studio_v2021-04_fsp_v3.0.0/toolchains/gcc_arm/9_2020q2/bin/../lib/gcc/arm-none-eabi/9.3.1/../../../../arm-none-eabi/lib/thumb/v8-m.main+fp/hard\librdimon_nano.a(rdimon-syscalls.o)
 .text.checkerror
                0x00000000       0x20 c:/renesas/ra/e2studio_v2021-04_fsp_v3.0.0/toolchains/gcc_arm/9_2020q2/bin/../lib/gcc/arm-none-eabi/9.3.1/../../../../arm-none-eabi/lib/thumb/v8-m.main+fp/hard\librdimon_nano.a(rdimon-syscalls.o)
 .text.error    0x00000000       0x1c c:/renesas/ra/e2studio_v2021-04_fsp_v3.0.0/toolchains/gcc_arm/9_2020q2/bin/../lib/gcc/arm-none-eabi/9.3.1/../../../../arm-none-eabi/lib/thumb/v8-m.main+fp/hard\librdimon_nano.a(rdimon-syscalls.o)
 .text._swiread
                0x00000000       0x20 c:/renesas/ra/e2studio_v2021-04_fsp_v3.0.0/toolchains/gcc_arm/9_2020q2/bin/../lib/gcc/arm-none-eabi/9.3.1/../../../../arm-none-eabi/lib/thumb/v8-m.main+fp/hard\librdimon_nano.a(rdimon-syscalls.o)
 .text._read    0x00000000       0x38 c:/renesas/ra/e2studio_v2021-04_fsp_v3.0.0/toolchains/gcc_arm/9_2020q2/bin/../lib/gcc/arm-none-eabi/9.3.1/../../../../arm-none-eabi/lib/thumb/v8-m.main+fp/hard\librdimon_nano.a(rdimon-syscalls.o)
 .text._swilseek
                0x00000000       0x78 c:/renesas/ra/e2studio_v2021-04_fsp_v3.0.0/toolchains/gcc_arm/9_2020q2/bin/../lib/gcc/arm-none-eabi/9.3.1/../../../../arm-none-eabi/lib/thumb/v8-m.main+fp/hard\librdimon_nano.a(rdimon-syscalls.o)
 .text._lseek   0x00000000        0x4 c:/renesas/ra/e2studio_v2021-04_fsp_v3.0.0/toolchains/gcc_arm/9_2020q2/bin/../lib/gcc/arm-none-eabi/9.3.1/../../../../arm-none-eabi/lib/thumb/v8-m.main+fp/hard\librdimon_nano.a(rdimon-syscalls.o)
 .text._swiwrite
                0x00000000       0x20 c:/renesas/ra/e2studio_v2021-04_fsp_v3.0.0/toolchains/gcc_arm/9_2020q2/bin/../lib/gcc/arm-none-eabi/9.3.1/../../../../arm-none-eabi/lib/thumb/v8-m.main+fp/hard\librdimon_nano.a(rdimon-syscalls.o)
 .text._write   0x00000000       0x48 c:/renesas/ra/e2studio_v2021-04_fsp_v3.0.0/toolchains/gcc_arm/9_2020q2/bin/../lib/gcc/arm-none-eabi/9.3.1/../../../../arm-none-eabi/lib/thumb/v8-m.main+fp/hard\librdimon_nano.a(rdimon-syscalls.o)
 .text._swiclose
                0x00000000       0x1a c:/renesas/ra/e2studio_v2021-04_fsp_v3.0.0/toolchains/gcc_arm/9_2020q2/bin/../lib/gcc/arm-none-eabi/9.3.1/../../../../arm-none-eabi/lib/thumb/v8-m.main+fp/hard\librdimon_nano.a(rdimon-syscalls.o)
 .text._close   0x00000000       0x4c c:/renesas/ra/e2studio_v2021-04_fsp_v3.0.0/toolchains/gcc_arm/9_2020q2/bin/../lib/gcc/arm-none-eabi/9.3.1/../../../../arm-none-eabi/lib/thumb/v8-m.main+fp/hard\librdimon_nano.a(rdimon-syscalls.o)
 .text._getpid  0x00000000        0x4 c:/renesas/ra/e2studio_v2021-04_fsp_v3.0.0/toolchains/gcc_arm/9_2020q2/bin/../lib/gcc/arm-none-eabi/9.3.1/../../../../arm-none-eabi/lib/thumb/v8-m.main+fp/hard\librdimon_nano.a(rdimon-syscalls.o)
 .text._sbrk    0x00000000       0x48 c:/renesas/ra/e2studio_v2021-04_fsp_v3.0.0/toolchains/gcc_arm/9_2020q2/bin/../lib/gcc/arm-none-eabi/9.3.1/../../../../arm-none-eabi/lib/thumb/v8-m.main+fp/hard\librdimon_nano.a(rdimon-syscalls.o)
 .text._swistat
                0x00000000       0x42 c:/renesas/ra/e2studio_v2021-04_fsp_v3.0.0/toolchains/gcc_arm/9_2020q2/bin/../lib/gcc/arm-none-eabi/9.3.1/../../../../arm-none-eabi/lib/thumb/v8-m.main+fp/hard\librdimon_nano.a(rdimon-syscalls.o)
 .text._fstat   0x00000000       0x1c c:/renesas/ra/e2studio_v2021-04_fsp_v3.0.0/toolchains/gcc_arm/9_2020q2/bin/../lib/gcc/arm-none-eabi/9.3.1/../../../../arm-none-eabi/lib/thumb/v8-m.main+fp/hard\librdimon_nano.a(rdimon-syscalls.o)
 .text._stat    0x00000000       0x3a c:/renesas/ra/e2studio_v2021-04_fsp_v3.0.0/toolchains/gcc_arm/9_2020q2/bin/../lib/gcc/arm-none-eabi/9.3.1/../../../../arm-none-eabi/lib/thumb/v8-m.main+fp/hard\librdimon_nano.a(rdimon-syscalls.o)
 .text._swiopen
                0x00000000       0xb4 c:/renesas/ra/e2studio_v2021-04_fsp_v3.0.0/toolchains/gcc_arm/9_2020q2/bin/../lib/gcc/arm-none-eabi/9.3.1/../../../../arm-none-eabi/lib/thumb/v8-m.main+fp/hard\librdimon_nano.a(rdimon-syscalls.o)
 .text._open    0x00000000       0x12 c:/renesas/ra/e2studio_v2021-04_fsp_v3.0.0/toolchains/gcc_arm/9_2020q2/bin/../lib/gcc/arm-none-eabi/9.3.1/../../../../arm-none-eabi/lib/thumb/v8-m.main+fp/hard\librdimon_nano.a(rdimon-syscalls.o)
 .rodata._get_semihosting_exts.str1.1
                0x00000000       0x16 c:/renesas/ra/e2studio_v2021-04_fsp_v3.0.0/toolchains/gcc_arm/9_2020q2/bin/../lib/gcc/arm-none-eabi/9.3.1/../../../../arm-none-eabi/lib/thumb/v8-m.main+fp/hard\librdimon_nano.a(rdimon-syscalls.o)
 .text._get_semihosting_exts
                0x00000000       0xb8 c:/renesas/ra/e2studio_v2021-04_fsp_v3.0.0/toolchains/gcc_arm/9_2020q2/bin/../lib/gcc/arm-none-eabi/9.3.1/../../../../arm-none-eabi/lib/thumb/v8-m.main+fp/hard\librdimon_nano.a(rdimon-syscalls.o)
 .text.initialise_semihosting_exts
                0x00000000       0x34 c:/renesas/ra/e2studio_v2021-04_fsp_v3.0.0/toolchains/gcc_arm/9_2020q2/bin/../lib/gcc/arm-none-eabi/9.3.1/../../../../arm-none-eabi/lib/thumb/v8-m.main+fp/hard\librdimon_nano.a(rdimon-syscalls.o)
 .text._has_ext_exit_extended
                0x00000000       0x18 c:/renesas/ra/e2studio_v2021-04_fsp_v3.0.0/toolchains/gcc_arm/9_2020q2/bin/../lib/gcc/arm-none-eabi/9.3.1/../../../../arm-none-eabi/lib/thumb/v8-m.main+fp/hard\librdimon_nano.a(rdimon-syscalls.o)
 .text._has_ext_stdout_stderr
                0x00000000       0x18 c:/renesas/ra/e2studio_v2021-04_fsp_v3.0.0/toolchains/gcc_arm/9_2020q2/bin/../lib/gcc/arm-none-eabi/9.3.1/../../../../arm-none-eabi/lib/thumb/v8-m.main+fp/hard\librdimon_nano.a(rdimon-syscalls.o)
 .rodata.initialise_monitor_handles.str1.1
                0x00000000        0x4 c:/renesas/ra/e2studio_v2021-04_fsp_v3.0.0/toolchains/gcc_arm/9_2020q2/bin/../lib/gcc/arm-none-eabi/9.3.1/../../../../arm-none-eabi/lib/thumb/v8-m.main+fp/hard\librdimon_nano.a(rdimon-syscalls.o)
 .text.initialise_monitor_handles
                0x00000000       0xbc c:/renesas/ra/e2studio_v2021-04_fsp_v3.0.0/toolchains/gcc_arm/9_2020q2/bin/../lib/gcc/arm-none-eabi/9.3.1/../../../../arm-none-eabi/lib/thumb/v8-m.main+fp/hard\librdimon_nano.a(rdimon-syscalls.o)
 .text._link    0x00000000       0x10 c:/renesas/ra/e2studio_v2021-04_fsp_v3.0.0/toolchains/gcc_arm/9_2020q2/bin/../lib/gcc/arm-none-eabi/9.3.1/../../../../arm-none-eabi/lib/thumb/v8-m.main+fp/hard\librdimon_nano.a(rdimon-syscalls.o)
 .text._unlink  0x00000000       0x28 c:/renesas/ra/e2studio_v2021-04_fsp_v3.0.0/toolchains/gcc_arm/9_2020q2/bin/../lib/gcc/arm-none-eabi/9.3.1/../../../../arm-none-eabi/lib/thumb/v8-m.main+fp/hard\librdimon_nano.a(rdimon-syscalls.o)
 .text._gettimeofday
                0x00000000       0x2a c:/renesas/ra/e2studio_v2021-04_fsp_v3.0.0/toolchains/gcc_arm/9_2020q2/bin/../lib/gcc/arm-none-eabi/9.3.1/../../../../arm-none-eabi/lib/thumb/v8-m.main+fp/hard\librdimon_nano.a(rdimon-syscalls.o)
 .text._clock   0x00000000       0x12 c:/renesas/ra/e2studio_v2021-04_fsp_v3.0.0/toolchains/gcc_arm/9_2020q2/bin/../lib/gcc/arm-none-eabi/9.3.1/../../../../arm-none-eabi/lib/thumb/v8-m.main+fp/hard\librdimon_nano.a(rdimon-syscalls.o)
 .text._times   0x00000000       0x16 c:/renesas/ra/e2studio_v2021-04_fsp_v3.0.0/toolchains/gcc_arm/9_2020q2/bin/../lib/gcc/arm-none-eabi/9.3.1/../../../../arm-none-eabi/lib/thumb/v8-m.main+fp/hard\librdimon_nano.a(rdimon-syscalls.o)
 .text._isatty  0x00000000       0x38 c:/renesas/ra/e2studio_v2021-04_fsp_v3.0.0/toolchains/gcc_arm/9_2020q2/bin/../lib/gcc/arm-none-eabi/9.3.1/../../../../arm-none-eabi/lib/thumb/v8-m.main+fp/hard\librdimon_nano.a(rdimon-syscalls.o)
 .text._system  0x00000000       0x3c c:/renesas/ra/e2studio_v2021-04_fsp_v3.0.0/toolchains/gcc_arm/9_2020q2/bin/../lib/gcc/arm-none-eabi/9.3.1/../../../../arm-none-eabi/lib/thumb/v8-m.main+fp/hard\librdimon_nano.a(rdimon-syscalls.o)
 .text._rename  0x00000000       0x36 c:/renesas/ra/e2studio_v2021-04_fsp_v3.0.0/toolchains/gcc_arm/9_2020q2/bin/../lib/gcc/arm-none-eabi/9.3.1/../../../../arm-none-eabi/lib/thumb/v8-m.main+fp/hard\librdimon_nano.a(rdimon-syscalls.o)
 .bss.heap_end.7710
                0x00000000        0x4 c:/renesas/ra/e2studio_v2021-04_fsp_v3.0.0/toolchains/gcc_arm/9_2020q2/bin/../lib/gcc/arm-none-eabi/9.3.1/../../../../arm-none-eabi/lib/thumb/v8-m.main+fp/hard\librdimon_nano.a(rdimon-syscalls.o)
 .bss.monitor_stderr
                0x00000000        0x4 c:/renesas/ra/e2studio_v2021-04_fsp_v3.0.0/toolchains/gcc_arm/9_2020q2/bin/../lib/gcc/arm-none-eabi/9.3.1/../../../../arm-none-eabi/lib/thumb/v8-m.main+fp/hard\librdimon_nano.a(rdimon-syscalls.o)
 .bss.monitor_stdin
                0x00000000        0x4 c:/renesas/ra/e2studio_v2021-04_fsp_v3.0.0/toolchains/gcc_arm/9_2020q2/bin/../lib/gcc/arm-none-eabi/9.3.1/../../../../arm-none-eabi/lib/thumb/v8-m.main+fp/hard\librdimon_nano.a(rdimon-syscalls.o)
 .bss.monitor_stdout
                0x00000000        0x4 c:/renesas/ra/e2studio_v2021-04_fsp_v3.0.0/toolchains/gcc_arm/9_2020q2/bin/../lib/gcc/arm-none-eabi/9.3.1/../../../../arm-none-eabi/lib/thumb/v8-m.main+fp/hard\librdimon_nano.a(rdimon-syscalls.o)
 .bss.openfiles
                0x00000000       0xa0 c:/renesas/ra/e2studio_v2021-04_fsp_v3.0.0/toolchains/gcc_arm/9_2020q2/bin/../lib/gcc/arm-none-eabi/9.3.1/../../../../arm-none-eabi/lib/thumb/v8-m.main+fp/hard\librdimon_nano.a(rdimon-syscalls.o)
 .data.__heap_limit
                0x00000000        0x4 c:/renesas/ra/e2studio_v2021-04_fsp_v3.0.0/toolchains/gcc_arm/9_2020q2/bin/../lib/gcc/arm-none-eabi/9.3.1/../../../../arm-none-eabi/lib/thumb/v8-m.main+fp/hard\librdimon_nano.a(rdimon-syscalls.o)
 .data.supports_ext_exit_extended
                0x00000000        0x4 c:/renesas/ra/e2studio_v2021-04_fsp_v3.0.0/toolchains/gcc_arm/9_2020q2/bin/../lib/gcc/arm-none-eabi/9.3.1/../../../../arm-none-eabi/lib/thumb/v8-m.main+fp/hard\librdimon_nano.a(rdimon-syscalls.o)
 .data.supports_ext_stdout_stderr
                0x00000000        0x4 c:/renesas/ra/e2studio_v2021-04_fsp_v3.0.0/toolchains/gcc_arm/9_2020q2/bin/../lib/gcc/arm-none-eabi/9.3.1/../../../../arm-none-eabi/lib/thumb/v8-m.main+fp/hard\librdimon_nano.a(rdimon-syscalls.o)
 .debug_frame   0x00000000      0x3b0 c:/renesas/ra/e2studio_v2021-04_fsp_v3.0.0/toolchains/gcc_arm/9_2020q2/bin/../lib/gcc/arm-none-eabi/9.3.1/../../../../arm-none-eabi/lib/thumb/v8-m.main+fp/hard\librdimon_nano.a(rdimon-syscalls.o)
 .ARM.attributes
                0x00000000       0x38 c:/renesas/ra/e2studio_v2021-04_fsp_v3.0.0/toolchains/gcc_arm/9_2020q2/bin/../lib/gcc/arm-none-eabi/9.3.1/../../../../arm-none-eabi/lib/thumb/v8-m.main+fp/hard\librdimon_nano.a(rdimon-syscalls.o)
 .text          0x00000000        0x0 c:/renesas/ra/e2studio_v2021-04_fsp_v3.0.0/toolchains/gcc_arm/9_2020q2/bin/../lib/gcc/arm-none-eabi/9.3.1/../../../../arm-none-eabi/lib/thumb/v8-m.main+fp/hard\librdimon_nano.a(rdimon-_exit.o)
 .data          0x00000000        0x0 c:/renesas/ra/e2studio_v2021-04_fsp_v3.0.0/toolchains/gcc_arm/9_2020q2/bin/../lib/gcc/arm-none-eabi/9.3.1/../../../../arm-none-eabi/lib/thumb/v8-m.main+fp/hard\librdimon_nano.a(rdimon-_exit.o)
 .bss           0x00000000        0x0 c:/renesas/ra/e2studio_v2021-04_fsp_v3.0.0/toolchains/gcc_arm/9_2020q2/bin/../lib/gcc/arm-none-eabi/9.3.1/../../../../arm-none-eabi/lib/thumb/v8-m.main+fp/hard\librdimon_nano.a(rdimon-_exit.o)
 .text._exit    0x00000000       0x14 c:/renesas/ra/e2studio_v2021-04_fsp_v3.0.0/toolchains/gcc_arm/9_2020q2/bin/../lib/gcc/arm-none-eabi/9.3.1/../../../../arm-none-eabi/lib/thumb/v8-m.main+fp/hard\librdimon_nano.a(rdimon-_exit.o)
 .debug_frame   0x00000000       0x28 c:/renesas/ra/e2studio_v2021-04_fsp_v3.0.0/toolchains/gcc_arm/9_2020q2/bin/../lib/gcc/arm-none-eabi/9.3.1/../../../../arm-none-eabi/lib/thumb/v8-m.main+fp/hard\librdimon_nano.a(rdimon-_exit.o)
 .ARM.attributes
                0x00000000       0x38 c:/renesas/ra/e2studio_v2021-04_fsp_v3.0.0/toolchains/gcc_arm/9_2020q2/bin/../lib/gcc/arm-none-eabi/9.3.1/../../../../arm-none-eabi/lib/thumb/v8-m.main+fp/hard\librdimon_nano.a(rdimon-_exit.o)
 .text          0x00000000        0x0 c:/renesas/ra/e2studio_v2021-04_fsp_v3.0.0/toolchains/gcc_arm/9_2020q2/bin/../lib/gcc/arm-none-eabi/9.3.1/../../../../arm-none-eabi/lib/thumb/v8-m.main+fp/hard\librdimon_nano.a(rdimon-_kill.o)
 .data          0x00000000        0x0 c:/renesas/ra/e2studio_v2021-04_fsp_v3.0.0/toolchains/gcc_arm/9_2020q2/bin/../lib/gcc/arm-none-eabi/9.3.1/../../../../arm-none-eabi/lib/thumb/v8-m.main+fp/hard\librdimon_nano.a(rdimon-_kill.o)
 .bss           0x00000000        0x0 c:/renesas/ra/e2studio_v2021-04_fsp_v3.0.0/toolchains/gcc_arm/9_2020q2/bin/../lib/gcc/arm-none-eabi/9.3.1/../../../../arm-none-eabi/lib/thumb/v8-m.main+fp/hard\librdimon_nano.a(rdimon-_kill.o)
 .text._kill_shared
                0x00000000       0x26 c:/renesas/ra/e2studio_v2021-04_fsp_v3.0.0/toolchains/gcc_arm/9_2020q2/bin/../lib/gcc/arm-none-eabi/9.3.1/../../../../arm-none-eabi/lib/thumb/v8-m.main+fp/hard\librdimon_nano.a(rdimon-_kill.o)
 .text._kill    0x00000000       0x18 c:/renesas/ra/e2studio_v2021-04_fsp_v3.0.0/toolchains/gcc_arm/9_2020q2/bin/../lib/gcc/arm-none-eabi/9.3.1/../../../../arm-none-eabi/lib/thumb/v8-m.main+fp/hard\librdimon_nano.a(rdimon-_kill.o)
 .debug_frame   0x00000000       0x40 c:/renesas/ra/e2studio_v2021-04_fsp_v3.0.0/toolchains/gcc_arm/9_2020q2/bin/../lib/gcc/arm-none-eabi/9.3.1/../../../../arm-none-eabi/lib/thumb/v8-m.main+fp/hard\librdimon_nano.a(rdimon-_kill.o)
 .ARM.attributes
                0x00000000       0x38 c:/renesas/ra/e2studio_v2021-04_fsp_v3.0.0/toolchains/gcc_arm/9_2020q2/bin/../lib/gcc/arm-none-eabi/9.3.1/../../../../arm-none-eabi/lib/thumb/v8-m.main+fp/hard\librdimon_nano.a(rdimon-_kill.o)
 .text          0x00000000        0x0 c:/renesas/ra/e2studio_v2021-04_fsp_v3.0.0/toolchains/gcc_arm/9_2020q2/bin/../lib/gcc/arm-none-eabi/9.3.1/../../../../arm-none-eabi/lib/thumb/v8-m.main+fp/hard\libc_nano.a(lib_a-findfp.o)
 .data          0x00000000        0x0 c:/renesas/ra/e2studio_v2021-04_fsp_v3.0.0/toolchains/gcc_arm/9_2020q2/bin/../lib/gcc/arm-none-eabi/9.3.1/../../../../arm-none-eabi/lib/thumb/v8-m.main+fp/hard\libc_nano.a(lib_a-findfp.o)
 .bss           0x00000000        0x0 c:/renesas/ra/e2studio_v2021-04_fsp_v3.0.0/toolchains/gcc_arm/9_2020q2/bin/../lib/gcc/arm-none-eabi/9.3.1/../../../../arm-none-eabi/lib/thumb/v8-m.main+fp/hard\libc_nano.a(lib_a-findfp.o)
 .text.std      0x00000000       0x48 c:/renesas/ra/e2studio_v2021-04_fsp_v3.0.0/toolchains/gcc_arm/9_2020q2/bin/../lib/gcc/arm-none-eabi/9.3.1/../../../../arm-none-eabi/lib/thumb/v8-m.main+fp/hard\libc_nano.a(lib_a-findfp.o)
 .text._cleanup_r
                0x00000000        0xc c:/renesas/ra/e2studio_v2021-04_fsp_v3.0.0/toolchains/gcc_arm/9_2020q2/bin/../lib/gcc/arm-none-eabi/9.3.1/../../../../arm-none-eabi/lib/thumb/v8-m.main+fp/hard\libc_nano.a(lib_a-findfp.o)
 .text.__fp_lock
                0x00000000       0x18 c:/renesas/ra/e2studio_v2021-04_fsp_v3.0.0/toolchains/gcc_arm/9_2020q2/bin/../lib/gcc/arm-none-eabi/9.3.1/../../../../arm-none-eabi/lib/thumb/v8-m.main+fp/hard\libc_nano.a(lib_a-findfp.o)
 .text.__fp_unlock
                0x00000000       0x18 c:/renesas/ra/e2studio_v2021-04_fsp_v3.0.0/toolchains/gcc_arm/9_2020q2/bin/../lib/gcc/arm-none-eabi/9.3.1/../../../../arm-none-eabi/lib/thumb/v8-m.main+fp/hard\libc_nano.a(lib_a-findfp.o)
 .text.__sfmoreglue
                0x00000000       0x2c c:/renesas/ra/e2studio_v2021-04_fsp_v3.0.0/toolchains/gcc_arm/9_2020q2/bin/../lib/gcc/arm-none-eabi/9.3.1/../../../../arm-none-eabi/lib/thumb/v8-m.main+fp/hard\libc_nano.a(lib_a-findfp.o)
 .text._cleanup
                0x00000000        0xc c:/renesas/ra/e2studio_v2021-04_fsp_v3.0.0/toolchains/gcc_arm/9_2020q2/bin/../lib/gcc/arm-none-eabi/9.3.1/../../../../arm-none-eabi/lib/thumb/v8-m.main+fp/hard\libc_nano.a(lib_a-findfp.o)
 .text.__sfp_lock_acquire
                0x00000000        0xc c:/renesas/ra/e2studio_v2021-04_fsp_v3.0.0/toolchains/gcc_arm/9_2020q2/bin/../lib/gcc/arm-none-eabi/9.3.1/../../../../arm-none-eabi/lib/thumb/v8-m.main+fp/hard\libc_nano.a(lib_a-findfp.o)
 .text.__sfp_lock_release
                0x00000000        0xc c:/renesas/ra/e2studio_v2021-04_fsp_v3.0.0/toolchains/gcc_arm/9_2020q2/bin/../lib/gcc/arm-none-eabi/9.3.1/../../../../arm-none-eabi/lib/thumb/v8-m.main+fp/hard\libc_nano.a(lib_a-findfp.o)
 .text.__sinit_lock_acquire
                0x00000000        0xc c:/renesas/ra/e2studio_v2021-04_fsp_v3.0.0/toolchains/gcc_arm/9_2020q2/bin/../lib/gcc/arm-none-eabi/9.3.1/../../../../arm-none-eabi/lib/thumb/v8-m.main+fp/hard\libc_nano.a(lib_a-findfp.o)
 .text.__sinit_lock_release
                0x00000000        0xc c:/renesas/ra/e2studio_v2021-04_fsp_v3.0.0/toolchains/gcc_arm/9_2020q2/bin/../lib/gcc/arm-none-eabi/9.3.1/../../../../arm-none-eabi/lib/thumb/v8-m.main+fp/hard\libc_nano.a(lib_a-findfp.o)
 .text.__sinit  0x00000000       0x70 c:/renesas/ra/e2studio_v2021-04_fsp_v3.0.0/toolchains/gcc_arm/9_2020q2/bin/../lib/gcc/arm-none-eabi/9.3.1/../../../../arm-none-eabi/lib/thumb/v8-m.main+fp/hard\libc_nano.a(lib_a-findfp.o)
 .text.__sfp    0x00000000       0x8c c:/renesas/ra/e2studio_v2021-04_fsp_v3.0.0/toolchains/gcc_arm/9_2020q2/bin/../lib/gcc/arm-none-eabi/9.3.1/../../../../arm-none-eabi/lib/thumb/v8-m.main+fp/hard\libc_nano.a(lib_a-findfp.o)
 .text.__fp_lock_all
                0x00000000       0x1c c:/renesas/ra/e2studio_v2021-04_fsp_v3.0.0/toolchains/gcc_arm/9_2020q2/bin/../lib/gcc/arm-none-eabi/9.3.1/../../../../arm-none-eabi/lib/thumb/v8-m.main+fp/hard\libc_nano.a(lib_a-findfp.o)
 .text.__fp_unlock_all
                0x00000000       0x1c c:/renesas/ra/e2studio_v2021-04_fsp_v3.0.0/toolchains/gcc_arm/9_2020q2/bin/../lib/gcc/arm-none-eabi/9.3.1/../../../../arm-none-eabi/lib/thumb/v8-m.main+fp/hard\libc_nano.a(lib_a-findfp.o)
 .text          0x00000000        0x0 c:/renesas/ra/e2studio_v2021-04_fsp_v3.0.0/toolchains/gcc_arm/9_2020q2/bin/../lib/gcc/arm-none-eabi/9.3.1/../../../../arm-none-eabi/lib/thumb/v8-m.main+fp/hard\libc_nano.a(lib_a-fwalk.o)
 .data          0x00000000        0x0 c:/renesas/ra/e2studio_v2021-04_fsp_v3.0.0/toolchains/gcc_arm/9_2020q2/bin/../lib/gcc/arm-none-eabi/9.3.1/../../../../arm-none-eabi/lib/thumb/v8-m.main+fp/hard\libc_nano.a(lib_a-fwalk.o)
 .bss           0x00000000        0x0 c:/renesas/ra/e2studio_v2021-04_fsp_v3.0.0/toolchains/gcc_arm/9_2020q2/bin/../lib/gcc/arm-none-eabi/9.3.1/../../../../arm-none-eabi/lib/thumb/v8-m.main+fp/hard\libc_nano.a(lib_a-fwalk.o)
 .text._fwalk   0x00000000       0x3a c:/renesas/ra/e2studio_v2021-04_fsp_v3.0.0/toolchains/gcc_arm/9_2020q2/bin/../lib/gcc/arm-none-eabi/9.3.1/../../../../arm-none-eabi/lib/thumb/v8-m.main+fp/hard\libc_nano.a(lib_a-fwalk.o)
 .text._fwalk_reent
                0x00000000       0x3e c:/renesas/ra/e2studio_v2021-04_fsp_v3.0.0/toolchains/gcc_arm/9_2020q2/bin/../lib/gcc/arm-none-eabi/9.3.1/../../../../arm-none-eabi/lib/thumb/v8-m.main+fp/hard\libc_nano.a(lib_a-fwalk.o)
 .debug_frame   0x00000000       0x54 c:/renesas/ra/e2studio_v2021-04_fsp_v3.0.0/toolchains/gcc_arm/9_2020q2/bin/../lib/gcc/arm-none-eabi/9.3.1/../../../../arm-none-eabi/lib/thumb/v8-m.main+fp/hard\libc_nano.a(lib_a-fwalk.o)
 .ARM.attributes
                0x00000000       0x38 c:/renesas/ra/e2studio_v2021-04_fsp_v3.0.0/toolchains/gcc_arm/9_2020q2/bin/../lib/gcc/arm-none-eabi/9.3.1/../../../../arm-none-eabi/lib/thumb/v8-m.main+fp/hard\libc_nano.a(lib_a-fwalk.o)
 .text          0x00000000        0x0 c:/renesas/ra/e2studio_v2021-04_fsp_v3.0.0/toolchains/gcc_arm/9_2020q2/bin/../lib/gcc/arm-none-eabi/9.3.1/../../../../arm-none-eabi/lib/thumb/v8-m.main+fp/hard\libc_nano.a(lib_a-stdio.o)
 .data          0x00000000        0x0 c:/renesas/ra/e2studio_v2021-04_fsp_v3.0.0/toolchains/gcc_arm/9_2020q2/bin/../lib/gcc/arm-none-eabi/9.3.1/../../../../arm-none-eabi/lib/thumb/v8-m.main+fp/hard\libc_nano.a(lib_a-stdio.o)
 .bss           0x00000000        0x0 c:/renesas/ra/e2studio_v2021-04_fsp_v3.0.0/toolchains/gcc_arm/9_2020q2/bin/../lib/gcc/arm-none-eabi/9.3.1/../../../../arm-none-eabi/lib/thumb/v8-m.main+fp/hard\libc_nano.a(lib_a-stdio.o)
 .text.__sread  0x00000000       0x22 c:/renesas/ra/e2studio_v2021-04_fsp_v3.0.0/toolchains/gcc_arm/9_2020q2/bin/../lib/gcc/arm-none-eabi/9.3.1/../../../../arm-none-eabi/lib/thumb/v8-m.main+fp/hard\libc_nano.a(lib_a-stdio.o)
 .text.__seofread
                0x00000000        0x4 c:/renesas/ra/e2studio_v2021-04_fsp_v3.0.0/toolchains/gcc_arm/9_2020q2/bin/../lib/gcc/arm-none-eabi/9.3.1/../../../../arm-none-eabi/lib/thumb/v8-m.main+fp/hard\libc_nano.a(lib_a-stdio.o)
 .text.__swrite
                0x00000000       0x38 c:/renesas/ra/e2studio_v2021-04_fsp_v3.0.0/toolchains/gcc_arm/9_2020q2/bin/../lib/gcc/arm-none-eabi/9.3.1/../../../../arm-none-eabi/lib/thumb/v8-m.main+fp/hard\libc_nano.a(lib_a-stdio.o)
 .text.__sseek  0x00000000       0x24 c:/renesas/ra/e2studio_v2021-04_fsp_v3.0.0/toolchains/gcc_arm/9_2020q2/bin/../lib/gcc/arm-none-eabi/9.3.1/../../../../arm-none-eabi/lib/thumb/v8-m.main+fp/hard\libc_nano.a(lib_a-stdio.o)
 .text.__sclose
                0x00000000        0x8 c:/renesas/ra/e2studio_v2021-04_fsp_v3.0.0/toolchains/gcc_arm/9_2020q2/bin/../lib/gcc/arm-none-eabi/9.3.1/../../../../arm-none-eabi/lib/thumb/v8-m.main+fp/hard\libc_nano.a(lib_a-stdio.o)
 .debug_frame   0x00000000       0x88 c:/renesas/ra/e2studio_v2021-04_fsp_v3.0.0/toolchains/gcc_arm/9_2020q2/bin/../lib/gcc/arm-none-eabi/9.3.1/../../../../arm-none-eabi/lib/thumb/v8-m.main+fp/hard\libc_nano.a(lib_a-stdio.o)
 .ARM.attributes
                0x00000000       0x38 c:/renesas/ra/e2studio_v2021-04_fsp_v3.0.0/toolchains/gcc_arm/9_2020q2/bin/../lib/gcc/arm-none-eabi/9.3.1/../../../../arm-none-eabi/lib/thumb/v8-m.main+fp/hard\libc_nano.a(lib_a-stdio.o)
 .text          0x00000000        0x0 c:/renesas/ra/e2studio_v2021-04_fsp_v3.0.0/toolchains/gcc_arm/9_2020q2/bin/../lib/gcc/arm-none-eabi/9.3.1/../../../../arm-none-eabi/lib/thumb/v8-m.main+fp/hard\libc_nano.a(lib_a-writer.o)
 .data          0x00000000        0x0 c:/renesas/ra/e2studio_v2021-04_fsp_v3.0.0/toolchains/gcc_arm/9_2020q2/bin/../lib/gcc/arm-none-eabi/9.3.1/../../../../arm-none-eabi/lib/thumb/v8-m.main+fp/hard\libc_nano.a(lib_a-writer.o)
 .bss           0x00000000        0x0 c:/renesas/ra/e2studio_v2021-04_fsp_v3.0.0/toolchains/gcc_arm/9_2020q2/bin/../lib/gcc/arm-none-eabi/9.3.1/../../../../arm-none-eabi/lib/thumb/v8-m.main+fp/hard\libc_nano.a(lib_a-writer.o)
 .text._write_r
                0x00000000       0x24 c:/renesas/ra/e2studio_v2021-04_fsp_v3.0.0/toolchains/gcc_arm/9_2020q2/bin/../lib/gcc/arm-none-eabi/9.3.1/../../../../arm-none-eabi/lib/thumb/v8-m.main+fp/hard\libc_nano.a(lib_a-writer.o)
 .debug_frame   0x00000000       0x2c c:/renesas/ra/e2studio_v2021-04_fsp_v3.0.0/toolchains/gcc_arm/9_2020q2/bin/../lib/gcc/arm-none-eabi/9.3.1/../../../../arm-none-eabi/lib/thumb/v8-m.main+fp/hard\libc_nano.a(lib_a-writer.o)
 .ARM.attributes
                0x00000000       0x38 c:/renesas/ra/e2studio_v2021-04_fsp_v3.0.0/toolchains/gcc_arm/9_2020q2/bin/../lib/gcc/arm-none-eabi/9.3.1/../../../../arm-none-eabi/lib/thumb/v8-m.main+fp/hard\libc_nano.a(lib_a-writer.o)
 .text          0x00000000        0x0 c:/renesas/ra/e2studio_v2021-04_fsp_v3.0.0/toolchains/gcc_arm/9_2020q2/bin/../lib/gcc/arm-none-eabi/9.3.1/../../../../arm-none-eabi/lib/thumb/v8-m.main+fp/hard\libc_nano.a(lib_a-closer.o)
 .data          0x00000000        0x0 c:/renesas/ra/e2studio_v2021-04_fsp_v3.0.0/toolchains/gcc_arm/9_2020q2/bin/../lib/gcc/arm-none-eabi/9.3.1/../../../../arm-none-eabi/lib/thumb/v8-m.main+fp/hard\libc_nano.a(lib_a-closer.o)
 .bss           0x00000000        0x0 c:/renesas/ra/e2studio_v2021-04_fsp_v3.0.0/toolchains/gcc_arm/9_2020q2/bin/../lib/gcc/arm-none-eabi/9.3.1/../../../../arm-none-eabi/lib/thumb/v8-m.main+fp/hard\libc_nano.a(lib_a-closer.o)
 .text._close_r
                0x00000000       0x20 c:/renesas/ra/e2studio_v2021-04_fsp_v3.0.0/toolchains/gcc_arm/9_2020q2/bin/../lib/gcc/arm-none-eabi/9.3.1/../../../../arm-none-eabi/lib/thumb/v8-m.main+fp/hard\libc_nano.a(lib_a-closer.o)
 .debug_frame   0x00000000       0x2c c:/renesas/ra/e2studio_v2021-04_fsp_v3.0.0/toolchains/gcc_arm/9_2020q2/bin/../lib/gcc/arm-none-eabi/9.3.1/../../../../arm-none-eabi/lib/thumb/v8-m.main+fp/hard\libc_nano.a(lib_a-closer.o)
 .ARM.attributes
                0x00000000       0x38 c:/renesas/ra/e2studio_v2021-04_fsp_v3.0.0/toolchains/gcc_arm/9_2020q2/bin/../lib/gcc/arm-none-eabi/9.3.1/../../../../arm-none-eabi/lib/thumb/v8-m.main+fp/hard\libc_nano.a(lib_a-closer.o)
 .text          0x00000000        0x0 c:/renesas/ra/e2studio_v2021-04_fsp_v3.0.0/toolchains/gcc_arm/9_2020q2/bin/../lib/gcc/arm-none-eabi/9.3.1/../../../../arm-none-eabi/lib/thumb/v8-m.main+fp/hard\libc_nano.a(lib_a-fflush.o)
 .data          0x00000000        0x0 c:/renesas/ra/e2studio_v2021-04_fsp_v3.0.0/toolchains/gcc_arm/9_2020q2/bin/../lib/gcc/arm-none-eabi/9.3.1/../../../../arm-none-eabi/lib/thumb/v8-m.main+fp/hard\libc_nano.a(lib_a-fflush.o)
 .bss           0x00000000        0x0 c:/renesas/ra/e2studio_v2021-04_fsp_v3.0.0/toolchains/gcc_arm/9_2020q2/bin/../lib/gcc/arm-none-eabi/9.3.1/../../../../arm-none-eabi/lib/thumb/v8-m.main+fp/hard\libc_nano.a(lib_a-fflush.o)
 .text.__sflush_r
                0x00000000      0x108 c:/renesas/ra/e2studio_v2021-04_fsp_v3.0.0/toolchains/gcc_arm/9_2020q2/bin/../lib/gcc/arm-none-eabi/9.3.1/../../../../arm-none-eabi/lib/thumb/v8-m.main+fp/hard\libc_nano.a(lib_a-fflush.o)
 .text._fflush_r
                0x00000000       0x78 c:/renesas/ra/e2studio_v2021-04_fsp_v3.0.0/toolchains/gcc_arm/9_2020q2/bin/../lib/gcc/arm-none-eabi/9.3.1/../../../../arm-none-eabi/lib/thumb/v8-m.main+fp/hard\libc_nano.a(lib_a-fflush.o)
 .text.fflush   0x00000000       0x24 c:/renesas/ra/e2studio_v2021-04_fsp_v3.0.0/toolchains/gcc_arm/9_2020q2/bin/../lib/gcc/arm-none-eabi/9.3.1/../../../../arm-none-eabi/lib/thumb/v8-m.main+fp/hard\libc_nano.a(lib_a-fflush.o)
 .debug_frame   0x00000000       0x5c c:/renesas/ra/e2studio_v2021-04_fsp_v3.0.0/toolchains/gcc_arm/9_2020q2/bin/../lib/gcc/arm-none-eabi/9.3.1/../../../../arm-none-eabi/lib/thumb/v8-m.main+fp/hard\libc_nano.a(lib_a-fflush.o)
 .ARM.attributes
                0x00000000       0x38 c:/renesas/ra/e2studio_v2021-04_fsp_v3.0.0/toolchains/gcc_arm/9_2020q2/bin/../lib/gcc/arm-none-eabi/9.3.1/../../../../arm-none-eabi/lib/thumb/v8-m.main+fp/hard\libc_nano.a(lib_a-fflush.o)
 .text          0x00000000        0x0 c:/renesas/ra/e2studio_v2021-04_fsp_v3.0.0/toolchains/gcc_arm/9_2020q2/bin/../lib/gcc/arm-none-eabi/9.3.1/../../../../arm-none-eabi/lib/thumb/v8-m.main+fp/hard\libc_nano.a(lib_a-lseekr.o)
 .data          0x00000000        0x0 c:/renesas/ra/e2studio_v2021-04_fsp_v3.0.0/toolchains/gcc_arm/9_2020q2/bin/../lib/gcc/arm-none-eabi/9.3.1/../../../../arm-none-eabi/lib/thumb/v8-m.main+fp/hard\libc_nano.a(lib_a-lseekr.o)
 .bss           0x00000000        0x0 c:/renesas/ra/e2studio_v2021-04_fsp_v3.0.0/toolchains/gcc_arm/9_2020q2/bin/../lib/gcc/arm-none-eabi/9.3.1/../../../../arm-none-eabi/lib/thumb/v8-m.main+fp/hard\libc_nano.a(lib_a-lseekr.o)
 .text._lseek_r
                0x00000000       0x24 c:/renesas/ra/e2studio_v2021-04_fsp_v3.0.0/toolchains/gcc_arm/9_2020q2/bin/../lib/gcc/arm-none-eabi/9.3.1/../../../../arm-none-eabi/lib/thumb/v8-m.main+fp/hard\libc_nano.a(lib_a-lseekr.o)
 .debug_frame   0x00000000       0x2c c:/renesas/ra/e2studio_v2021-04_fsp_v3.0.0/toolchains/gcc_arm/9_2020q2/bin/../lib/gcc/arm-none-eabi/9.3.1/../../../../arm-none-eabi/lib/thumb/v8-m.main+fp/hard\libc_nano.a(lib_a-lseekr.o)
 .ARM.attributes
                0x00000000       0x38 c:/renesas/ra/e2studio_v2021-04_fsp_v3.0.0/toolchains/gcc_arm/9_2020q2/bin/../lib/gcc/arm-none-eabi/9.3.1/../../../../arm-none-eabi/lib/thumb/v8-m.main+fp/hard\libc_nano.a(lib_a-lseekr.o)
 .text          0x00000000        0x0 c:/renesas/ra/e2studio_v2021-04_fsp_v3.0.0/toolchains/gcc_arm/9_2020q2/bin/../lib/gcc/arm-none-eabi/9.3.1/../../../../arm-none-eabi/lib/thumb/v8-m.main+fp/hard\libc_nano.a(lib_a-readr.o)
 .data          0x00000000        0x0 c:/renesas/ra/e2studio_v2021-04_fsp_v3.0.0/toolchains/gcc_arm/9_2020q2/bin/../lib/gcc/arm-none-eabi/9.3.1/../../../../arm-none-eabi/lib/thumb/v8-m.main+fp/hard\libc_nano.a(lib_a-readr.o)
 .bss           0x00000000        0x0 c:/renesas/ra/e2studio_v2021-04_fsp_v3.0.0/toolchains/gcc_arm/9_2020q2/bin/../lib/gcc/arm-none-eabi/9.3.1/../../../../arm-none-eabi/lib/thumb/v8-m.main+fp/hard\libc_nano.a(lib_a-readr.o)
 .text._read_r  0x00000000       0x24 c:/renesas/ra/e2studio_v2021-04_fsp_v3.0.0/toolchains/gcc_arm/9_2020q2/bin/../lib/gcc/arm-none-eabi/9.3.1/../../../../arm-none-eabi/lib/thumb/v8-m.main+fp/hard\libc_nano.a(lib_a-readr.o)
 .debug_frame   0x00000000       0x2c c:/renesas/ra/e2studio_v2021-04_fsp_v3.0.0/toolchains/gcc_arm/9_2020q2/bin/../lib/gcc/arm-none-eabi/9.3.1/../../../../arm-none-eabi/lib/thumb/v8-m.main+fp/hard\libc_nano.a(lib_a-readr.o)
 .ARM.attributes
                0x00000000       0x38 c:/renesas/ra/e2studio_v2021-04_fsp_v3.0.0/toolchains/gcc_arm/9_2020q2/bin/../lib/gcc/arm-none-eabi/9.3.1/../../../../arm-none-eabi/lib/thumb/v8-m.main+fp/hard\libc_nano.a(lib_a-readr.o)
 .text          0x00000000        0x0 c:/renesas/ra/e2studio_v2021-04_fsp_v3.0.0/toolchains/gcc_arm/9_2020q2/bin/../lib/gcc/arm-none-eabi/9.3.1/thumb/v8-m.main+fp/hard/crtend.o
 .data          0x00000000        0x0 c:/renesas/ra/e2studio_v2021-04_fsp_v3.0.0/toolchains/gcc_arm/9_2020q2/bin/../lib/gcc/arm-none-eabi/9.3.1/thumb/v8-m.main+fp/hard/crtend.o
 .bss           0x00000000        0x0 c:/renesas/ra/e2studio_v2021-04_fsp_v3.0.0/toolchains/gcc_arm/9_2020q2/bin/../lib/gcc/arm-none-eabi/9.3.1/thumb/v8-m.main+fp/hard/crtend.o
 .text          0x00000000        0x0 c:/renesas/ra/e2studio_v2021-04_fsp_v3.0.0/toolchains/gcc_arm/9_2020q2/bin/../lib/gcc/arm-none-eabi/9.3.1/thumb/v8-m.main+fp/hard/crtn.o
 .data          0x00000000        0x0 c:/renesas/ra/e2studio_v2021-04_fsp_v3.0.0/toolchains/gcc_arm/9_2020q2/bin/../lib/gcc/arm-none-eabi/9.3.1/thumb/v8-m.main+fp/hard/crtn.o
 .bss           0x00000000        0x0 c:/renesas/ra/e2studio_v2021-04_fsp_v3.0.0/toolchains/gcc_arm/9_2020q2/bin/../lib/gcc/arm-none-eabi/9.3.1/thumb/v8-m.main+fp/hard/crtn.o

Memory Configuration

Name             Origin             Length             Attributes
FLASH            0x00010400         0x00050000         xr
RAM              0x20000000         0x00040000         xrw
DATA_FLASH       0x08000000         0x00002000         xr
QSPI_FLASH       0x60000000         0x04000000         xr
OSPI_DEVICE_0    0x68000000         0x08000000         xr
OSPI_DEVICE_1    0x70000000         0x10000000         xr
SDRAM            0x90000000         0x00000000         xrw
OPTION_SETTING   0x0100a100         0x00000100         r
OPTION_SETTING_S 0x0100a200         0x00000100         r
ID_CODE          0x00000000         0x00000000         xr
*default*        0x00000000         0xffffffff

Linker script and memory map

LOAD c:/renesas/ra/e2studio_v2021-04_fsp_v3.0.0/toolchains/gcc_arm/9_2020q2/bin/../lib/gcc/arm-none-eabi/9.3.1/thumb/v8-m.main+fp/hard/crti.o
LOAD c:/renesas/ra/e2studio_v2021-04_fsp_v3.0.0/toolchains/gcc_arm/9_2020q2/bin/../lib/gcc/arm-none-eabi/9.3.1/thumb/v8-m.main+fp/hard/crtbegin.o
LOAD c:/renesas/ra/e2studio_v2021-04_fsp_v3.0.0/toolchains/gcc_arm/9_2020q2/bin/../lib/gcc/arm-none-eabi/9.3.1/../../../../arm-none-eabi/lib/thumb/v8-m.main+fp/hard/rdimon-crt0.o
START GROUP
LOAD ./tray/alarm_drive.o
LOAD ./tray/alarm_led.o
LOAD ./tray/boot.o
LOAD ./tray/box.o
LOAD ./tray/channel.o
LOAD ./tray/entry.o
LOAD ./tray/flow.o
LOAD ./tray/func.o
LOAD ./tray/host.o
LOAD ./tray/log.o
LOAD ./tray/pb.o
LOAD ./tray/plc.o
LOAD ./tray/protect.o
LOAD ./tray/timer.o
LOAD ./tray/tray.o
LOAD ./tray/tray_bl.o
LOAD ./tray/uart.o
LOAD ./src/hal_entry.o
LOAD ./ra_gen/common_data.o
LOAD ./ra_gen/hal_data.o
LOAD ./ra_gen/main.o
LOAD ./ra_gen/pin_data.o
LOAD ./ra_gen/vector_data.o
LOAD ./ra/fsp/src/r_spi/r_spi.o
LOAD ./ra/fsp/src/r_sci_uart/r_sci_uart.o
LOAD ./ra/fsp/src/r_qspi/r_qspi.o
LOAD ./ra/fsp/src/r_ioport/r_ioport.o
LOAD ./ra/fsp/src/r_gpt/r_gpt.o
LOAD ./ra/fsp/src/r_flash_hp/r_flash_hp.o
LOAD ./ra/fsp/src/r_dtc/r_dtc.o
LOAD ./ra/fsp/src/r_can/r_can.o
LOAD ./ra/fsp/src/bsp/mcu/all/bsp_clocks.o
LOAD ./ra/fsp/src/bsp/mcu/all/bsp_common.o
LOAD ./ra/fsp/src/bsp/mcu/all/bsp_delay.o
LOAD ./ra/fsp/src/bsp/mcu/all/bsp_group_irq.o
LOAD ./ra/fsp/src/bsp/mcu/all/bsp_guard.o
LOAD ./ra/fsp/src/bsp/mcu/all/bsp_io.o
LOAD ./ra/fsp/src/bsp/mcu/all/bsp_irq.o
LOAD ./ra/fsp/src/bsp/mcu/all/bsp_register_protection.o
LOAD ./ra/fsp/src/bsp/mcu/all/bsp_rom_registers.o
LOAD ./ra/fsp/src/bsp/mcu/all/bsp_sbrk.o
LOAD ./ra/fsp/src/bsp/mcu/all/bsp_security.o
LOAD ./ra/fsp/src/bsp/cmsis/Device/RENESAS/Source/startup.o
LOAD ./ra/fsp/src/bsp/cmsis/Device/RENESAS/Source/system.o
LOAD ./public/u_function.o
LOAD ./public/u_led.o
LOAD ./public/u_setting.o
LOAD ./mlos/services/mlos_log.o
LOAD ./mlos/services/mlos_shell.o
LOAD ./mlos/port/RA6M4/mlos_port.o
LOAD ./mlos/os/mlos.o
LOAD ./mlos/os/mlos_clock.o
LOAD ./mlos/os/mlos_list.o
LOAD ./mlos/os/mlos_ltimer.o
LOAD ./mlos/os/mlos_malloc.o
LOAD ./mlos/os/mlos_mpump.o
LOAD ./mlos/os/mlos_que.o
LOAD ./mlos/os/mlos_rtimer.o
LOAD ./mlos/os/mlos_task.o
LOAD ./mllib/utp/ra6m4/utp_uart_driver.o
LOAD ./mllib/utp/public.o
LOAD ./mllib/utp/utp.o
LOAD ./mllib/upper/upper_ntp.o
LOAD ./mllib/tool/tool.o
LOAD ./mllib/tool/tool_debug.o
LOAD ./mllib/tool/tool_ds.o
LOAD ./mllib/tool/tool_iap.o
LOAD ./mllib/tool/tool_setting.o
LOAD ./mllib/ntp/w5500/ra6m4/ntp_w5500_spi_driver.o
LOAD ./mllib/ntp/w5500/ntp_w5500.o
LOAD ./mllib/ntp/ntp.o
LOAD ./mllib/ntp/ntp_usocket.o
LOAD ./mllib/mlflash/mx35xx/RA6M4/mx35_spi_driver.o
LOAD ./mllib/mlflash/mx35xx/mx35.o
LOAD ./mllib/mlflash/mcuflash/RA6M4/mcu_flash.o
LOAD ./mllib/mlflash/cssdcard/RA6M4/cs_sd_spi_driver.o
LOAD ./mllib/mlflash/cssdcard/cs_sdcard.o
LOAD ./mllib/iap/RA6M4/iap_mcu_port.o
LOAD ./mllib/iap/iap.o
LOAD ./mllib/dataStorage/ds.o
LOAD ./mllib/dataStorage/ds_file.o
LOAD ./mllib/dataStorage/ds_log.o
LOAD ./mllib/dataStorage/ds_tray.o
LOAD ./mllib/ctp/ra6m4/ctp_can_driver.o
LOAD ./mllib/ctp/ctp.o
LOAD ./combine/cmb_bl.o
LOAD ./combine/cmb_box.o
LOAD ./combine/cmb_chnl.o
LOAD ./combine/cmb_ctp.o
LOAD ./combine/cmb_mdl.o
LOAD ./combine/cmb_ntp_v1.o
LOAD ./baseStruct/base_box.o
LOAD ./app/u_app.o
END GROUP
START GROUP
LOAD c:/renesas/ra/e2studio_v2021-04_fsp_v3.0.0/toolchains/gcc_arm/9_2020q2/bin/../lib/gcc/arm-none-eabi/9.3.1/thumb/v8-m.main+fp/hard\libgcc.a
LOAD c:/renesas/ra/e2studio_v2021-04_fsp_v3.0.0/toolchains/gcc_arm/9_2020q2/bin/../lib/gcc/arm-none-eabi/9.3.1/../../../../arm-none-eabi/lib/thumb/v8-m.main+fp/hard\libg_nano.a
LOAD c:/renesas/ra/e2studio_v2021-04_fsp_v3.0.0/toolchains/gcc_arm/9_2020q2/bin/../lib/gcc/arm-none-eabi/9.3.1/../../../../arm-none-eabi/lib/thumb/v8-m.main+fp/hard\libc_nano.a
END GROUP
START GROUP
LOAD c:/renesas/ra/e2studio_v2021-04_fsp_v3.0.0/toolchains/gcc_arm/9_2020q2/bin/../lib/gcc/arm-none-eabi/9.3.1/thumb/v8-m.main+fp/hard\libgcc.a
LOAD c:/renesas/ra/e2studio_v2021-04_fsp_v3.0.0/toolchains/gcc_arm/9_2020q2/bin/../lib/gcc/arm-none-eabi/9.3.1/../../../../arm-none-eabi/lib/thumb/v8-m.main+fp/hard\libc_nano.a
LOAD c:/renesas/ra/e2studio_v2021-04_fsp_v3.0.0/toolchains/gcc_arm/9_2020q2/bin/../lib/gcc/arm-none-eabi/9.3.1/../../../../arm-none-eabi/lib/thumb/v8-m.main+fp/hard\librdimon_nano.a
END GROUP
START GROUP
LOAD c:/renesas/ra/e2studio_v2021-04_fsp_v3.0.0/toolchains/gcc_arm/9_2020q2/bin/../lib/gcc/arm-none-eabi/9.3.1/thumb/v8-m.main+fp/hard\libgcc.a
LOAD c:/renesas/ra/e2studio_v2021-04_fsp_v3.0.0/toolchains/gcc_arm/9_2020q2/bin/../lib/gcc/arm-none-eabi/9.3.1/../../../../arm-none-eabi/lib/thumb/v8-m.main+fp/hard\libc_nano.a
LOAD c:/renesas/ra/e2studio_v2021-04_fsp_v3.0.0/toolchains/gcc_arm/9_2020q2/bin/../lib/gcc/arm-none-eabi/9.3.1/../../../../arm-none-eabi/lib/thumb/v8-m.main+fp/hard\librdimon_nano.a
END GROUP
LOAD c:/renesas/ra/e2studio_v2021-04_fsp_v3.0.0/toolchains/gcc_arm/9_2020q2/bin/../lib/gcc/arm-none-eabi/9.3.1/thumb/v8-m.main+fp/hard/crtend.o
LOAD c:/renesas/ra/e2studio_v2021-04_fsp_v3.0.0/toolchains/gcc_arm/9_2020q2/bin/../lib/gcc/arm-none-eabi/9.3.1/thumb/v8-m.main+fp/hard/crtn.o
                0x20000000                RAM_START = 0x20000000
                0x00040000                RAM_LENGTH = 0x40000
                0x00010400                FLASH_START = 0x10400
                0x00050000                FLASH_LENGTH = 0x50000
                0x08000000                DATA_FLASH_START = 0x8000000
                0x00002000                DATA_FLASH_LENGTH = 0x2000
                0x0100a100                OPTION_SETTING_START = 0x100a100
                0x00000100                OPTION_SETTING_LENGTH = 0x100
                0x0100a200                OPTION_SETTING_S_START = 0x100a200
                0x00000100                OPTION_SETTING_S_LENGTH = 0x100
                0x00000000                ID_CODE_START = 0x0
                0x00000000                ID_CODE_LENGTH = 0x0
                0x90000000                SDRAM_START = 0x90000000
                0x00000000                SDRAM_LENGTH = 0x0
                0x60000000                QSPI_FLASH_START = 0x60000000
                0x04000000                QSPI_FLASH_LENGTH = 0x4000000
                0x68000000                OSPI_DEVICE_0_START = 0x68000000
                0x08000000                OSPI_DEVICE_0_LENGTH = 0x8000000
                0x70000000                OSPI_DEVICE_1_START = 0x70000000
                0x10000000                OSPI_DEVICE_1_LENGTH = 0x10000000
                0x04000000                QSPI_FLASH_PRV_LENGTH = DEFINED (QSPI_FLASH_SIZE)?ABSOLUTE (QSPI_FLASH_SIZE):ABSOLUTE (QSPI_FLASH_LENGTH)
                0x08000000                OSPI_DEVICE_0_PRV_LENGTH = DEFINED (OSPI_DEVICE_0_SIZE)?ABSOLUTE (OSPI_DEVICE_0_SIZE):ABSOLUTE (OSPI_DEVICE_0_LENGTH)
                0x10000000                OSPI_DEVICE_1_PRV_LENGTH = DEFINED (OSPI_DEVICE_1_SIZE)?ABSOLUTE (OSPI_DEVICE_1_SIZE):ABSOLUTE (OSPI_DEVICE_1_LENGTH)
                0x00000000                __RESERVE_NS_RAM = ((! (DEFINED (PROJECT_NONSECURE)) && DEFINED (RAM_NS_BUFFER_LENGTH)) && (OPTION_SETTING_S_LENGTH != 0x0))
                0x00000000                RAM_NS_BUFFER_BLOCK_LENGTH = DEFINED (RAM_NS_BUFFER_LENGTH)?ALIGN (RAM_NS_BUFFER_LENGTH, 0x2000):0x0
                0x00000000                RAM_NS_BUFFER_LENGTH = DEFINED (RAM_NS_BUFFER_LENGTH)?RAM_NS_BUFFER_LENGTH:0x0
                0x20040000                RAM_NS_BUFFER_START = ((RAM_START + RAM_LENGTH) - RAM_NS_BUFFER_LENGTH)
                0x20040000                RAM_NS_BUFFER_BLOCK_START = ((RAM_START + RAM_LENGTH) - RAM_NS_BUFFER_BLOCK_LENGTH)
                0x0100a180                OPTION_SETTING_START_NS = 0x100a180
                0x00000001                __bl_FSP_BOOTABLE_IMAGE = 0x1
                0x00000001                __bln_FSP_BOOTABLE_IMAGE = 0x1
                0x00000001                PROJECT_SECURE_OR_FLAT = ((! (DEFINED (PROJECT_NONSECURE)) && OPTION_SETTING_LENGTH) && ! (DEFINED (FSP_BOOTABLE_IMAGE)))
                0x00000000                USE_OPTION_SETTING_NS = (DEFINED (PROJECT_NONSECURE) && ! (DEFINED (FSP_BOOTABLE_IMAGE)))
                0x00000000                __bl_FLASH_IMAGE_START = ! (DEFINED (FLASH_BOOTLOADER_LENGTH))?0x0:(FLASH_APPLICATION_IMAGE_NUMBER == 0x1)?(FLASH_BOOTLOADER_LENGTH + FLASH_BOOTLOADER_HEADER_LENGTH):(((FLASH_BOOTLOADER_LENGTH + FLASH_BOOTLOADER_SCRATCH_LENGTH) + FLASH_APPLICATION_S_LENGTH) + FLASH_BOOTLOADER_HEADER_LENGTH)
                0x00000000                __bl_FLASH_IMAGE_LENGTH = ! (DEFINED (FLASH_BOOTLOADER_LENGTH))?0x0:(FLASH_APPLICATION_S_LENGTH - FLASH_BOOTLOADER_HEADER_LENGTH)
                0x00000000                __bl_FLASH_IMAGE_END = (__bl_FLASH_IMAGE_START + __bl_FLASH_IMAGE_LENGTH)
                0x00000000                __bl_FLASH_NS_START = ! (DEFINED (FLASH_BOOTLOADER_LENGTH))?0x0:(FLASH_APPLICATION_NS_LENGTH == 0x0)?__bl_FLASH_IMAGE_END:((__bl_FLASH_IMAGE_START - FLASH_BOOTLOADER_HEADER_LENGTH) + FLASH_APPLICATION_S_LENGTH)
                0x00000000                __bl_FLASH_NSC_START = ! (DEFINED (FLASH_BOOTLOADER_LENGTH))?0x0:(FLASH_APPLICATION_NS_LENGTH == 0x0)?__bl_FLASH_IMAGE_END:(__bl_FLASH_NS_START - FLASH_APPLICATION_NSC_LENGTH)
                0x00000000                __bl_RAM_NS_START = ! (DEFINED (FLASH_BOOTLOADER_LENGTH))?0x0:(FLASH_APPLICATION_NS_LENGTH == 0x0)?(RAM_START + RAM_LENGTH):((RAM_START + RAM_LENGTH) - RAM_APPLICATION_NS_LENGTH)
                0x00000000                __bl_RAM_NSC_START = ! (DEFINED (FLASH_BOOTLOADER_LENGTH))?0x0:(FLASH_APPLICATION_NS_LENGTH == 0x0)?(RAM_START + RAM_LENGTH):(__bl_RAM_NS_START - RAM_APPLICATION_NSC_LENGTH)
                0x00000000                __bl_FLASH_NS_IMAGE_START = ! (DEFINED (FLASH_BOOTLOADER_LENGTH))?0x0:(FLASH_APPLICATION_NS_LENGTH == 0x0)?__bl_FLASH_IMAGE_END:(__bl_FLASH_NS_START + FLASH_BOOTLOADER_HEADER_LENGTH_2)
                0x00000000                __bln_FLASH_IMAGE_START = __bl_FLASH_NS_IMAGE_START
                0x00000000                __bln_FLASH_IMAGE_LENGTH = ! (DEFINED (FLASH_BOOTLOADER_LENGTH))?0x0:(FLASH_APPLICATION_NS_LENGTH == 0x0)?__bl_FLASH_IMAGE_END:(FLASH_APPLICATION_NS_LENGTH - FLASH_BOOTLOADER_HEADER_LENGTH_2)
                0x00010400                FLASH_ORIGIN = DEFINED (FLASH_IMAGE_START)?FLASH_IMAGE_START:FLASH_START
                0x00050000                LIMITED_FLASH_LENGTH = DEFINED (FLASH_IMAGE_LENGTH)?FLASH_IMAGE_LENGTH:DEFINED (FLASH_BOOTLOADER_LENGTH)?FLASH_BOOTLOADER_LENGTH:FLASH_LENGTH
START GROUP
LOAD c:/renesas/ra/e2studio_v2021-04_fsp_v3.0.0/toolchains/gcc_arm/9_2020q2/bin/../lib/gcc/arm-none-eabi/9.3.1/thumb/v8-m.main+fp/hard\libgcc.a
LOAD c:/renesas/ra/e2studio_v2021-04_fsp_v3.0.0/toolchains/gcc_arm/9_2020q2/bin/../lib/gcc/arm-none-eabi/9.3.1/../../../../arm-none-eabi/lib/thumb/v8-m.main+fp/hard\libc.a
LOAD c:/renesas/ra/e2studio_v2021-04_fsp_v3.0.0/toolchains/gcc_arm/9_2020q2/bin/../lib/gcc/arm-none-eabi/9.3.1/../../../../arm-none-eabi/lib/thumb/v8-m.main+fp/hard\libm.a
LOAD c:/renesas/ra/e2studio_v2021-04_fsp_v3.0.0/toolchains/gcc_arm/9_2020q2/bin/../lib/gcc/arm-none-eabi/9.3.1/../../../../arm-none-eabi/lib/thumb/v8-m.main+fp/hard\libnosys.a
END GROUP

.text           0x00010400    0x1857c
                0x00010400                __tz_FLASH_S = ABSOLUTE (FLASH_START)
                0x00010400                __ROM_Start = .
 *(.fixed_vectors*)
 .fixed_vectors
                0x00010400       0x40 ./ra/fsp/src/bsp/cmsis/Device/RENESAS/Source/startup.o
                0x00010400                __Vectors
 *(.application_vectors*)
 .application_vectors
                0x00010440      0x180 ./ra_gen/vector_data.o
                0x00010440                g_vector_table
                0x000105c0                __Vectors_End = .
                0x000105c0                . = (OPTION_SETTING_LENGTH > 0x0)?.:(__ROM_Start + 0x400)
 *(.rom_registers*)
                0x000105c0                . = (OPTION_SETTING_LENGTH > 0x0)?.:(__ROM_Start + 0x500)
 *(.text*)
 .text          0x000105c0       0x40 c:/renesas/ra/e2studio_v2021-04_fsp_v3.0.0/toolchains/gcc_arm/9_2020q2/bin/../lib/gcc/arm-none-eabi/9.3.1/thumb/v8-m.main+fp/hard/crtbegin.o
 .text.group0_alarmled_ctrl
                0x00010600       0x34 ./tray/alarm_drive.o
                0x00010600                group0_alarmled_ctrl
 .text.group1_alarmled_ctrl
                0x00010634       0x2c ./tray/alarm_drive.o
                0x00010634                group1_alarmled_ctrl
 .text.group2_alarmled_ctrl
                0x00010660       0x30 ./tray/alarm_drive.o
                0x00010660                group2_alarmled_ctrl
 .text.group0_Buzzer_ctrl
                0x00010690       0x14 ./tray/alarm_drive.o
                0x00010690                group0_Buzzer_ctrl
 .text.group1_Buzzer_ctrl
                0x000106a4       0x14 ./tray/alarm_drive.o
                0x000106a4                group1_Buzzer_ctrl
 .text.group2_Buzzer_ctrl
                0x000106b8       0x14 ./tray/alarm_drive.o
                0x000106b8                group2_Buzzer_ctrl
 .text.AlarmLight_Switch
                0x000106cc       0x1c ./tray/alarm_led.o
                0x000106cc                AlarmLight_Switch
 .text.Buzzer_Switch
                0x000106e8       0x18 ./tray/alarm_led.o
                0x000106e8                Buzzer_Switch
 .text.boxMsgIgnore
                0x00010700        0x2 ./tray/box.o
                0x00010700                boxMsgIgnore
 .text.boxExprUpdUpldAck
                0x00010702        0x2 ./tray/box.o
                0x00010702                boxExprUpdUpldAck
 .text.boxRxSmplChn
                0x00010704        0x2 ./tray/box.o
                0x00010704                boxRxSmplChn
 .text.boxRxCtrlAck
                0x00010706        0x6 ./tray/box.o
                0x00010706                boxRxCtrlAck
 .text.boxRxUpdUpldAck
                0x0001070c        0x2 ./tray/box.o
                0x0001070c                boxRxUpdUpldAck
 *fill*         0x0001070e        0x2 ff
 .text.boxExprUpdCnfmAck
                0x00010710       0x2c ./tray/box.o
                0x00010710                boxExprUpdCnfmAck
 .text.boxExprUpdSetupAck
                0x0001073c       0x2c ./tray/box.o
                0x0001073c                boxExprUpdSetupAck
 .text.boxExprCaliSmplAck
                0x00010768       0x58 ./tray/box.o
                0x00010768                boxExprCaliSmplAck
 .text.boxExprCaliNtfyAck
                0x000107c0       0x14 ./tray/box.o
                0x000107c0                boxExprCaliNtfyAck
 .text.boxExprCmmnAuxAck
                0x000107d4       0x14 ./tray/box.o
                0x000107d4                boxExprCmmnAuxAck
 .text.traySmplDefChnSmpl
                0x000107e8       0x72 ./tray/box.o
                0x000107e8                traySmplDefChnSmpl
 .text.trayUpdSmplSeq
                0x0001085a       0x24 ./tray/box.o
                0x0001085a                trayUpdSmplSeq
 .text.trayUpdSmplBuf
                0x0001087e       0x12 ./tray/box.o
                0x0001087e                trayUpdSmplBuf
 .text.traySmplMgrRst
                0x00010890       0x48 ./tray/box.o
                0x00010890                traySmplMgrRst
 .text.trayRcdChnLastData
                0x000108d8       0xd0 ./tray/box.o
                0x000108d8                trayRcdChnLastData
 .text.trayProtMgrEnd
                0x000109a8       0x4c ./tray/box.o
                0x000109a8                trayProtMgrEnd
 .text.allocAuxCanBuf
                0x000109f4       0x24 ./tray/box.o
                0x000109f4                allocAuxCanBuf
 .text.freeAuxCanBuf
                0x00010a18       0x20 ./tray/box.o
                0x00010a18                freeAuxCanBuf
 .text.boxRxCfgReadAck
                0x00010a38       0xd0 ./tray/box.o
                0x00010a38                boxRxCfgReadAck
 .text.boxRxUpdCnfmAck
                0x00010b08       0x40 ./tray/box.o
                0x00010b08                boxRxUpdCnfmAck
 .text.boxRxUpdSetupAck
                0x00010b48       0x54 ./tray/box.o
                0x00010b48                boxRxUpdSetupAck
 .text.boxRxCaliNtfyAck
                0x00010b9c       0x58 ./tray/box.o
                0x00010b9c                boxRxCaliNtfyAck
 .text.boxRxCmmnAuxAck
                0x00010bf4       0x28 ./tray/box.o
                0x00010bf4                boxRxCmmnAuxAck
 .text.boxRxCaliSmplAck
                0x00010c1c      0x118 ./tray/box.o
                0x00010c1c                boxRxCaliSmplAck
 .text.setCaliAuxCanBuf
                0x00010d34       0x18 ./tray/box.o
                0x00010d34                setCaliAuxCanBuf
 .text.boxAuxTx
                0x00010d4c       0x2e ./tray/box.o
                0x00010d4c                boxAuxTx
 *fill*         0x00010d7a        0x2 ff
 .text.boxAuxTxTry
                0x00010d7c       0x44 ./tray/box.o
                0x00010d7c                boxAuxTxTry
 .text.canSmplBoxUpdate
                0x00010dc0       0x48 ./tray/box.o
                0x00010dc0                canSmplBoxUpdate
 .text.boxRxConnAck
                0x00010e08      0x1ac ./tray/box.o
                0x00010e08                boxRxConnAck
 .text.boxRxSmplAck
                0x00010fb4       0x54 ./tray/box.o
                0x00010fb4                boxRxSmplAck
 .text.canSmplBoxGet
                0x00011008       0x24 ./tray/box.o
                0x00011008                canSmplBoxGet
 .text.boxSmplTx
                0x0001102c      0x100 ./tray/box.o
                0x0001102c                boxSmplTx
 .text.boxSmplTxTry
                0x0001112c       0x40 ./tray/box.o
                0x0001112c                boxSmplTxTry
 .text.boxCtrlMix
                0x0001116c       0x50 ./tray/box.o
                0x0001116c                boxCtrlMix
 .text.boxCtrlAddChn
                0x000111bc       0x22 ./tray/box.o
                0x000111bc                boxCtrlAddChn
 .text.boxCtrlAddSeriesCell
                0x000111de       0x22 ./tray/box.o
                0x000111de                boxCtrlAddSeriesCell
 .text.stepCvFollowCcChk
                0x00011200       0x5e ./tray/box.o
                0x00011200                stepCvFollowCcChk
 *fill*         0x0001125e        0x2 ff
 .text.boxCtrlTx
                0x00011260      0x21c ./tray/box.o
                0x00011260                boxCtrlTx
 .text.boxCtrlTxTry
                0x0001147c       0x44 ./tray/box.o
                0x0001147c                boxCtrlTxTry
 .text.trayGenTraySmpl
                0x000114c0      0x124 ./tray/box.o
                0x000114c0                trayGenTraySmpl
 .text.boxCtrlCellTx
                0x000115e4       0xf0 ./tray/box.o
                0x000115e4                boxCtrlCellTx
 .text.boxCtrlCellTxTry
                0x000116d4       0x44 ./tray/box.o
                0x000116d4                boxCtrlCellTxTry
 .text.canIdleNtfy
                0x00011718      0x100 ./tray/box.o
                0x00011718                canIdleNtfy
 .text.boxExprCtrlAck
                0x00011818       0x40 ./tray/box.o
                0x00011818                boxExprCtrlAck
 .text.boxExprCellSwAck
                0x00011858       0x14 ./tray/box.o
                0x00011858                boxExprCellSwAck
 .text.boxExprSmplAck
                0x0001186c      0x140 ./tray/box.o
                0x0001186c                boxExprSmplAck
 .text.boxExprAuxAck
                0x000119ac       0x60 ./tray/box.o
                0x000119ac                boxExprAuxAck
 .text.getLowSmplSize
                0x00011a0c       0x22 ./tray/box.o
                0x00011a0c                getLowSmplSize
 .text.boxRxSmplTray
                0x00011a2e       0x9c ./tray/box.o
                0x00011a2e                boxRxSmplTray
 *fill*         0x00011aca        0x2 ff
 .text.canRxMsg
                0x00011acc       0x7c ./tray/box.o
                0x00011acc                canRxMsg
 .text.boxInit  0x00011b48      0x180 ./tray/box.o
                0x00011b48                boxInit
 .text.chnProcIgnore
                0x00011cc8        0x2 ./tray/channel.o
                0x00011cc8                chnProcIgnore
 .text.chnStaMapNpWait
                0x00011cca        0x2 ./tray/channel.o
                0x00011cca                chnStaMapNpWait
 .text.chnStaMapMedEnd
                0x00011ccc       0x10 ./tray/channel.o
                0x00011ccc                chnStaMapMedEnd
 .text.chnStaMapIdle
                0x00011cdc       0x30 ./tray/channel.o
                0x00011cdc                chnStaMapIdle
 .text.chnProtBufInit
                0x00011d0c       0x22 ./tray/channel.o
                0x00011d0c                chnProtBufInit
 .text.chnBeInIdle
                0x00011d2e       0x2e ./tray/channel.o
                0x00011d2e                chnBeInIdle
 .text.chnBeInRun
                0x00011d5c       0x22 ./tray/channel.o
                0x00011d5c                chnBeInRun
 .text.chnRunTimeUpd
                0x00011d7e        0x8 ./tray/channel.o
                0x00011d7e                chnRunTimeUpd
 .text.cellEnterIdle
                0x00011d86       0x18 ./tray/channel.o
                0x00011d86                cellEnterIdle
 .text.chnEnterIdle
                0x00011d9e       0x50 ./tray/channel.o
                0x00011d9e                chnEnterIdle
 .text.chnStaMapUpStopEnd
                0x00011dee       0x34 ./tray/channel.o
                0x00011dee                chnStaMapUpStopEnd
 .text.chnStaMapUpPauseEnd
                0x00011e22       0x34 ./tray/channel.o
                0x00011e22                chnStaMapUpPauseEnd
 .text.chnStaMapLowProtEnd
                0x00011e56       0x4e ./tray/channel.o
                0x00011e56                chnStaMapLowProtEnd
 .text.chnStaMapIdleWait
                0x00011ea4       0x4c ./tray/channel.o
                0x00011ea4                chnStaMapIdleWait
 .text.chnStaMapPauseWait
                0x00011ef0       0x50 ./tray/channel.o
                0x00011ef0                chnStaMapPauseWait
 .text.chnStepSwPre
                0x00011f40       0x86 ./tray/channel.o
                0x00011f40                chnStepSwPre
 .text.stepType2ChgType
                0x00011fc6       0x26 ./tray/channel.o
                0x00011fc6                stepType2ChgType
 .text.chnEnterRun
                0x00011fec       0x3a ./tray/channel.o
                0x00011fec                chnEnterRun
 .text.chnEndCapCalc
                0x00012026       0x34 ./tray/channel.o
                0x00012026                chnEndCapCalc
 .text.chnStaMapStart
                0x0001205a       0x64 ./tray/channel.o
                0x0001205a                chnStaMapStart
 .text.chnStaMapRun
                0x000120be       0xe8 ./tray/channel.o
                0x000120be                chnStaMapRun
 .text.chnStaMapUpStopReq
                0x000121a6       0x86 ./tray/channel.o
                0x000121a6                chnStaMapUpStopReq
 .text.chnStaMapUpPauseReq
                0x0001222c       0x92 ./tray/channel.o
                0x0001222c                chnStaMapUpPauseReq
 .text.chnStepLowNmlEnd
                0x000122be       0xb2 ./tray/channel.o
                0x000122be                chnStepLowNmlEnd
 .text.chnSavePowerSmpl
                0x00012370      0x176 ./tray/channel.o
                0x00012370                chnSavePowerSmpl
 *fill*         0x000124e6        0x2 ff
 .text.chnSaveTraySmpl
                0x000124e8      0x254 ./tray/channel.o
                0x000124e8                chnSaveTraySmpl
 .text.chnSaveTraySmplOld
                0x0001273c       0x50 ./tray/channel.o
                0x0001273c                chnSaveTraySmplOld
 .text.bypsSeriesChnProt
                0x0001278c       0x20 ./tray/channel.o
                0x0001278c                bypsSeriesChnProt
 .text.chnStopByProt
                0x000127ac      0x1d4 ./tray/channel.o
                0x000127ac                chnStopByProt
 .text.chnLowSmplProc
                0x00012980       0x78 ./tray/channel.o
                0x00012980                chnLowSmplProc
 .text.chnInit  0x000129f8       0x90 ./tray/channel.o
                0x000129f8                chnInit
 .text.tray_setting_load
                0x00012a88      0x18c ./tray/entry.o
                0x00012a88                tray_setting_load
 .text.traySpecsMap
                0x00012c14      0x3cc ./tray/entry.o
                0x00012c14                traySpecsMap
 .text.mainInit
                0x00012fe0      0xf50 ./tray/entry.o
                0x00012fe0                mainInit
 .text.ctrlInitApp
                0x00013f30       0x50 ./tray/entry.o
                0x00013f30                ctrlInitApp
 .text.recvCtrlGet
                0x00013f80       0x14 ./tray/flow.o
                0x00013f80                recvCtrlGet
 .text.recvCtrlSetup
                0x00013f94       0x44 ./tray/flow.o
                0x00013f94                recvCtrlSetup
 .text.recvCtrlFree
                0x00013fd8       0x34 ./tray/flow.o
                0x00013fd8                recvCtrlFree
 .text.stepType2ObjAmtId
                0x0001400c       0x2e ./tray/flow.o
                0x0001400c                stepType2ObjAmtId
 .text.stepProtId2ObjAmtId
                0x0001403a       0x9c ./tray/flow.o
                0x0001403a                stepProtId2ObjAmtId
 .text.trayProtId2ObjAmtId
                0x000140d6       0x74 ./tray/flow.o
                0x000140d6                trayProtId2ObjAmtId
 .text.getStepEndTime
                0x0001414a       0x18 ./tray/flow.o
                0x0001414a                getStepEndTime
 .text.findStepNode
                0x00014162       0x20 ./tray/flow.o
                0x00014162                findStepNode
 .text.getNxtStep
                0x00014182       0x6a ./tray/flow.o
                0x00014182                getNxtStep
 .text.flowProtCfgChkSame
                0x000141ec       0x58 ./tray/flow.o
                0x000141ec                flowProtCfgChkSame
 .text.flowProtCfgNew
                0x00014244       0x90 ./tray/flow.o
                0x00014244                flowProtCfgNew
 .text.flowProtCfgRel
                0x000142d4       0x38 ./tray/flow.o
                0x000142d4                flowProtCfgRel
 .text.stepProtCfgChkSame
                0x0001430c       0x4c ./tray/flow.o
                0x0001430c                stepProtCfgChkSame
 .text.stepProtCfgNew
                0x00014358       0x80 ./tray/flow.o
                0x00014358                stepProtCfgNew
 .text.stepProtCfgRel
                0x000143d8       0x38 ./tray/flow.o
                0x000143d8                stepProtCfgRel
 .text.stepNodeNew
                0x00014410       0x2c ./tray/flow.o
                0x00014410                stepNodeNew
 .text.protNodeNew
                0x0001443c       0x24 ./tray/flow.o
                0x0001443c                protNodeNew
 .text.protObjChkSame
                0x00014460       0x60 ./tray/flow.o
                0x00014460                protObjChkSame
 .text.protObjNew
                0x000144c0       0xc0 ./tray/flow.o
                0x000144c0                protObjNew
 .text.protObjRel
                0x00014580       0x4c ./tray/flow.o
                0x00014580                protObjRel
 .text.stepObjChkSame
                0x000145cc       0x54 ./tray/flow.o
                0x000145cc                stepObjChkSame
 .text.stepObjNew
                0x00014620       0xc4 ./tray/flow.o
                0x00014620                stepObjNew
 .text.stepObjRel
                0x000146e4       0x4c ./tray/flow.o
                0x000146e4                stepObjRel
 .text.trayProtEntryNew
                0x00014730       0x54 ./tray/flow.o
                0x00014730                trayProtEntryNew
 .text.trayProtEntryRel
                0x00014784       0x6c ./tray/flow.o
                0x00014784                trayProtEntryRel
 .text.flowProtEntryNew
                0x000147f0       0x54 ./tray/flow.o
                0x000147f0                flowProtEntryNew
 .text.flowProtEntryRel
                0x00014844       0x74 ./tray/flow.o
                0x00014844                flowProtEntryRel
 .text.stepProtEntryNew
                0x000148b8       0x54 ./tray/flow.o
                0x000148b8                stepProtEntryNew
 .text.stepProtEntryRel
                0x0001490c       0x6c ./tray/flow.o
                0x0001490c                stepProtEntryRel
 .text.flowStepEntryNew
                0x00014978       0x48 ./tray/flow.o
                0x00014978                flowStepEntryNew
 .text.flowStepEntryRel
                0x000149c0       0x78 ./tray/flow.o
                0x000149c0                flowStepEntryRel
 .text.chnFlowRel
                0x00014a38       0x1a ./tray/flow.o
                0x00014a38                chnFlowRel
 .text.chnProtRel
                0x00014a52       0x38 ./tray/flow.o
                0x00014a52                chnProtRel
 *fill*         0x00014a8a        0x2 ff
 .text.upFlowStepSave
                0x00014a8c      0x394 ./tray/flow.o
                0x00014a8c                upFlowStepSave
 .text.trayProtRelNml
                0x00014e20       0x2a ./tray/flow.o
                0x00014e20                trayProtRelNml
 .text.trayProtRel
                0x00014e4a       0x18 ./tray/flow.o
                0x00014e4a                trayProtRel
 *fill*         0x00014e62        0x2 ff
 .text.policyParse
                0x00014e64      0x110 ./tray/flow.o
                0x00014e64                policyParse
 .text.protExpParse
                0x00014f74       0xea ./tray/flow.o
                0x00014f74                protExpParse
 *fill*         0x0001505e        0x2 ff
 .text.protExpSave
                0x00015060       0x74 ./tray/flow.o
                0x00015060                protExpSave
 .text.upTrayProtSave
                0x000150d4      0x204 ./tray/flow.o
                0x000150d4                upTrayProtSave
 .text.chnStepProtCopy
                0x000152d8       0x44 ./tray/flow.o
                0x000152d8                chnStepProtCopy
 .text.upStepProtSave
                0x0001531c      0x484 ./tray/flow.o
                0x0001531c                upStepProtSave
 .text.flowInit
                0x000157a0      0x240 ./tray/flow.o
                0x000157a0                flowInit
 .text.stackPush
                0x000159e0       0x1e ./tray/func.o
 .text.stackPop
                0x000159fe       0x18 ./tray/func.o
 .text.crc16Modbus
                0x00015a16       0x46 ./tray/func.o
                0x00015a16                crc16Modbus
 .text.chkSum32
                0x00015a5c       0x44 ./tray/func.o
                0x00015a5c                chkSum32
 .text.mem2Copy
                0x00015aa0       0x1a ./tray/func.o
                0x00015aa0                mem2Copy
 .text.sysMemAlloc
                0x00015aba       0x22 ./tray/func.o
                0x00015aba                sysMemAlloc
 .text.memMgrInit
                0x00015adc       0xaa ./tray/func.o
                0x00015adc                memMgrInit
 *fill*         0x00015b86        0x2 ff
 .text.memAlloc
                0x00015b88       0x48 ./tray/func.o
                0x00015b88                memAlloc
 .text.memFree  0x00015bd0       0x1c ./tray/func.o
                0x00015bd0                memFree
 .text.stackSetup
                0x00015bec       0x2e ./tray/func.o
 .text.strTokRel
                0x00015c1a       0x30 ./tray/func.o
                0x00015c1a                strTokRel
 .text.strTokSetup
                0x00015c4a       0xba ./tray/func.o
                0x00015c4a                strTokSetup
 .text.strTokGet
                0x00015d04       0x18 ./tray/func.o
                0x00015d04                strTokGet
 .text.strToHex
                0x00015d1c       0x90 ./tray/func.o
                0x00015d1c                strToHex
 .text.expInfix2Suffix
                0x00015dac      0x1be ./tray/func.o
                0x00015dac                expInfix2Suffix
 .text.expSuffixCalc
                0x00015f6a      0x176 ./tray/func.o
                0x00015f6a                expSuffixCalc
 .text.funcInit
                0x000160e0       0x24 ./tray/func.o
                0x000160e0                funcInit
 .text.upStepChkErr
                0x00016104        0x4 ./tray/host.o
                0x00016104                upStepChkErr
 .text.upStepChkQuiet
                0x00016108        0xa ./tray/host.o
                0x00016108                upStepChkQuiet
 *fill*         0x00016112        0x2 ff
 .text.upStepChkCCC
                0x00016114       0x38 ./tray/host.o
                0x00016114                upStepChkCCC
 .text.upStepChkCCD
                0x0001614c       0x38 ./tray/host.o
                0x0001614c                upStepChkCCD
 .text.upStepChkCCCVC
                0x00016184       0x54 ./tray/host.o
                0x00016184                upStepChkCCCVC
 .text.upStepChkCCCVD
                0x000161d8       0x54 ./tray/host.o
                0x000161d8                upStepChkCCCVD
 .text.upStepChkCVC
                0x0001622c       0x58 ./tray/host.o
                0x0001622c                upStepChkCVC
 .text.upStepChkCVD
                0x00016284       0x58 ./tray/host.o
                0x00016284                upStepChkCVD
 .text.upStepChkLoop
                0x000162dc       0x22 ./tray/host.o
                0x000162dc                upStepChkLoop
 .text.upStepChkDcir
                0x000162fe        0x4 ./tray/host.o
                0x000162fe                upStepChkDcir
 .text.upMsgIgnore
                0x00016302        0x2 ./tray/host.o
                0x00016302                upMsgIgnore
 .text.upMsgDispManu
                0x00016304       0x20 ./tray/host.o
                0x00016304                upMsgDispManu
 .text.upMsgUpdUpld
                0x00016324        0x2 ./tray/host.o
                0x00016324                upMsgUpdUpld
 *fill*         0x00016326        0x2 ff
 .text.upMsgDispUpdate
                0x00016328       0x20 ./tray/host.o
                0x00016328                upMsgDispUpdate
 .text.upMsgFixtPrecDisp
                0x00016348       0x20 ./tray/host.o
                0x00016348                upMsgFixtPrecDisp
 .text.upMsgFixtTmprDisp
                0x00016368       0x24 ./tray/host.o
                0x00016368                upMsgFixtTmprDisp
 .text.upMsgFixtCleanDisp
                0x0001638c       0x1c ./tray/host.o
                0x0001638c                upMsgFixtCleanDisp
 .text.upMsgFixtGasDisp
                0x000163a8       0x1c ./tray/host.o
                0x000163a8                upMsgFixtGasDisp
 .text.upMsgFixtFlowDisp
                0x000163c4       0x1c ./tray/host.o
                0x000163c4                upMsgFixtFlowDisp
 .text.upMsgFixtSuctInDisp
                0x000163e0       0x20 ./tray/host.o
                0x000163e0                upMsgFixtSuctInDisp
 .text.upMsgFixtSuctOutDisp
                0x00016400       0x20 ./tray/host.o
                0x00016400                upMsgFixtSuctOutDisp
 .text.upMsgFixtLocatDisp
                0x00016420       0x20 ./tray/host.o
                0x00016420                upMsgFixtLocatDisp
 .text.upMsgDispFixt
                0x00016440       0x20 ./tray/host.o
                0x00016440                upMsgDispFixt
 .text.upMsgDispCali
                0x00016460       0x20 ./tray/host.o
                0x00016460                upMsgDispCali
 .text.upMsgDispNdbd
                0x00016480       0x20 ./tray/host.o
                0x00016480                upMsgDispNdbd
 .text.upMsgDispDbg
                0x000164a0        0x2 ./tray/host.o
                0x000164a0                upMsgDispDbg
 *fill*         0x000164a2        0x2 ff
 .text.upMsgConnAck
                0x000164a4       0x1c ./tray/host.o
                0x000164a4                upMsgConnAck
 .text.upDataRecv
                0x000164c0       0xd0 ./tray/host.o
                0x000164c0                upDataRecv
 .text.upStepChk
                0x00016590       0x24 ./tray/host.o
                0x00016590                upStepChk
 .text.upChnMap
                0x000165b4       0x46 ./tray/host.o
                0x000165b4                upChnMap
 *fill*         0x000165fa        0x2 ff
 .text.upFlowStepChk
                0x000165fc      0x1ac ./tray/host.o
                0x000165fc                upFlowStepChk
 .text.upTrayProtChk
                0x000167a8      0x10c ./tray/host.o
                0x000167a8                upTrayProtChk
 .text.upStepProtChk
                0x000168b4      0x158 ./tray/host.o
                0x000168b4                upStepProtChk
 .text.sendUpMsg
                0x00016a0c       0x40 ./tray/host.o
                0x00016a0c                sendUpMsg
 .text.upMsgFlowJump
                0x00016a4c       0xb0 ./tray/host.o
                0x00016a4c                upMsgFlowJump
 .text.rspUpCmmn
                0x00016afc       0x20 ./tray/host.o
                0x00016afc                rspUpCmmn
 .text.upMsgFlowStep
                0x00016b1c       0x2a ./tray/host.o
                0x00016b1c                upMsgFlowStep
 .text.upMsgTrayProt
                0x00016b46       0x2a ./tray/host.o
                0x00016b46                upMsgTrayProt
 .text.upMsgStepProt
                0x00016b70       0x2a ./tray/host.o
                0x00016b70                upMsgStepProt
 *fill*         0x00016b9a        0x2 ff
 .text.upMsgSmplNdbd
                0x00016b9c      0x140 ./tray/host.o
                0x00016b9c                upMsgSmplNdbd
 .text.upMsgWarnDel
                0x00016cdc      0x124 ./tray/host.o
                0x00016cdc                upMsgWarnDel
 .text.upMsgFlowCtnu
                0x00016e00       0x10 ./tray/host.o
                0x00016e00                upMsgFlowCtnu
 .text.trayUpDiscExpr
                0x00016e10       0x48 ./tray/host.o
                0x00016e10                trayUpDiscExpr
 .text.keepAliveChk
                0x00016e58       0x5c ./tray/host.o
                0x00016e58                keepAliveChk
 .text.sendUpConnCmd
                0x00016eb4      0x428 ./tray/host.o
                0x00016eb4                sendUpConnCmd
 .text.sendUpConnNtfy
                0x000172dc       0x10 ./tray/host.o
                0x000172dc                sendUpConnNtfy
 .text.upSmplChnChk
                0x000172ec       0x3c ./tray/host.o
                0x000172ec                upSmplChnChk
 .text.upMsgSmplChnl
                0x00017328       0xd4 ./tray/host.o
                0x00017328                upMsgSmplChnl
 .text.upSmplStackChk
                0x000173fc       0x8c ./tray/host.o
                0x000173fc                upSmplStackChk
 .text.upMsgSmplStack
                0x00017488      0x1b8 ./tray/host.o
                0x00017488                upMsgSmplStack
 .text.findSmplBufSeq
                0x00017640       0x32 ./tray/host.o
                0x00017640                findSmplBufSeq
 *fill*         0x00017672        0x2 ff
 .text.upMsgSmplTray
                0x00017674      0x11c ./tray/host.o
                0x00017674                upMsgSmplTray
 .text.boxStartChk
                0x00017790       0x18 ./tray/host.o
                0x00017790                boxStartChk
 .text.chnStartChk
                0x000177a8       0x2c ./tray/host.o
                0x000177a8                chnStartChk
 .text.trayHasWarn
                0x000177d4       0x1e ./tray/host.o
                0x000177d4                trayHasWarn
 .text.cmmnStartTrayChk
                0x000177f2       0x80 ./tray/host.o
                0x000177f2                cmmnStartTrayChk
 .text.upMsgStartChnChk
                0x00017872       0xf2 ./tray/host.o
                0x00017872                upMsgStartChnChk
 .text.upMsgFlowStartChk
                0x00017964       0x3e ./tray/host.o
                0x00017964                upMsgFlowStartChk
 *fill*         0x000179a2        0x2 ff
 .text.upMsgFlowStart
                0x000179a4      0x394 ./tray/host.o
                0x000179a4                upMsgFlowStart
 .text.upMsgFlowStopChk
                0x00017d38       0x9a ./tray/host.o
                0x00017d38                upMsgFlowStopChk
 *fill*         0x00017dd2        0x2 ff
 .text.upMsgFlowPause
                0x00017dd4      0x18c ./tray/host.o
                0x00017dd4                upMsgFlowPause
 .text.upMsgFlowStop
                0x00017f60      0x1dc ./tray/host.o
                0x00017f60                upMsgFlowStop
 .text.upMsgFlowStackChk
                0x0001813c      0x1cc ./tray/host.o
                0x0001813c                upMsgFlowStackChk
 .text.upMsgFlowStack
                0x00018308      0x398 ./tray/host.o
                0x00018308                upMsgFlowStack
 .text.upMsgSeriesCellSwChk
                0x000186a0       0x90 ./tray/host.o
                0x000186a0                upMsgSeriesCellSwChk
 .text.upMsgSeriesCellSw
                0x00018730      0x134 ./tray/host.o
                0x00018730                upMsgSeriesCellSw
 .text.upMsgRgbCtrlChk
                0x00018864       0x34 ./tray/host.o
                0x00018864                upMsgRgbCtrlChk
 .text.upMsgRgbCtrl
                0x00018898       0x6a ./tray/host.o
                0x00018898                upMsgRgbCtrl
 *fill*         0x00018902        0x2 ff
 .text.trayBoxMntnAble
                0x00018904       0x3c ./tray/host.o
                0x00018904                trayBoxMntnAble
 .text.upCfgReadChk
                0x00018940       0x50 ./tray/host.o
                0x00018940                upCfgReadChk
 .text.upMsgCfgRead
                0x00018990       0x84 ./tray/host.o
                0x00018990                upMsgCfgRead
 .text.upCfgSetChk
                0x00018a14       0xc4 ./tray/host.o
                0x00018a14                upCfgSetChk
 .text.upMsgCfgSet
                0x00018ad8       0xf0 ./tray/host.o
                0x00018ad8                upMsgCfgSet
 .text.upMsgUpdSetupChk
                0x00018bc8       0x58 ./tray/host.o
                0x00018bc8                upMsgUpdSetupChk
 .text.rspUpUpdSetup
                0x00018c20       0x24 ./tray/host.o
                0x00018c20                rspUpUpdSetup
 .text.upMsgUpdSetup
                0x00018c44       0xf8 ./tray/host.o
                0x00018c44                upMsgUpdSetup
 .text.upMsgUpdDldChk
                0x00018d3c       0x48 ./tray/host.o
                0x00018d3c                upMsgUpdDldChk
 .text.upMsgUpdDld
                0x00018d84       0xec ./tray/host.o
                0x00018d84                upMsgUpdDld
 .text.upMsgUpdCnfmChk
                0x00018e70       0x30 ./tray/host.o
                0x00018e70                upMsgUpdCnfmChk
 .text.rspUpUpdCnfm
                0x00018ea0       0x1c ./tray/host.o
                0x00018ea0                rspUpUpdCnfm
 .text.upMsgUpdCnfm
                0x00018ebc       0x98 ./tray/host.o
                0x00018ebc                upMsgUpdCnfm
 .text.upFixtNtfyChk
                0x00018f54       0x3c ./tray/host.o
                0x00018f54                upFixtNtfyChk
 .text.upMsgFixtNtfy
                0x00018f90       0xac ./tray/host.o
                0x00018f90                upMsgFixtNtfy
 .text.upFixtPrecChnlSwChk
                0x0001903c       0x54 ./tray/host.o
                0x0001903c                upFixtPrecChnlSwChk
 .text.upMsgFixtPrecChnlSw
                0x00019090       0x8c ./tray/host.o
                0x00019090                upMsgFixtPrecChnlSw
 .text.upFixtPrecSmplChk
                0x0001911c       0x48 ./tray/host.o
                0x0001911c                upFixtPrecSmplChk
 .text.upMsgFixtPrecSmpl
                0x00019164       0x7c ./tray/host.o
                0x00019164                upMsgFixtPrecSmpl
 .text.upFixtPrecOutChk
                0x000191e0       0x3c ./tray/host.o
                0x000191e0                upFixtPrecOutChk
 .text.upMsgFixtPrecOut
                0x0001921c       0x80 ./tray/host.o
                0x0001921c                upMsgFixtPrecOut
 .text.upFixtTmprHeatChk
                0x0001929c       0x3c ./tray/host.o
                0x0001929c                upFixtTmprHeatChk
 .text.upMsgFixtTmprHeat
                0x000192d8       0x80 ./tray/host.o
                0x000192d8                upMsgFixtTmprHeat
 .text.upFixtTmprSmplChk
                0x00019358       0x48 ./tray/host.o
                0x00019358                upFixtTmprSmplChk
 .text.upMsgFixtTmprSmpl
                0x000193a0       0x6c ./tray/host.o
                0x000193a0                upMsgFixtTmprSmpl
 .text.upFixtCleanActChk
                0x0001940c       0x48 ./tray/host.o
                0x0001940c                upFixtCleanActChk
 .text.upMsgFixtCleanAct
                0x00019454       0x70 ./tray/host.o
                0x00019454                upMsgFixtCleanAct
 .text.upFixtGasSmplChk
                0x000194c4       0x3c ./tray/host.o
                0x000194c4                upFixtGasSmplChk
 .text.upMsgFixtGasSmpl
                0x00019500       0x6c ./tray/host.o
                0x00019500                upMsgFixtGasSmpl
 .text.upFixtFlowSmplChk
                0x0001956c       0x3c ./tray/host.o
                0x0001956c                upFixtFlowSmplChk
 .text.upMsgFixtFlowSmpl
                0x000195a8       0x6c ./tray/host.o
                0x000195a8                upMsgFixtFlowSmpl
 .text.upFixtSuctInSmplChk
                0x00019614       0x3c ./tray/host.o
                0x00019614                upFixtSuctInSmplChk
 .text.upMsgFixtSuctInSmpl
                0x00019650       0x68 ./tray/host.o
                0x00019650                upMsgFixtSuctInSmpl
 .text.upMsgFixtSuctIn2Smpl
                0x000196b8       0x68 ./tray/host.o
                0x000196b8                upMsgFixtSuctIn2Smpl
 .text.upFixtSuctIn2ActChk
                0x00019720       0x3c ./tray/host.o
                0x00019720                upFixtSuctIn2ActChk
 .text.upMsgFixtSuctIn2Act
                0x0001975c       0x68 ./tray/host.o
                0x0001975c                upMsgFixtSuctIn2Act
 .text.upFixtSuctOutActChk
                0x000197c4       0x48 ./tray/host.o
                0x000197c4                upFixtSuctOutActChk
 .text.upMsgFixtSuctOutAct
                0x0001980c       0x6c ./tray/host.o
                0x0001980c                upMsgFixtSuctOutAct
 .text.upFixtSuctOutSmplChk
                0x00019878       0x3c ./tray/host.o
                0x00019878                upFixtSuctOutSmplChk
 .text.upMsgFixtSuctOutSmpl
                0x000198b4       0x64 ./tray/host.o
                0x000198b4                upMsgFixtSuctOutSmpl
 .text.upMsgFixtSuctOut2Smpl
                0x00019918       0x64 ./tray/host.o
                0x00019918                upMsgFixtSuctOut2Smpl
 .text.upFixtSuctOut2ActChk
                0x0001997c       0x48 ./tray/host.o
                0x0001997c                upFixtSuctOut2ActChk
 .text.upMsgFixtSuctOut2Act
                0x000199c4       0x74 ./tray/host.o
                0x000199c4                upMsgFixtSuctOut2Act
 .text.upFixtLocatSmplChk
                0x00019a38       0x3c ./tray/host.o
                0x00019a38                upFixtLocatSmplChk
 .text.upMsgFixtLocatSmpl
                0x00019a74       0x64 ./tray/host.o
                0x00019a74                upMsgFixtLocatSmpl
 .text.upMsgFixtLocat2Smpl
                0x00019ad8       0x64 ./tray/host.o
                0x00019ad8                upMsgFixtLocat2Smpl
 .text.upFixtLocatActChk
                0x00019b3c       0x60 ./tray/host.o
                0x00019b3c                upFixtLocatActChk
 .text.upMsgFixtLocatAct
                0x00019b9c       0x78 ./tray/host.o
                0x00019b9c                upMsgFixtLocatAct
 .text.upFixtLocat2ActChk
                0x00019c14       0x60 ./tray/host.o
                0x00019c14                upFixtLocat2ActChk
 .text.upMsgFixtLocat2Act
                0x00019c74       0x7c ./tray/host.o
                0x00019c74                upMsgFixtLocat2Act
 .text.upCaliNtfyChk
                0x00019cf0       0x60 ./tray/host.o
                0x00019cf0                upCaliNtfyChk
 .text.rspUpCaliNtfyAck
                0x00019d50       0x20 ./tray/host.o
                0x00019d50                rspUpCaliNtfyAck
 .text.upMsgCaliNtfy
                0x00019d70       0x78 ./tray/host.o
                0x00019d70                upMsgCaliNtfy
 .text.upCaliStartChk
                0x00019de8       0x30 ./tray/host.o
                0x00019de8                upCaliStartChk
 .text.upMsgCaliStart
                0x00019e18       0xbc ./tray/host.o
                0x00019e18                upMsgCaliStart
 .text.upCaliSmplChk
                0x00019ed4       0x30 ./tray/host.o
                0x00019ed4                upCaliSmplChk
 .text.upMsgCaliSmpl
                0x00019f04       0xc8 ./tray/host.o
                0x00019f04                upMsgCaliSmpl
 .text.upCaliKbChk
                0x00019fcc       0x30 ./tray/host.o
                0x00019fcc                upCaliKbChk
 .text.upMsgCaliKb
                0x00019ffc       0xc4 ./tray/host.o
                0x00019ffc                upMsgCaliKb
 .text.upNdbdActChk
                0x0001a0c0       0x68 ./tray/host.o
                0x0001a0c0                upNdbdActChk
 .text.upMsgNdbdAct
                0x0001a128       0x52 ./tray/host.o
                0x0001a128                upMsgNdbdAct
 *fill*         0x0001a17a        0x2 ff
 .text.upNdbdNpChk
                0x0001a17c       0x4c ./tray/host.o
                0x0001a17c                upNdbdNpChk
 .text.upMsgNdbdNp
                0x0001a1c8       0x4c ./tray/host.o
                0x0001a1c8                upMsgNdbdNp
 .text.upNdbdFixtPowerChk
                0x0001a214       0x48 ./tray/host.o
                0x0001a214                upNdbdFixtPowerChk
 .text.upMsgFixtPower
                0x0001a25c       0x36 ./tray/host.o
                0x0001a25c                upMsgFixtPower
 *fill*         0x0001a292        0x2 ff
 .text.upInitApp
                0x0001a294      0x374 ./tray/host.o
                0x0001a294                upInitApp
 .text.logTrc   0x0001a608       0x78 ./tray/log.o
                0x0001a608                logTrc
 .text.logInit  0x0001a680       0x20 ./tray/log.o
                0x0001a680                logInit
 .text.Pb_task  0x0001a6a0       0x5c ./tray/pb.o
                0x0001a6a0                Pb_task
 .text.Pb_plc_txbuf_malloc
                0x0001a6fc       0x3c ./tray/pb.o
                0x0001a6fc                Pb_plc_txbuf_malloc
 .text.pb_plc_usocket_reconn
                0x0001a738       0x14 ./tray/pb.o
                0x0001a738                pb_plc_usocket_reconn
 .text.Pb_plc_socket_init
                0x0001a74c       0x4c ./tray/pb.o
                0x0001a74c                Pb_plc_socket_init
 .text.Pb_init  0x0001a798       0x38 ./tray/pb.o
                0x0001a798                Pb_init
 .text.plc_setting_load
                0x0001a7d0       0xd8 ./tray/plc.o
                0x0001a7d0                plc_setting_load
 .text.plcBlkBufAlloc
                0x0001a8a8       0x1e ./tray/plc.o
                0x0001a8a8                plcBlkBufAlloc
 .text.plcBlkBufFree
                0x0001a8c6       0x24 ./tray/plc.o
                0x0001a8c6                plcBlkBufFree
 *fill*         0x0001a8ea        0x2 ff
 .text.plcSmplAddrReset
                0x0001a8ec       0x28 ./tray/plc.o
                0x0001a8ec                plcSmplAddrReset
 .text.plcSmplAddrUpdate
                0x0001a914       0x60 ./tray/plc.o
                0x0001a914                plcSmplAddrUpdate
 .text.devTrayIdx2Plc
                0x0001a974       0x4c ./tray/plc.o
                0x0001a974                devTrayIdx2Plc
 .text.plcRegWrite
                0x0001a9c0       0x7c ./tray/plc.o
                0x0001a9c0                plcRegWrite
 .text.plcRegWriteTry
                0x0001aa3c       0x5c ./tray/plc.o
                0x0001aa3c                plcRegWriteTry
 .text.plcSmplTx
                0x0001aa98       0x62 ./tray/plc.o
                0x0001aa98                plcSmplTx
 .text.plcSmplBegin
                0x0001aafa       0x3e ./tray/plc.o
                0x0001aafa                plcSmplBegin
 .text.plcIdleNtfy
                0x0001ab38       0x40 ./tray/plc.o
                0x0001ab38                plcIdleNtfy
 .text.plcExprAckNtfy
                0x0001ab78       0x70 ./tray/plc.o
                0x0001ab78                plcExprAckNtfy
 .text.plcExprRxSmplAck
                0x0001abe8       0x26 ./tray/plc.o
                0x0001abe8                plcExprRxSmplAck
 .text.plcExprRxCtrlAck
                0x0001ac0e       0x1e ./tray/plc.o
                0x0001ac0e                plcExprRxCtrlAck
 .text.plcRxSmplAck
                0x0001ac2c      0x184 ./tray/plc.o
                0x0001ac2c                plcRxSmplAck
 .text.plcRxMsg
                0x0001adb0      0x150 ./tray/plc.o
                0x0001adb0                plcRxMsg
 .text.plcInitAddr
                0x0001af00      0x5a0 ./tray/plc.o
                0x0001af00                plcInitAddr
 .text.plcBeOnline
                0x0001b4a0       0x28 ./tray/plc.o
                0x0001b4a0                plcBeOnline
 .text.plcInit  0x0001b4c8      0x298 ./tray/plc.o
                0x0001b4c8                plcInit
 .text.trayProtEnable
                0x0001b760       0xd2 ./tray/protect.o
                0x0001b760                trayProtEnable
 *fill*         0x0001b832        0x2 ff
 .text.chnProtReverse
                0x0001b834      0x28c ./tray/protect.o
                0x0001b834                chnProtReverse
 .text.setTrayProtCause
                0x0001bac0       0x14 ./tray/protect.o
                0x0001bac0                setTrayProtCause
 .text.setChnNmlProt
                0x0001bad4       0x4e ./tray/protect.o
                0x0001bad4                setChnNmlProt
 .text.setChnAbnml
                0x0001bb22       0x4c ./tray/protect.o
                0x0001bb22                setChnAbnml
 .text.setChnMixSubProt
                0x0001bb6e       0x4a ./tray/protect.o
                0x0001bb6e                setChnMixSubProt
 .text.resistanceCalc
                0x0001bbb8       0x68 ./tray/protect.o
                0x0001bbb8                resistanceCalc
 .text.trayNpBigRiseRst
                0x0001bc20        0x8 ./tray/protect.o
                0x0001bc20                trayNpBigRiseRst
 .text.trayBusyNpBigRise0100
                0x0001bc28       0xac ./tray/protect.o
                0x0001bc28                trayBusyNpBigRise0100
 .text.trayBusyChnTmprBigRise0101
                0x0001bcd4       0x4c ./tray/protect.o
                0x0001bcd4                trayBusyChnTmprBigRise0101
 .text.trayBusyTmprLowLmt0103
                0x0001bd20       0xba ./tray/protect.o
                0x0001bd20                trayBusyTmprLowLmt0103
 .text.chnIdleVolRise0200
                0x0001bdda       0xc0 ./tray/protect.o
                0x0001bdda                chnIdleVolRise0200
 .text.chnIdleTmprUpFluct0201
                0x0001be9a       0xb2 ./tray/protect.o
                0x0001be9a                chnIdleTmprUpFluct0201
 .text.chnIdleVolDown0204
                0x0001bf4c       0xc0 ./tray/protect.o
                0x0001bf4c                chnIdleVolDown0204
 .text.trayAllNpUpLmt0300
                0x0001c00c       0x32 ./tray/protect.o
                0x0001c00c                trayAllNpUpLmt0300
 .text.trayProt0302CntCalc
                0x0001c03e       0x76 ./tray/protect.o
                0x0001c03e                trayProt0302CntCalc
 .text.trayAllTmprUpLmt0302
                0x0001c0b4       0xe8 ./tray/protect.o
                0x0001c0b4                trayAllTmprUpLmt0302
 .text.trayAllSmoke0303
                0x0001c19c       0xd8 ./tray/protect.o
                0x0001c19c                trayAllSmoke0303
 .text.chnQuietVolFluct0401
                0x0001c274       0x5c ./tray/protect.o
                0x0001c274                chnQuietVolFluct0401
 .text.chnQuietVolDown0402
                0x0001c2d0       0x6a ./tray/protect.o
                0x0001c2d0                chnQuietVolDown0402
 .text.chnQuietCurLeak0403
                0x0001c33a       0x44 ./tray/protect.o
                0x0001c33a                chnQuietCurLeak0403
 .text.chnStepVolLmt0404
                0x0001c37e      0x11a ./tray/protect.o
                0x0001c37e                chnStepVolLmt0404
 .text.stepChnTmprBigRise0405
                0x0001c498       0xac ./tray/protect.o
                0x0001c498                stepChnTmprBigRise0405
 .text.chnCccSetTimeVol0406
                0x0001c544       0x76 ./tray/protect.o
                0x0001c544                chnCccSetTimeVol0406
 .text.chnCcCurOfst0407
                0x0001c5ba       0x9c ./tray/protect.o
                0x0001c5ba                chnCcCurOfst0407
 .text.chnCccVolDownAbnm0408
                0x0001c656       0xfe ./tray/protect.o
                0x0001c656                chnCccVolDownAbnm0408
 .text.chnCccVolRiseRate0409
                0x0001c754       0x8c ./tray/protect.o
                0x0001c754                chnCccVolRiseRate0409
 .text.chnCcVolBigDown040a
                0x0001c7e0       0xe2 ./tray/protect.o
                0x0001c7e0                chnCcVolBigDown040a
 .text.chnStepCapLmt040b
                0x0001c8c2      0x100 ./tray/protect.o
                0x0001c8c2                chnStepCapLmt040b
 .text.chnCcVolIntvlFluct040c
                0x0001c9c2       0xf6 ./tray/protect.o
                0x0001c9c2                chnCcVolIntvlFluct040c
 .text.chnCccVolRiseCtnu040d
                0x0001cab8       0x8c ./tray/protect.o
                0x0001cab8                chnCccVolRiseCtnu040d
 .text.chnCccVolDownCtnu040e
                0x0001cb44       0x8c ./tray/protect.o
                0x0001cb44                chnCccVolDownCtnu040e
 .text.chnCcdVolRiseAbnm040f
                0x0001cbd0       0xfe ./tray/protect.o
                0x0001cbd0                chnCcdVolRiseAbnm040f
 .text.chnCvcVolOfst0410
                0x0001ccce       0x88 ./tray/protect.o
                0x0001ccce                chnCvcVolOfst0410
 .text.chnCvcCurRiseAbnm0411
                0x0001cd56      0x16e ./tray/protect.o
                0x0001cd56                chnCvcCurRiseAbnm0411
 .text.chnCvcCurBigRise0412
                0x0001cec4       0xc8 ./tray/protect.o
                0x0001cec4                chnCvcCurBigRise0412
 .text.chnQuietVolChkBack0413
                0x0001cf8c       0x4a ./tray/protect.o
                0x0001cf8c                chnQuietVolChkBack0413
 .text.flowChnTmprLmt0501
                0x0001cfd6       0x5a ./tray/protect.o
                0x0001cfd6                flowChnTmprLmt0501
 .text.flowChgOvld0502
                0x0001d030       0x8e ./tray/protect.o
                0x0001d030                flowChgOvld0502
 .text.flowDisChgOvld0503
                0x0001d0be       0x94 ./tray/protect.o
                0x0001d0be                flowDisChgOvld0503
 .text.flowContactChk0504
                0x0001d152      0x16e ./tray/protect.o
                0x0001d152                flowContactChk0504
 .text.flowIdleVolIntvlRise0505
                0x0001d2c0       0xc0 ./tray/protect.o
                0x0001d2c0                flowIdleVolIntvlRise0505
 .text.flowCcdcVolIntvlFluct0506
                0x0001d380       0xb0 ./tray/protect.o
                0x0001d380                flowCcdcVolIntvlFluct0506
 .text.flowChnCrashVol0507
                0x0001d430       0x62 ./tray/protect.o
                0x0001d430                flowChnCrashVol0507
 .text.flowChnCapTtl0508
                0x0001d492       0x56 ./tray/protect.o
                0x0001d492                flowChnCapTtl0508
 .text.flowIdleCurLeak0509
                0x0001d4e8       0x7c ./tray/protect.o
                0x0001d4e8                flowIdleCurLeak0509
 .text.FlowIdleVolTtlRise050a
                0x0001d564       0x9c ./tray/protect.o
                0x0001d564                FlowIdleVolTtlRise050a
 .text.tmprBoxProt
                0x0001d600       0x5c ./tray/protect.o
                0x0001d600                tmprBoxProt
 .text.npExprProt
                0x0001d65c       0xba ./tray/protect.o
                0x0001d65c                npExprProt
 .text.ndbdDevProt
                0x0001d716       0x56 ./tray/protect.o
                0x0001d716                ndbdDevProt
 .text.trayProtWork
                0x0001d76c      0x102 ./tray/protect.o
                0x0001d76c                trayProtWork
 *fill*         0x0001d86e        0x2 ff
 .text.flowProtWrok
                0x0001d870       0xd4 ./tray/protect.o
                0x0001d870                flowProtWrok
 .text.stepProtWork
                0x0001d944      0x16c ./tray/protect.o
                0x0001d944                stepProtWork
 .text.mixSubRmvExpr
                0x0001dab0       0x38 ./tray/protect.o
                0x0001dab0                mixSubRmvExpr
 .text.mixProtPolicySet
                0x0001dae8       0x5c ./tray/protect.o
                0x0001dae8                mixProtPolicySet
 .text.mixProtWork
                0x0001db44       0xa8 ./tray/protect.o
                0x0001db44                mixProtWork
 .text.mixProtPolicyAct
                0x0001dbec      0x10c ./tray/protect.o
                0x0001dbec                mixProtPolicyAct
 .text.chnProtWork
                0x0001dcf8       0xf6 ./tray/protect.o
                0x0001dcf8                chnProtWork
 .text.exprIgnore
                0x0001ddee        0x2 ./tray/timer.o
                0x0001ddee                exprIgnore
 .text.devAppSw2Boot
                0x0001ddf0        0x2 ./tray/timer.o
                0x0001ddf0                devAppSw2Boot
 *fill*         0x0001ddf2        0x2 ff
 .text.sysTimeSecGet
                0x0001ddf4        0xc ./tray/timer.o
                0x0001ddf4                sysTimeSecGet
 .text.sysTimeGet
                0x0001de00       0x10 ./tray/timer.o
                0x0001de00                sysTimeGet
 .text.timerStart
                0x0001de10       0x98 ./tray/timer.o
                0x0001de10                timerStart
 .text.timerTask
                0x0001dea8       0x64 ./tray/timer.o
                0x0001dea8                timerTask
 .text.timerInit
                0x0001df0c       0xe0 ./tray/timer.o
                0x0001df0c                timerInit
 .text.tmprGetSingle
                0x0001dfec       0x58 ./tray/tray.o
                0x0001dfec                tmprGetSingle
 .text.traySmplSetProtAux
                0x0001e044       0xb4 ./tray/tray.o
                0x0001e044                traySmplSetProtAux
 .text.traySmplSetAuxSmpl
                0x0001e0f8      0x208 ./tray/tray.o
                0x0001e0f8                traySmplSetAuxSmpl
 .text.traySmplSetAux
                0x0001e300       0x1e ./tray/tray.o
                0x0001e300                traySmplSetAux
 *fill*         0x0001e31e        0x2 ff
 .text.trayNpReset
                0x0001e320       0x3c ./tray/tray.o
                0x0001e320                trayNpReset
 .text.trayNpRatioSet
                0x0001e35c      0x194 ./tray/tray.o
                0x0001e35c                trayNpRatioSet
 .text.trayNpSwRstDelay
                0x0001e4f0       0x14 ./tray/tray.o
                0x0001e4f0                trayNpSwRstDelay
 .text.trayNpSwProtDelay
                0x0001e504        0x8 ./tray/tray.o
                0x0001e504                trayNpSwProtDelay
 .text.trayNpChnAlloc
                0x0001e50c       0xba ./tray/tray.o
                0x0001e50c                trayNpChnAlloc
 .text.trayNpChnFree
                0x0001e5c6       0x50 ./tray/tray.o
                0x0001e5c6                trayNpChnFree
 .text.trayNpChnReAlloc
                0x0001e616       0x3a ./tray/tray.o
                0x0001e616                trayNpChnReAlloc
 .text.trayNpReachNtfy
                0x0001e650       0x68 ./tray/tray.o
                0x0001e650                trayNpReachNtfy
 .text.trayNpReachChk
                0x0001e6b8       0x70 ./tray/tray.o
                0x0001e6b8                trayNpReachChk
 .text.trayStopByProt
                0x0001e728       0x58 ./tray/tray.o
                0x0001e728                trayStopByProt
 .text.trayStopByDisk
                0x0001e780       0x96 ./tray/tray.o
                0x0001e780                trayStopByDisk
 *fill*         0x0001e816        0x2 ff
 .text.trayIgnoreNdbd
                0x0001e818       0x50 ./tray/tray.o
                0x0001e818                trayIgnoreNdbd
 .text.trayNdbdBeOnline
                0x0001e868       0x2c ./tray/tray.o
                0x0001e868                trayNdbdBeOnline
 .text.trayNdbdCtrl
                0x0001e894       0x3c ./tray/tray.o
                0x0001e894                trayNdbdCtrl
 .text.trayNdbdBreakChk
                0x0001e8d0       0x58 ./tray/tray.o
                0x0001e8d0                trayNdbdBreakChk
 .text.trayNdbdBreak
                0x0001e928       0x4c ./tray/tray.o
                0x0001e928                trayNdbdBreak
 .text.trayMntnEnter
                0x0001e974       0x22 ./tray/tray.o
                0x0001e974                trayMntnEnter
 .text.trayMntnKeep
                0x0001e996       0x14 ./tray/tray.o
                0x0001e996                trayMntnKeep
 .text.trayMntnEnd
                0x0001e9aa       0x5c ./tray/tray.o
                0x0001e9aa                trayMntnEnd
 .text.trayMntnExpr
                0x0001ea06       0x4a ./tray/tray.o
                0x0001ea06                trayMntnExpr
 .text.diskHeadChkValid
                0x0001ea50       0x26 ./tray/tray.o
                0x0001ea50                diskHeadChkValid
 .text.diskHeadSelect
                0x0001ea76       0x4e ./tray/tray.o
                0x0001ea76                diskHeadSelect
 .text.diskHeadReset
                0x0001eac4       0xe0 ./tray/tray.o
                0x0001eac4                diskHeadReset
 .text.diskHeadChkMatch
                0x0001eba4       0x6e ./tray/tray.o
                0x0001eba4                diskHeadChkMatch
 .text.diskSmplSeek
                0x0001ec12       0xc6 ./tray/tray.o
                0x0001ec12                diskSmplSeek
 .text.smplDiskRead
                0x0001ecd8       0x38 ./tray/tray.o
                0x0001ecd8                smplDiskRead
 .text.smplDiskWrite
                0x0001ed10       0xec ./tray/tray.o
                0x0001ed10                smplDiskWrite
 .text.smplDiskInit
                0x0001edfc      0x148 ./tray/tray.o
                0x0001edfc                smplDiskInit
 .text.tbl_task
                0x0001ef44       0x20 ./tray/tray_bl.o
                0x0001ef44                tbl_task
 .text.tbl_init
                0x0001ef64       0x38 ./tray/tray_bl.o
                0x0001ef64                tbl_init
 .text.uartMsgIgnore
                0x0001ef9c        0x2 ./tray/uart.o
                0x0001ef9c                uartMsgIgnore
 .text.uartMsgCfgReadAck
                0x0001ef9e        0x2 ./tray/uart.o
                0x0001ef9e                uartMsgCfgReadAck
 .text.uartMsgCfgSetAck
                0x0001efa0        0x2 ./tray/uart.o
                0x0001efa0                uartMsgCfgSetAck
 .text.uartMsgUpdSetupAck
                0x0001efa2        0x2 ./tray/uart.o
                0x0001efa2                uartMsgUpdSetupAck
 .text.uartMsgUpdDldAck
                0x0001efa4        0x2 ./tray/uart.o
                0x0001efa4                uartMsgUpdDldAck
 .text.uartMsgUpdUpldAck
                0x0001efa6        0x2 ./tray/uart.o
                0x0001efa6                uartMsgUpdUpldAck
 .text.uartMsgUpdCnfmAck
                0x0001efa8        0x2 ./tray/uart.o
                0x0001efa8                uartMsgUpdCnfmAck
 .text.uartMsgNdbdMcuCtrlAck
                0x0001efaa        0x2 ./tray/uart.o
                0x0001efaa                uartMsgNdbdMcuCtrlAck
 .text.uartMsgNdbdMcuDisp
                0x0001efac       0x18 ./tray/uart.o
                0x0001efac                uartMsgNdbdMcuDisp
 .text.uartMsgFixtPrecDisp
                0x0001efc4       0x20 ./tray/uart.o
                0x0001efc4                uartMsgFixtPrecDisp
 .text.uartMsgFixtTmprDisp
                0x0001efe4       0x24 ./tray/uart.o
                0x0001efe4                uartMsgFixtTmprDisp
 .text.uartMsgFixtCleanDisp
                0x0001f008       0x18 ./tray/uart.o
                0x0001f008                uartMsgFixtCleanDisp
 .text.uartMsgFixtGasDisp
                0x0001f020       0x18 ./tray/uart.o
                0x0001f020                uartMsgFixtGasDisp
 .text.uartMsgFixtFlowDisp
                0x0001f038       0x18 ./tray/uart.o
                0x0001f038                uartMsgFixtFlowDisp
 .text.uartMsgFixtSuctInDisp
                0x0001f050       0x18 ./tray/uart.o
                0x0001f050                uartMsgFixtSuctInDisp
 .text.uartMsgFixtSuctOutDisp
                0x0001f068       0x24 ./tray/uart.o
                0x0001f068                uartMsgFixtSuctOutDisp
 .text.uartMsgFixtLocatDisp
                0x0001f08c       0x24 ./tray/uart.o
                0x0001f08c                uartMsgFixtLocatDisp
 .text.uartMsgFixtSuctIn2Disp
                0x0001f0b0       0x24 ./tray/uart.o
                0x0001f0b0                uartMsgFixtSuctIn2Disp
 .text.uartMsgFixtSuctOut2Disp
                0x0001f0d4       0x24 ./tray/uart.o
                0x0001f0d4                uartMsgFixtSuctOut2Disp
 .text.uartMsgFixtLocat2Disp
                0x0001f0f8       0x24 ./tray/uart.o
                0x0001f0f8                uartMsgFixtLocat2Disp
 .text.uartMsgFixtCmmnAck
                0x0001f11c       0x20 ./tray/uart.o
                0x0001f11c                uartMsgFixtCmmnAck
 .text.uartMsgFixtPrecSmplAck
                0x0001f13c       0x38 ./tray/uart.o
                0x0001f13c                uartMsgFixtPrecSmplAck
 .text.uartMsgFixtSuckInSmplAck
                0x0001f174       0x34 ./tray/uart.o
                0x0001f174                uartMsgFixtSuckInSmplAck
 .text.uartMsgFixtSuckOutSmplAck
                0x0001f1a8       0x38 ./tray/uart.o
                0x0001f1a8                uartMsgFixtSuckOutSmplAck
 .text.uartMsgFixtLocatSmplAck
                0x0001f1e0       0x38 ./tray/uart.o
                0x0001f1e0                uartMsgFixtLocatSmplAck
 .text.uartMsgFixtSuckIn2SmplAck
                0x0001f218       0x38 ./tray/uart.o
                0x0001f218                uartMsgFixtSuckIn2SmplAck
 .text.uartMsgFixtSuckOut2SmplAck
                0x0001f250       0x3c ./tray/uart.o
                0x0001f250                uartMsgFixtSuckOut2SmplAck
 .text.uartMsgFixtLocat2SmplAck
                0x0001f28c       0x3c ./tray/uart.o
                0x0001f28c                uartMsgFixtLocat2SmplAck
 .text.uartMsgFixtTmprSmplAck
                0x0001f2c8       0x54 ./tray/uart.o
                0x0001f2c8                uartMsgFixtTmprSmplAck
 .text.uartMsgFixtGasSmplAck
                0x0001f31c       0x54 ./tray/uart.o
                0x0001f31c                uartMsgFixtGasSmplAck
 .text.uartMsgFixtFlowSmplAck
                0x0001f370       0x54 ./tray/uart.o
                0x0001f370                uartMsgFixtFlowSmplAck
 .text.tmprSmplBeOnline
                0x0001f3c4       0x48 ./tray/uart.o
                0x0001f3c4                tmprSmplBeOnline
 .text.uartTxMsg
                0x0001f40c       0x12 ./tray/uart.o
                0x0001f40c                uartTxMsg
 *fill*         0x0001f41e        0x2 ff
 .text.uartSmplTmprTx
                0x0001f420       0xa4 ./tray/uart.o
                0x0001f420                uartSmplTmprTx
 .text.uartSmplNdbdMcu
                0x0001f4c4       0x50 ./tray/uart.o
                0x0001f4c4                uartSmplNdbdMcu
 .text.allocUartBlockBuf
                0x0001f514       0x24 ./tray/uart.o
                0x0001f514                allocUartBlockBuf
 .text.freeUartBlockBuf
                0x0001f538       0x14 ./tray/uart.o
                0x0001f538                freeUartBlockBuf
 .text.setUartBlockBuf
                0x0001f54c       0x2c ./tray/uart.o
                0x0001f54c                setUartBlockBuf
 .text.uartNdbdMcuCtrlAdd
                0x0001f578       0x74 ./tray/uart.o
                0x0001f578                uartNdbdMcuCtrlAdd
 .text.uartNdbdMcuCtrlTx
                0x0001f5ec       0x9c ./tray/uart.o
                0x0001f5ec                uartNdbdMcuCtrlTx
 .text.uartNdbdMcuCtrlTxTry
                0x0001f688       0x4c ./tray/uart.o
                0x0001f688                uartNdbdMcuCtrlTxTry
 .text.uartTransTxTry
                0x0001f6d4       0x54 ./tray/uart.o
                0x0001f6d4                uartTransTxTry
 .text.uartSmplDevReset
                0x0001f728       0x26 ./tray/uart.o
                0x0001f728                uartSmplDevReset
 .text.uartSmplDevUpdate
                0x0001f74e       0x30 ./tray/uart.o
                0x0001f74e                uartSmplDevUpdate
 *fill*         0x0001f77e        0x2 ff
 .text.uartMsgConnAck
                0x0001f780       0xd8 ./tray/uart.o
                0x0001f780                uartMsgConnAck
 .text.uartMsgSmplAck
                0x0001f858      0x2e8 ./tray/uart.o
                0x0001f858                uartMsgSmplAck
 .text.uartSmplBegin
                0x0001fb40       0x48 ./tray/uart.o
                0x0001fb40                uartSmplBegin
 .text.uartIdleNtfy
                0x0001fb88       0x7c ./tray/uart.o
                0x0001fb88                uartIdleNtfy
 .text.uartRxMsg
                0x0001fc04       0xb0 ./tray/uart.o
                0x0001fc04                uartRxMsg
 .text.uartExprBlkAck
                0x0001fcb4       0x60 ./tray/uart.o
                0x0001fcb4                uartExprBlkAck
 .text.uartExprCtrlAck
                0x0001fd14       0xb8 ./tray/uart.o
                0x0001fd14                uartExprCtrlAck
 .text.uartExprSmplAck
                0x0001fdcc       0xa4 ./tray/uart.o
                0x0001fdcc                uartExprSmplAck
 .text.ndbdMcuCtrlRst
                0x0001fe70       0x18 ./tray/uart.o
                0x0001fe70                ndbdMcuCtrlRst
 .text.uartInit
                0x0001fe88      0x2bc ./tray/uart.o
                0x0001fe88                uartInit
 .text.hal_entry
                0x00020144       0x10 ./src/hal_entry.o
                0x00020144                hal_entry
 .text.R_BSP_WarmStart
                0x00020154       0x1c ./src/hal_entry.o
                0x00020154                R_BSP_WarmStart
 .text.main     0x00020170        0xa ./ra_gen/main.o
                0x00020170                main
 *fill*         0x0002017a        0x2 ff
 .text.R_SPI_Open
                0x0002017c      0x258 ./ra/fsp/src/r_spi/r_spi.o
                0x0002017c                R_SPI_Open
 .text.r_spi_call_callback
                0x000203d4       0x40 ./ra/fsp/src/r_spi/r_spi.o
 .text.r_spi_bit_width_config
                0x00020414       0x50 ./ra/fsp/src/r_spi/r_spi.o
                0x00020414                r_spi_bit_width_config
 .text.spi_rxi_isr
                0x00020464       0x88 ./ra/fsp/src/r_spi/r_spi.o
                0x00020464                spi_rxi_isr
 .text.spi_txi_isr
                0x000204ec      0x114 ./ra/fsp/src/r_spi/r_spi.o
                0x000204ec                spi_txi_isr
 .text.spi_tei_isr
                0x00020600       0x70 ./ra/fsp/src/r_spi/r_spi.o
                0x00020600                spi_tei_isr
 .text.spi_eri_isr
                0x00020670       0x70 ./ra/fsp/src/r_spi/r_spi.o
                0x00020670                spi_eri_isr
 .text.R_SCI_UART_Write
                0x000206e0       0x48 ./ra/fsp/src/r_sci_uart/r_sci_uart.o
                0x000206e0                R_SCI_UART_Write
 .text.r_sci_irq_cfg
                0x00020728       0x50 ./ra/fsp/src/r_sci_uart/r_sci_uart.o
 .text.R_SCI_UART_Open
                0x00020778      0x274 ./ra/fsp/src/r_sci_uart/r_sci_uart.o
                0x00020778                R_SCI_UART_Open
 .text.r_sci_uart_call_callback
                0x000209ec       0x44 ./ra/fsp/src/r_sci_uart/r_sci_uart.o
 .text.sci_uart_txi_isr
                0x00020a30       0x88 ./ra/fsp/src/r_sci_uart/r_sci_uart.o
                0x00020a30                sci_uart_txi_isr
 .text.sci_uart_rxi_isr
                0x00020ab8       0x84 ./ra/fsp/src/r_sci_uart/r_sci_uart.o
                0x00020ab8                sci_uart_rxi_isr
 .text.sci_uart_tei_isr
                0x00020b3c       0x3c ./ra/fsp/src/r_sci_uart/r_sci_uart.o
                0x00020b3c                sci_uart_tei_isr
 .text.sci_uart_eri_isr
                0x00020b78       0x68 ./ra/fsp/src/r_sci_uart/r_sci_uart.o
                0x00020b78                sci_uart_eri_isr
 .text.R_IOPORT_PinWrite
                0x00020be0       0x28 ./ra/fsp/src/r_ioport/r_ioport.o
                0x00020be0                R_IOPORT_PinWrite
 .text.r_ioport_pfs_write
                0x00020c08       0x40 ./ra/fsp/src/r_ioport/r_ioport.o
 .text.bsp_vbatt_init
                0x00020c48       0xa0 ./ra/fsp/src/r_ioport/r_ioport.o
 .text.r_ioport_pins_config
                0x00020ce8       0x88 ./ra/fsp/src/r_ioport/r_ioport.o
 .text.R_IOPORT_Open
                0x00020d70       0x14 ./ra/fsp/src/r_ioport/r_ioport.o
                0x00020d70                R_IOPORT_Open
 .text.R_GPT_Start
                0x00020d84        0xa ./ra/fsp/src/r_gpt/r_gpt.o
                0x00020d84                R_GPT_Start
 .text.gpt_hardware_events_disable
                0x00020d8e       0x1c ./ra/fsp/src/r_gpt/r_gpt.o
 *fill*         0x00020daa        0x2 ff
 .text.r_gpt_enable_irq
                0x00020dac       0x50 ./ra/fsp/src/r_gpt/r_gpt.o
 .text.R_GPT_Open
                0x00020dfc      0x114 ./ra/fsp/src/r_gpt/r_gpt.o
                0x00020dfc                R_GPT_Open
 .text.r_gpt_call_callback
                0x00020f10       0x3e ./ra/fsp/src/r_gpt/r_gpt.o
 *fill*         0x00020f4e        0x2 ff
 .text.gpt_counter_overflow_isr
                0x00020f50       0x80 ./ra/fsp/src/r_gpt/r_gpt.o
                0x00020f50                gpt_counter_overflow_isr
 .text.flash_hp_init
                0x00020fd0      0x104 ./ra/fsp/src/r_flash_hp/r_flash_hp.o
 .text.R_FLASH_HP_Open
                0x000210d4       0xdc ./ra/fsp/src/r_flash_hp/r_flash_hp.o
                0x000210d4                R_FLASH_HP_Open
 .text.flash_hp_enter_pe_df_mode
                0x000211b0       0xb8 ./ra/fsp/src/r_flash_hp/r_flash_hp.o
 .text.R_FLASH_HP_Write
                0x00021268       0x86 ./ra/fsp/src/r_flash_hp/r_flash_hp.o
                0x00021268                R_FLASH_HP_Write
 *fill*         0x000212ee        0x2 ff
 .text.R_FLASH_HP_Erase
                0x000212f0       0xb0 ./ra/fsp/src/r_flash_hp/r_flash_hp.o
                0x000212f0                R_FLASH_HP_Erase
 .text.R_FLASH_HP_StartUpAreaSelect
                0x000213a0        0x8 ./ra/fsp/src/r_flash_hp/r_flash_hp.o
                0x000213a0                R_FLASH_HP_StartUpAreaSelect
 .text.R_DTC_SoftwareStart
                0x000213a8        0x4 ./ra/fsp/src/r_dtc/r_dtc.o
                0x000213a8                R_DTC_SoftwareStart
 .text.R_DTC_SoftwareStop
                0x000213ac        0x4 ./ra/fsp/src/r_dtc/r_dtc.o
                0x000213ac                R_DTC_SoftwareStop
 .text.R_DTC_Disable
                0x000213b0       0x1c ./ra/fsp/src/r_dtc/r_dtc.o
                0x000213b0                R_DTC_Disable
 .text.R_DTC_InfoGet
                0x000213cc       0x50 ./ra/fsp/src/r_dtc/r_dtc.o
                0x000213cc                R_DTC_InfoGet
 .text.R_DTC_Close
                0x0002141c       0x30 ./ra/fsp/src/r_dtc/r_dtc.o
                0x0002141c                R_DTC_Close
 .text.R_DTC_Reset
                0x0002144c       0xb0 ./ra/fsp/src/r_dtc/r_dtc.o
                0x0002144c                R_DTC_Reset
 .text.r_dtc_set_info
                0x000214fc       0x48 ./ra/fsp/src/r_dtc/r_dtc.o
 .text.R_DTC_Open
                0x00021544       0x80 ./ra/fsp/src/r_dtc/r_dtc.o
                0x00021544                R_DTC_Open
 .text.R_DTC_Reconfigure
                0x000215c4       0x5c ./ra/fsp/src/r_dtc/r_dtc.o
                0x000215c4                R_DTC_Reconfigure
 .text.R_DTC_Enable
                0x00021620       0x1c ./ra/fsp/src/r_dtc/r_dtc.o
                0x00021620                R_DTC_Enable
 .text.r_can_call_callback
                0x0002163c       0x5c ./ra/fsp/src/r_can/r_can.o
 .text.r_can_switch_to_operation_mode
                0x00021698       0x2e ./ra/fsp/src/r_can/r_can.o
 .text.r_can_mode_transition
                0x000216c6       0x5c ./ra/fsp/src/r_can/r_can.o
 *fill*         0x00021722        0x2 ff
 .text.r_can_bsp_irq_cfg_enable
                0x00021724       0x50 ./ra/fsp/src/r_can/r_can.o
 .text.R_CAN_Open
                0x00021774      0x22c ./ra/fsp/src/r_can/r_can.o
                0x00021774                R_CAN_Open
 .text.can_error_isr
                0x000219a0       0xe4 ./ra/fsp/src/r_can/r_can.o
                0x000219a0                can_error_isr
 .text.can_mailbox_rx_isr
                0x00021a84      0x128 ./ra/fsp/src/r_can/r_can.o
                0x00021a84                can_mailbox_rx_isr
 .text.can_mailbox_tx_isr
                0x00021bac       0xb0 ./ra/fsp/src/r_can/r_can.o
                0x00021bac                can_mailbox_tx_isr
 .text.SystemCoreClockUpdate
                0x00021c5c       0x28 ./ra/fsp/src/bsp/mcu/all/bsp_clocks.o
                0x00021c5c                SystemCoreClockUpdate
 .text.bsp_clock_init
                0x00021c84       0xec ./ra/fsp/src/bsp/mcu/all/bsp_clocks.o
                0x00021c84                bsp_clock_init
 .text.bsp_init_internal
                0x00021d70        0x2 ./ra/fsp/src/bsp/mcu/all/bsp_common.o
                0x00021d70                bsp_init_internal
                0x00021d70                bsp_init
 *fill*         0x00021d72        0x2 ff
 .text.NMI_Handler
                0x00021d74       0x40 ./ra/fsp/src/bsp/mcu/all/bsp_group_irq.o
                0x00021d74                NMI_Handler
 .text.bsp_irq_cfg
                0x00021db4       0xb0 ./ra/fsp/src/bsp/mcu/all/bsp_irq.o
                0x00021db4                bsp_irq_cfg
 .text.R_BSP_RegisterProtectEnable
                0x00021e64       0x64 ./ra/fsp/src/bsp/mcu/all/bsp_register_protection.o
                0x00021e64                R_BSP_RegisterProtectEnable
 .text.R_BSP_RegisterProtectDisable
                0x00021ec8       0x54 ./ra/fsp/src/bsp/mcu/all/bsp_register_protection.o
                0x00021ec8                R_BSP_RegisterProtectDisable
 .text._sbrk    0x00021f1c       0x44 ./ra/fsp/src/bsp/mcu/all/bsp_sbrk.o
                0x00021f1c                _sbrk
 .text.Default_Handler
                0x00021f60        0x4 ./ra/fsp/src/bsp/cmsis/Device/RENESAS/Source/startup.o
                0x00021f60                DebugMon_Handler
                0x00021f60                HardFault_Handler
                0x00021f60                SysTick_Handler
                0x00021f60                PendSV_Handler
                0x00021f60                UsageFault_Handler
                0x00021f60                SecureFault_Handler
                0x00021f60                Default_Handler
                0x00021f60                MemManage_Handler
                0x00021f60                SVC_Handler
                0x00021f60                BusFault_Handler
 .text.Reset_Handler
                0x00021f64        0xc ./ra/fsp/src/bsp/cmsis/Device/RENESAS/Source/startup.o
                0x00021f64                Reset_Handler
 .text.SystemInit
                0x00021f70       0xc0 ./ra/fsp/src/bsp/cmsis/Device/RENESAS/Source/system.o
                0x00021f70                SystemInit
 .text.led_run  0x00022030      0x154 ./public/u_led.o
                0x00022030                led_run
 .text.led_init
                0x00022184       0x54 ./public/u_led.o
                0x00022184                led_init
 .text.setting_page_update
                0x000221d8       0x24 ./public/u_setting.o
                0x000221d8                setting_page_update
 .text.setting_in_being
                0x000221fc       0x2c ./public/u_setting.o
                0x000221fc                setting_in_being
 .text.setting_init
                0x00022228       0xd8 ./public/u_setting.o
                0x00022228                setting_init
 .text.log_shell_cmd_handle
                0x00022300       0x58 ./mlos/services/mlos_log.o
                0x00022300                log_shell_cmd_handle
 .text.log_save_disk_port_set
                0x00022358        0xc ./mlos/services/mlos_log.o
                0x00022358                log_save_disk_port_set
 .text.log_print
                0x00022364       0x7c ./mlos/services/mlos_log.o
                0x00022364                log_print
 .text.log_print_redirect
                0x000223e0       0x10 ./mlos/services/mlos_log.o
                0x000223e0                log_print_redirect
 .text.log_init
                0x000223f0       0x2c ./mlos/services/mlos_log.o
                0x000223f0                log_init
 .text.shell_cmd_seek
                0x0002241c       0x28 ./mlos/services/mlos_shell.o
                0x0002241c                shell_cmd_seek
 .text.shell_reply
                0x00022444       0x4c ./mlos/services/mlos_shell.o
                0x00022444                shell_reply
 .text.shell_cmd_help
                0x00022490       0x40 ./mlos/services/mlos_shell.o
                0x00022490                shell_cmd_help
 .text.shell_cmd_reboot
                0x000224d0       0x10 ./mlos/services/mlos_shell.o
                0x000224d0                shell_cmd_reboot
 .text.shell_print
                0x000224e0       0x34 ./mlos/services/mlos_shell.o
                0x000224e0                shell_print
 .text.shell_cmd_mem
                0x00022514       0x38 ./mlos/services/mlos_shell.o
                0x00022514                shell_cmd_mem
 .text.shell_cmd_register
                0x0002254c       0x44 ./mlos/services/mlos_shell.o
                0x0002254c                shell_cmd_register
 .text.shell_rcv_cmd
                0x00022590       0x44 ./mlos/services/mlos_shell.o
                0x00022590                shell_rcv_cmd
 .text.shell_print_redirect
                0x000225d4        0xc ./mlos/services/mlos_shell.o
                0x000225d4                shell_print_redirect
 .text.shell_cmd_buf_read
                0x000225e0       0xfc ./mlos/services/mlos_shell.o
                0x000225e0                shell_cmd_buf_read
 .text.shell_task
                0x000226dc       0x8c ./mlos/services/mlos_shell.o
                0x000226dc                shell_task
 .text.shell_init
                0x00022768       0x80 ./mlos/services/mlos_shell.o
                0x00022768                shell_init
 .text.port_clock_init
                0x000227e8       0x2c ./mlos/port/RA6M4/mlos_port.o
                0x000227e8                port_clock_init
 .text.mlos_clock_timer_isr
                0x00022814       0x38 ./mlos/port/RA6M4/mlos_port.o
                0x00022814                mlos_clock_timer_isr
 .text.exsram_check
                0x0002284c       0x20 ./mlos/port/RA6M4/mlos_port.o
                0x0002284c                exsram_check
 .text.port_mem_init
                0x0002286c       0x44 ./mlos/port/RA6M4/mlos_port.o
                0x0002286c                port_mem_init
 .text.mlos_bkpt
                0x000228b0        0x6 ./mlos/os/mlos.o
                0x000228b0                mlos_bkpt
 *fill*         0x000228b6        0x2 ff
 .text.mlos_init
                0x000228b8       0x34 ./mlos/os/mlos.o
                0x000228b8                mlos_init
 .text.mlos_us_delay
                0x000228ec        0x2 ./mlos/os/mlos_clock.o
                0x000228ec                mlos_us_delay
 .text.mlos_clock_init
                0x000228ee        0x8 ./mlos/os/mlos_clock.o
                0x000228ee                mlos_clock_init
 .text.list_dl_remove
                0x000228f6       0x6a ./mlos/os/mlos_list.o
                0x000228f6                list_dl_remove
 .text.list_append
                0x00022960       0xac ./mlos/os/mlos_list.o
                0x00022960                list_append
 .text.list_init
                0x00022a0c        0xe ./mlos/os/mlos_list.o
                0x00022a0c                list_init
 .text.list_create
                0x00022a1a       0x20 ./mlos/os/mlos_list.o
                0x00022a1a                list_create
 *fill*         0x00022a3a        0x2 ff
 .text.ltimer_create
                0x00022a3c       0x20 ./mlos/os/mlos_ltimer.o
                0x00022a3c                ltimer_create
 .text.mlos_mem_list
                0x00022a5c        0x8 ./mlos/os/mlos_malloc.o
                0x00022a5c                mlos_mem_list
 .text.mlos_mem_statistics
                0x00022a64       0x30 ./mlos/os/mlos_malloc.o
                0x00022a64                mlos_mem_statistics
 .text.mlos_malloc
                0x00022a94       0x4c ./mlos/os/mlos_malloc.o
                0x00022a94                mlos_malloc
 .text.mlos_mem_mount
                0x00022ae0       0x30 ./mlos/os/mlos_malloc.o
                0x00022ae0                mlos_mem_mount
 .text.mlos_mem_init
                0x00022b10       0x18 ./mlos/os/mlos_malloc.o
                0x00022b10                mlos_mem_init
 .text.mpump_create
                0x00022b28       0x6c ./mlos/os/mlos_mpump.o
                0x00022b28                mpump_create
 .text.list_message_find
                0x00022b94       0x14 ./mlos/os/mlos_mpump.o
                0x00022b94                list_message_find
 .text.list_message_register
                0x00022ba8       0x44 ./mlos/os/mlos_mpump.o
                0x00022ba8                list_message_register
 .text.consumer_find
                0x00022bec       0x12 ./mlos/os/mlos_mpump.o
                0x00022bec                consumer_find
 *fill*         0x00022bfe        0x2 ff
 .text.consumer_register
                0x00022c00       0x34 ./mlos/os/mlos_mpump.o
                0x00022c00                consumer_register
 .text.mpump_consumer_register
                0x00022c34       0x2a ./mlos/os/mlos_mpump.o
                0x00022c34                mpump_consumer_register
 .text.mpump_consumers_find
                0x00022c5e       0x30 ./mlos/os/mlos_mpump.o
                0x00022c5e                mpump_consumers_find
 .text.mpump_dispatch
                0x00022c8e       0x36 ./mlos/os/mlos_mpump.o
                0x00022c8e                mpump_dispatch
 .text.que_take
                0x00022cc4       0x12 ./mlos/os/mlos_que.o
                0x00022cc4                que_take
 .text.que_de   0x00022cd6       0x1c ./mlos/os/mlos_que.o
                0x00022cd6                que_de
 .text.que_en   0x00022cf2       0x1e ./mlos/os/mlos_que.o
                0x00022cf2                que_en
 .text.que_create
                0x00022d10       0x78 ./mlos/os/mlos_que.o
                0x00022d10                que_create
 .text.rtimer_clock_overflow
                0x00022d88       0x3c ./mlos/os/mlos_rtimer.o
                0x00022d88                rtimer_clock_overflow
 .text.rtimer_start
                0x00022dc4       0x40 ./mlos/os/mlos_rtimer.o
                0x00022dc4                rtimer_start
 .text.rtimer_task
                0x00022e04       0x90 ./mlos/os/mlos_rtimer.o
                0x00022e04                rtimer_task
 .text.rtimer_task_create
                0x00022e94       0x50 ./mlos/os/mlos_rtimer.o
                0x00022e94                rtimer_task_create
 .text.task_create
                0x00022ee4       0x6c ./mlos/os/mlos_task.o
                0x00022ee4                task_create
 .text.subtask_create
                0x00022f50       0x20 ./mlos/os/mlos_task.o
                0x00022f50                subtask_create
 .text.mlos_all_task_name
                0x00022f70       0x4c ./mlos/os/mlos_task.o
                0x00022f70                mlos_all_task_name
 .text.mlos_task_statistics_info
                0x00022fbc       0x64 ./mlos/os/mlos_task.o
                0x00022fbc                mlos_task_statistics_info
 .text.task_statistics_reset
                0x00023020       0x30 ./mlos/os/mlos_task.o
                0x00023020                task_statistics_reset
 .text.task_schedule_prepare
                0x00023050       0x50 ./mlos/os/mlos_task.o
                0x00023050                task_schedule_prepare
 .text.mlos_task_schedule
                0x000230a0       0xcc ./mlos/os/mlos_task.o
                0x000230a0                mlos_task_schedule
 .text.mlos_task_init
                0x0002316c       0x5c ./mlos/os/mlos_task.o
                0x0002316c                mlos_task_init
 .text.uart0_tx
                0x000231c8       0x48 ./mllib/utp/ra6m4/utp_uart_driver.o
                0x000231c8                uart0_tx
 .text.uart1_tx
                0x00023210       0x4c ./mllib/utp/ra6m4/utp_uart_driver.o
                0x00023210                uart1_tx
 .text.uart_callback
                0x0002325c       0xdc ./mllib/utp/ra6m4/utp_uart_driver.o
                0x0002325c                uart_callback
 .text.uart_init
                0x00023338       0x44 ./mllib/utp/ra6m4/utp_uart_driver.o
                0x00023338                uart_init
 .text.crc16_check
                0x0002337c       0x3c ./mllib/utp/public.o
                0x0002337c                crc16_check
 .text.delay_rough_us
                0x000233b8       0x2e ./mllib/utp/public.o
                0x000233b8                delay_rough_us
 *fill*         0x000233e6        0x2 ff
 .text.GetOSRunTime
                0x000233e8        0xc ./mllib/utp/public.o
                0x000233e8                GetOSRunTime
 .text.GetOSRunTimeDiff
                0x000233f4       0x14 ./mllib/utp/public.o
                0x000233f4                GetOSRunTimeDiff
 .text.Utp_TxMessage
                0x00023408       0x28 ./mllib/utp/utp.o
                0x00023408                Utp_TxMessage
 .text.utp_init
                0x00023430       0xa0 ./mllib/utp/utp.o
                0x00023430                utp_init
 .text.utp_RxComplete
                0x000234d0       0x3a ./mllib/utp/utp.o
                0x000234d0                utp_RxComplete
 *fill*         0x0002350a        0x2 ff
 .text.Utp_RxMessage
                0x0002350c       0x30 ./mllib/utp/utp.o
                0x0002350c                Utp_RxMessage
 .text.utp_tx   0x0002353c       0x42 ./mllib/utp/utp.o
                0x0002353c                utp_tx
 *fill*         0x0002357e        0x2 ff
 .text.Utp_SubMasterStationtask
                0x00023580       0x78 ./mllib/utp/utp.o
                0x00023580                Utp_SubMasterStationtask
 .text.utp_task
                0x000235f8       0x44 ./mllib/utp/utp.o
                0x000235f8                utp_task
 .text.upper_txbuf_malloc
                0x0002363c       0x30 ./mllib/upper/upper_ntp.o
                0x0002363c                upper_txbuf_malloc
 .text.upper_keepalive_reconn
                0x0002366c       0x10 ./mllib/upper/upper_ntp.o
                0x0002366c                upper_keepalive_reconn
 .text.upper_data_send
                0x0002367c       0x1e ./mllib/upper/upper_ntp.o
                0x0002367c                upper_data_send
 *fill*         0x0002369a        0x2 ff
 .text.upper_datagram_process_port_set
                0x0002369c        0xc ./mllib/upper/upper_ntp.o
                0x0002369c                upper_datagram_process_port_set
 .text.upper_datagram_process
                0x000236a8       0x20 ./mllib/upper/upper_ntp.o
                0x000236a8                upper_datagram_process
 .text.upper_ntp_task
                0x000236c8       0x34 ./mllib/upper/upper_ntp.o
                0x000236c8                upper_ntp_task
 .text.upper_ntp_init
                0x000236fc       0xb0 ./mllib/upper/upper_ntp.o
                0x000236fc                upper_ntp_init
 .text.tool_txbuf_malloc
                0x000237ac       0x30 ./mllib/tool/tool.o
                0x000237ac                tool_txbuf_malloc
 .text.tool_txbuf_free
                0x000237dc       0x18 ./mllib/tool/tool.o
                0x000237dc                tool_txbuf_free
 .text.tool_data_sum_check
                0x000237f4       0x36 ./mllib/tool/tool.o
                0x000237f4                tool_data_sum_check
 *fill*         0x0002382a        0x2 ff
 .text.tool_consumer_register
                0x0002382c       0x14 ./mllib/tool/tool.o
                0x0002382c                tool_consumer_register
 .text.tool_tx_data
                0x00023840       0x9e ./mllib/tool/tool.o
                0x00023840                tool_tx_data
 *fill*         0x000238de        0x2 ff
 .text.tool_packet_extract
                0x000238e0       0x78 ./mllib/tool/tool.o
                0x000238e0                tool_packet_extract
 .text.tool_task
                0x00023958       0x4c ./mllib/tool/tool.o
                0x00023958                tool_task
 .text.tool_init
                0x000239a4       0x80 ./mllib/tool/tool.o
                0x000239a4                tool_init
 .text.tool_log_print
                0x00023a24       0x20 ./mllib/tool/tool_debug.o
                0x00023a24                tool_log_print
 .text.tool_shell_print
                0x00023a44       0x12 ./mllib/tool/tool_debug.o
                0x00023a44                tool_shell_print
 *fill*         0x00023a56        0x2 ff
 .text.tool_debug_connect
                0x00023a58       0x48 ./mllib/tool/tool_debug.o
                0x00023a58                tool_debug_connect
 .text.tool_osinfo_print
                0x00023aa0       0x8c ./mllib/tool/tool_debug.o
                0x00023aa0                tool_osinfo_print
 .text.tool_taskinfo_print
                0x00023b2c       0x8c ./mllib/tool/tool_debug.o
                0x00023b2c                tool_taskinfo_print
 .text.tool_shell_cmd_tskinfo
                0x00023bb8       0x6c ./mllib/tool/tool_debug.o
                0x00023bb8                tool_shell_cmd_tskinfo
 .text.tool_debug_task
                0x00023c24       0x3c ./mllib/tool/tool_debug.o
                0x00023c24                tool_debug_task
 .text.tool_debug_int
                0x00023c60       0x78 ./mllib/tool/tool_debug.o
                0x00023c60                tool_debug_int
 .text.tool_ds_tray_header_upload
                0x00023cd8       0xa8 ./mllib/tool/tool_ds.o
                0x00023cd8                tool_ds_tray_header_upload
 .text.tool_ds_tray_line_upload
                0x00023d80       0xb4 ./mllib/tool/tool_ds.o
                0x00023d80                tool_ds_tray_line_upload
 .text.tool_ds_tray_clear
                0x00023e34       0x40 ./mllib/tool/tool_ds.o
                0x00023e34                tool_ds_tray_clear
 .text.tool_ds_tray_dat_operate
                0x00023e74       0x48 ./mllib/tool/tool_ds.o
                0x00023e74                tool_ds_tray_dat_operate
 .text.tool_ds_log_header_upload
                0x00023ebc       0xa0 ./mllib/tool/tool_ds.o
                0x00023ebc                tool_ds_log_header_upload
 .text.tool_ds_log_page_upload
                0x00023f5c       0x88 ./mllib/tool/tool_ds.o
                0x00023f5c                tool_ds_log_page_upload
 .text.tool_ds_log_clear
                0x00023fe4       0x40 ./mllib/tool/tool_ds.o
                0x00023fe4                tool_ds_log_clear
 .text.tool_ds_log_operate
                0x00024024       0x40 ./mllib/tool/tool_ds.o
                0x00024024                tool_ds_log_operate
 .text.tool_ds_init
                0x00024064       0x1c ./mllib/tool/tool_ds.o
                0x00024064                tool_ds_init
 .text.tool_iap_power_conn_reply
                0x00024080       0x74 ./mllib/tool/tool_iap.o
                0x00024080                tool_iap_power_conn_reply
 .text.tool_iap_power_rerun_reply
                0x000240f4       0x6c ./mllib/tool/tool_iap.o
                0x000240f4                tool_iap_power_rerun_reply
 .text.tool_iap_power_start_reply
                0x00024160       0x4a ./mllib/tool/tool_iap.o
                0x00024160                tool_iap_power_start_reply
 .text.tool_iap_power_data_reply
                0x000241aa       0x4a ./mllib/tool/tool_iap.o
                0x000241aa                tool_iap_power_data_reply
 .text.tool_iap_power_backup_reply
                0x000241f4       0x2a ./mllib/tool/tool_iap.o
                0x000241f4                tool_iap_power_backup_reply
 .text.tool_iap_mc_conn_reply
                0x0002421e       0x30 ./mllib/tool/tool_iap.o
                0x0002421e                tool_iap_mc_conn_reply
 .text.tool_iap_mc_rerun_reply
                0x0002424e       0x52 ./mllib/tool/tool_iap.o
                0x0002424e                tool_iap_mc_rerun_reply
 .text.tool_iap_connect_power
                0x000242a0       0x4e ./mllib/tool/tool_iap.o
                0x000242a0                tool_iap_connect_power
 .text.tool_iap_connect
                0x000242ee       0x3e ./mllib/tool/tool_iap.o
                0x000242ee                tool_iap_connect
 .text.tool_iap_power_rerun
                0x0002432c       0x52 ./mllib/tool/tool_iap.o
                0x0002432c                tool_iap_power_rerun
 .text.tool_iap_rerun
                0x0002437e       0x38 ./mllib/tool/tool_iap.o
                0x0002437e                tool_iap_rerun
 .text.tool_iap_power_start
                0x000243b6       0x4a ./mllib/tool/tool_iap.o
                0x000243b6                tool_iap_power_start
 .text.tool_iap_tool_start
                0x00024400       0x3c ./mllib/tool/tool_iap.o
                0x00024400                tool_iap_tool_start
 .text.tool_iap_power_data
                0x0002443c       0x2a ./mllib/tool/tool_iap.o
                0x0002443c                tool_iap_power_data
 .text.tool_iap_data
                0x00024466       0x22 ./mllib/tool/tool_iap.o
                0x00024466                tool_iap_data
 .text.tool_iap_power_backup
                0x00024488       0x20 ./mllib/tool/tool_iap.o
                0x00024488                tool_iap_power_backup
 .text.tool_iap_backup
                0x000244a8       0x22 ./mllib/tool/tool_iap.o
                0x000244a8                tool_iap_backup
 *fill*         0x000244ca        0x2 ff
 .text.tool_iap_init
                0x000244cc       0x88 ./mllib/tool/tool_iap.o
                0x000244cc                tool_iap_init
 .text.tool_setting_write
                0x00024554       0x7a ./mllib/tool/tool_setting.o
                0x00024554                tool_setting_write
 .text.tool_setting_read
                0x000245ce       0xba ./mllib/tool/tool_setting.o
                0x000245ce                tool_setting_read
 .text.tool_setting_init
                0x00024688       0x28 ./mllib/tool/tool_setting.o
                0x00024688                tool_setting_init
 .text.w5500_spi_select
                0x000246b0       0x14 ./mllib/ntp/w5500/ra6m4/ntp_w5500_spi_driver.o
                0x000246b0                w5500_spi_select
 .text.w5500_spi_deselect
                0x000246c4       0x14 ./mllib/ntp/w5500/ra6m4/ntp_w5500_spi_driver.o
                0x000246c4                w5500_spi_deselect
 .text.w5500_hdw_reset_enable
                0x000246d8       0x14 ./mllib/ntp/w5500/ra6m4/ntp_w5500_spi_driver.o
                0x000246d8                w5500_hdw_reset_enable
 .text.w5500_hdw_reset_disable
                0x000246ec       0x14 ./mllib/ntp/w5500/ra6m4/ntp_w5500_spi_driver.o
                0x000246ec                w5500_hdw_reset_disable
 .text.w5500_spi_callback
                0x00024700       0x14 ./mllib/ntp/w5500/ra6m4/ntp_w5500_spi_driver.o
                0x00024700                w5500_spi_callback
 .text.w5500_r_byte
                0x00024714       0x90 ./mllib/ntp/w5500/ra6m4/ntp_w5500_spi_driver.o
                0x00024714                w5500_r_byte
 .text.w5500_w_byte
                0x000247a4       0x94 ./mllib/ntp/w5500/ra6m4/ntp_w5500_spi_driver.o
                0x000247a4                w5500_w_byte
 .text.w5500_rw_buf
                0x00024838       0xcc ./mllib/ntp/w5500/ra6m4/ntp_w5500_spi_driver.o
                0x00024838                w5500_rw_buf
 .text.w5500_spi_init
                0x00024904       0xa4 ./mllib/ntp/w5500/ra6m4/ntp_w5500_spi_driver.o
                0x00024904                w5500_spi_init
 .text.w5500_ussn_generate
                0x000249a8       0x1c ./mllib/ntp/w5500/ntp_w5500.o
                0x000249a8                w5500_ussn_generate
 .text.w5500_network_card
                0x000249c4        0x8 ./mllib/ntp/w5500/ntp_w5500.o
                0x000249c4                w5500_network_card
 .text.w5500_interrupt_handler
                0x000249cc       0x5a ./mllib/ntp/w5500/ntp_w5500.o
                0x000249cc                w5500_interrupt_handler
 .text.w5500_rx_rsr
                0x00024a26       0x48 ./mllib/ntp/w5500/ntp_w5500.o
                0x00024a26                w5500_rx_rsr
 .text.w5500_tx_fsr
                0x00024a6e       0x48 ./mllib/ntp/w5500/ntp_w5500.o
                0x00024a6e                w5500_tx_fsr
 .text.w5500_socket_rx
                0x00024ab6       0xcc ./mllib/ntp/w5500/ntp_w5500.o
                0x00024ab6                w5500_socket_rx
 .text.w5500_socket_tx
                0x00024b82      0x102 ./mllib/ntp/w5500/ntp_w5500.o
                0x00024b82                w5500_socket_tx
 .text.w5500_usocket_open
                0x00024c84      0x160 ./mllib/ntp/w5500/ntp_w5500.o
                0x00024c84                w5500_usocket_open
 .text.w5500_usocket_connect
                0x00024de4       0xfc ./mllib/ntp/w5500/ntp_w5500.o
                0x00024de4                w5500_usocket_connect
 .text.w5500_usocket_close
                0x00024ee0       0xd4 ./mllib/ntp/w5500/ntp_w5500.o
                0x00024ee0                w5500_usocket_close
 .text.w5500_usocket_work
                0x00024fb4       0x8c ./mllib/ntp/w5500/ntp_w5500.o
                0x00024fb4                w5500_usocket_work
 .text.w5500_reset
                0x00025040       0xec ./mllib/ntp/w5500/ntp_w5500.o
                0x00025040                w5500_reset
 .text.w5500_setting
                0x0002512c      0x11c ./mllib/ntp/w5500/ntp_w5500.o
                0x0002512c                w5500_setting
 .text.w5500_working
                0x00025248       0x68 ./mllib/ntp/w5500/ntp_w5500.o
                0x00025248                w5500_working
 .text.w5500_unlinked
                0x000252b0       0x68 ./mllib/ntp/w5500/ntp_w5500.o
                0x000252b0                w5500_unlinked
 .text.w5500_fsm_run
                0x00025318       0x28 ./mllib/ntp/w5500/ntp_w5500.o
                0x00025318                w5500_fsm_run
 .text.w5500_usocket_drive
                0x00025340       0x48 ./mllib/ntp/w5500/ntp_w5500.o
                0x00025340                w5500_usocket_drive
 .text.w5500_init
                0x00025388       0x7c ./mllib/ntp/w5500/ntp_w5500.o
                0x00025388                w5500_init
 .text.ntp_init
                0x00025404       0x50 ./mllib/ntp/ntp.o
                0x00025404                ntp_init
 .text.usocket_create
                0x00025454       0x7e ./mllib/ntp/ntp_usocket.o
                0x00025454                usocket_create
 .text.usocket_reset
                0x000254d2       0x12 ./mllib/ntp/ntp_usocket.o
                0x000254d2                usocket_reset
 .text.mcu_flash_erase
                0x000254e4       0x30 ./mllib/mlflash/mcuflash/RA6M4/mcu_flash.o
                0x000254e4                mcu_flash_erase
 .text.mcu_flash_write
                0x00025514       0x68 ./mllib/mlflash/mcuflash/RA6M4/mcu_flash.o
                0x00025514                mcu_flash_write
 .text.mcu_flash_callback
                0x0002557c       0x34 ./mllib/mlflash/mcuflash/RA6M4/mcu_flash.o
                0x0002557c                mcu_flash_callback
 .text.mcu_flash_init
                0x000255b0       0x2c ./mllib/mlflash/mcuflash/RA6M4/mcu_flash.o
                0x000255b0                mcu_flash_init
 .text.cssd_spi_select
                0x000255dc       0x14 ./mllib/mlflash/cssdcard/RA6M4/cs_sd_spi_driver.o
                0x000255dc                cssd_spi_select
 .text.cssd_spi_deselect
                0x000255f0       0x14 ./mllib/mlflash/cssdcard/RA6M4/cs_sd_spi_driver.o
                0x000255f0                cssd_spi_deselect
 .text.cssd_spi_callback
                0x00025604       0x14 ./mllib/mlflash/cssdcard/RA6M4/cs_sd_spi_driver.o
                0x00025604                cssd_spi_callback
 .text.cssd_spi_read_byte
                0x00025618       0x24 ./mllib/mlflash/cssdcard/RA6M4/cs_sd_spi_driver.o
                0x00025618                cssd_spi_read_byte
 .text.cssd_spi_write_byte
                0x0002563c       0x20 ./mllib/mlflash/cssdcard/RA6M4/cs_sd_spi_driver.o
                0x0002563c                cssd_spi_write_byte
 .text.cssd_spi_write_stuff
                0x0002565c       0x38 ./mllib/mlflash/cssdcard/RA6M4/cs_sd_spi_driver.o
                0x0002565c                cssd_spi_write_stuff
 .text.cssd_spi_write
                0x00025694       0x3c ./mllib/mlflash/cssdcard/RA6M4/cs_sd_spi_driver.o
                0x00025694                cssd_spi_write
 .text.cssd_spi_read
                0x000256d0       0x3c ./mllib/mlflash/cssdcard/RA6M4/cs_sd_spi_driver.o
                0x000256d0                cssd_spi_read
 .text.cssd_spi_low_speed_set
                0x0002570c       0x18 ./mllib/mlflash/cssdcard/RA6M4/cs_sd_spi_driver.o
                0x0002570c                cssd_spi_low_speed_set
 .text.cssd_spi_high_speed_set
                0x00025724       0x18 ./mllib/mlflash/cssdcard/RA6M4/cs_sd_spi_driver.o
                0x00025724                cssd_spi_high_speed_set
 .text.cssd_spi_init
                0x0002573c       0xa4 ./mllib/mlflash/cssdcard/RA6M4/cs_sd_spi_driver.o
                0x0002573c                cssd_spi_init
 .text.cssd_response_read
                0x000257e0       0x1e ./mllib/mlflash/cssdcard/cs_sdcard.o
                0x000257e0                cssd_response_read
 .text.cssd_cmd_send
                0x000257fe       0x4c ./mllib/mlflash/cssdcard/cs_sdcard.o
                0x000257fe                cssd_cmd_send
 .text.cssd_dataresponse_read
                0x0002584a       0x50 ./mllib/mlflash/cssdcard/cs_sdcard.o
                0x0002584a                cssd_dataresponse_read
 *fill*         0x0002589a        0x2 ff
 .text.cssd_read_sector
                0x0002589c       0xec ./mllib/mlflash/cssdcard/cs_sdcard.o
                0x0002589c                cssd_read_sector
 .text.cssd_write_sector
                0x00025988      0x114 ./mllib/mlflash/cssdcard/cs_sdcard.o
                0x00025988                cssd_write_sector
 .text.cssd_csdregister_read
                0x00025a9c       0xe2 ./mllib/mlflash/cssdcard/cs_sdcard.o
                0x00025a9c                cssd_csdregister_read
 .text.cssd_cidregister_read
                0x00025b7e       0xec ./mllib/mlflash/cssdcard/cs_sdcard.o
                0x00025b7e                cssd_cidregister_read
 .text.sd_get_cardinfo
                0x00025c6a       0x40 ./mllib/mlflash/cssdcard/cs_sdcard.o
                0x00025c6a                sd_get_cardinfo
 *fill*         0x00025caa        0x2 ff
 .text.csssd_card_init
                0x00025cac      0x1d0 ./mllib/mlflash/cssdcard/cs_sdcard.o
                0x00025cac                csssd_card_init
 .text.cssd_init
                0x00025e7c       0x18 ./mllib/mlflash/cssdcard/cs_sdcard.o
                0x00025e7c                cssd_init
 .text.sdSpiGetRsp
                0x00025e94       0x28 ./mllib/mlflash/cssdcard/cs_sdcard.o
                0x00025e94                sdSpiGetRsp
 .text.sdSpiWaitReady
                0x00025ebc        0xc ./mllib/mlflash/cssdcard/cs_sdcard.o
                0x00025ebc                sdSpiWaitReady
 .text.sdSpiRelease
                0x00025ec8        0xc ./mllib/mlflash/cssdcard/cs_sdcard.o
                0x00025ec8                sdSpiRelease
 .text.sdSpiSelect
                0x00025ed4        0xe ./mllib/mlflash/cssdcard/cs_sdcard.o
                0x00025ed4                sdSpiSelect
 *fill*         0x00025ee2        0x2 ff
 .text.sdSpiSendCmd
                0x00025ee4       0x78 ./mllib/mlflash/cssdcard/cs_sdcard.o
                0x00025ee4                sdSpiSendCmd
 .text.sdSpiRecvBlk
                0x00025f5c       0x38 ./mllib/mlflash/cssdcard/cs_sdcard.o
                0x00025f5c                sdSpiRecvBlk
 .text.sdSpiSendBlk
                0x00025f94       0x50 ./mllib/mlflash/cssdcard/cs_sdcard.o
                0x00025f94                sdSpiSendBlk
 .text.sdSpiRead
                0x00025fe4       0x86 ./mllib/mlflash/cssdcard/cs_sdcard.o
                0x00025fe4                sdSpiRead
 .text.sdSpiWrite
                0x0002606a       0xd2 ./mllib/mlflash/cssdcard/cs_sdcard.o
                0x0002606a                sdSpiWrite
 .text.sdSpiWriteSmpl
                0x0002613c      0x1da ./mllib/mlflash/cssdcard/cs_sdcard.o
                0x0002613c                sdSpiWriteSmpl
 *fill*         0x00026316        0x2 ff
 .text.iap_disable_irq
                0x00026318      0x174 ./mllib/iap/RA6M4/iap_mcu_port.o
                0x00026318                iap_disable_irq
 .text.iap_set_msp
                0x0002648c       0x4c ./mllib/iap/RA6M4/iap_mcu_port.o
                0x0002648c                iap_set_msp
 .text.iap_run_boot
                0x000264d8       0x16 ./mllib/iap/iap.o
                0x000264d8                iap_run_boot
 .text.iap_init
                0x000264ee        0x2 ./mllib/iap/iap.o
                0x000264ee                iap_init
 .text.ds_task  0x000264f0       0x80 ./mllib/dataStorage/ds.o
                0x000264f0                ds_task
 .text.ds_init  0x00026570       0x44 ./mllib/dataStorage/ds.o
                0x00026570                ds_init
 .text.dsf_write_line
                0x000265b4       0xe4 ./mllib/dataStorage/ds_file.o
                0x000265b4                dsf_write_line
 .text.dsf_write_page
                0x00026698       0xd4 ./mllib/dataStorage/ds_file.o
                0x00026698                dsf_write_page
 .text.dsf_read_page
                0x0002676c       0x1c ./mllib/dataStorage/ds_file.o
                0x0002676c                dsf_read_page
 .text.dsf_clear
                0x00026788       0x58 ./mllib/dataStorage/ds_file.o
                0x00026788                dsf_clear
 .text.dsf_exist
                0x000267e0       0x20 ./mllib/dataStorage/ds_file.o
                0x000267e0                dsf_exist
 .text.dsf_open
                0x00026800      0x138 ./mllib/dataStorage/ds_file.o
                0x00026800                dsf_open
 .text.ds_log_cache_write
                0x00026938       0x64 ./mllib/dataStorage/ds_log.o
                0x00026938                ds_log_cache_write
 .text.ds_log_subtask
                0x0002699c       0x40 ./mllib/dataStorage/ds_log.o
                0x0002699c                ds_log_subtask
 .text.ds_log_init
                0x000269dc       0x5c ./mllib/dataStorage/ds_log.o
                0x000269dc                ds_log_init
 .text.ds_tray_subtask
                0x00026a38       0x50 ./mllib/dataStorage/ds_tray.o
                0x00026a38                ds_tray_subtask
 .text.can_tx   0x00026a88       0x80 ./mllib/ctp/ra6m4/ctp_can_driver.o
                0x00026a88                can_tx
 .text.can_callback
                0x00026b08       0x6c ./mllib/ctp/ra6m4/ctp_can_driver.o
                0x00026b08                can_callback
 .text.can_init
                0x00026b74       0x3c ./mllib/ctp/ra6m4/ctp_can_driver.o
                0x00026b74                can_init
 .text.ctp_txbuf_malloc
                0x00026bb0        0x8 ./mllib/ctp/ctp.o
                0x00026bb0                ctp_txbuf_malloc
 .text.ctp_txframe_malloc
                0x00026bb8       0x14 ./mllib/ctp/ctp.o
                0x00026bb8                ctp_txframe_malloc
 .text.ctp_slaver_connection_monitor
                0x00026bcc       0x6c ./mllib/ctp/ctp.o
                0x00026bcc                ctp_slaver_connection_monitor
 .text.ctp_consumer_register
                0x00026c38       0x14 ./mllib/ctp/ctp.o
                0x00026c38                ctp_consumer_register
 .text.ctp_send
                0x00026c4c       0xb0 ./mllib/ctp/ctp.o
                0x00026c4c                ctp_send
 .text.ctp_mfmsg_repack
                0x00026cfc       0xd0 ./mllib/ctp/ctp.o
                0x00026cfc                ctp_mfmsg_repack
 .text.ctp_rx   0x00026dcc       0x9c ./mllib/ctp/ctp.o
                0x00026dcc                ctp_rx
 .text.ctp_tx   0x00026e68       0x36 ./mllib/ctp/ctp.o
                0x00026e68                ctp_tx
 *fill*         0x00026e9e        0x2 ff
 .text.ctp_task
                0x00026ea0       0x48 ./mllib/ctp/ctp.o
                0x00026ea0                ctp_task
 .text.ctp_cancard1_init
                0x00026ee8       0xc0 ./mllib/ctp/ctp.o
                0x00026ee8                ctp_cancard1_init
 .text.ctp_cancard2_init
                0x00026fa8       0xc4 ./mllib/ctp/ctp.o
                0x00026fa8                ctp_cancard2_init
 .text.ctp_init
                0x0002706c       0x50 ./mllib/ctp/ctp.o
                0x0002706c                ctp_init
 .text.app_init
                0x000270bc       0x5c ./app/u_app.o
                0x000270bc                app_init
 .text.__errno  0x00027118        0xc c:/renesas/ra/e2studio_v2021-04_fsp_v3.0.0/toolchains/gcc_arm/9_2020q2/bin/../lib/gcc/arm-none-eabi/9.3.1/../../../../arm-none-eabi/lib/thumb/v8-m.main+fp/hard\libg_nano.a(lib_a-errno.o)
                0x00027118                __errno
 .text.memcmp   0x00027124       0x1c c:/renesas/ra/e2studio_v2021-04_fsp_v3.0.0/toolchains/gcc_arm/9_2020q2/bin/../lib/gcc/arm-none-eabi/9.3.1/../../../../arm-none-eabi/lib/thumb/v8-m.main+fp/hard\libg_nano.a(lib_a-memcmp.o)
                0x00027124                memcmp
 .text.memcpy   0x00027140       0x1a c:/renesas/ra/e2studio_v2021-04_fsp_v3.0.0/toolchains/gcc_arm/9_2020q2/bin/../lib/gcc/arm-none-eabi/9.3.1/../../../../arm-none-eabi/lib/thumb/v8-m.main+fp/hard\libg_nano.a(lib_a-memcpy-stub.o)
                0x00027140                memcpy
 .text.memset   0x0002715a       0x10 c:/renesas/ra/e2studio_v2021-04_fsp_v3.0.0/toolchains/gcc_arm/9_2020q2/bin/../lib/gcc/arm-none-eabi/9.3.1/../../../../arm-none-eabi/lib/thumb/v8-m.main+fp/hard\libg_nano.a(lib_a-memset.o)
                0x0002715a                memset
 *fill*         0x0002716a        0x2 ff
 .text.sprintf  0x0002716c       0x40 c:/renesas/ra/e2studio_v2021-04_fsp_v3.0.0/toolchains/gcc_arm/9_2020q2/bin/../lib/gcc/arm-none-eabi/9.3.1/../../../../arm-none-eabi/lib/thumb/v8-m.main+fp/hard\libg_nano.a(lib_a-sprintf.o)
                0x0002716c                siprintf
                0x0002716c                sprintf
 .text          0x000271ac       0x14 c:/renesas/ra/e2studio_v2021-04_fsp_v3.0.0/toolchains/gcc_arm/9_2020q2/bin/../lib/gcc/arm-none-eabi/9.3.1/../../../../arm-none-eabi/lib/thumb/v8-m.main+fp/hard\libg_nano.a(lib_a-strcmp.o)
                0x000271ac                strcmp
 .text.strcpy   0x000271c0       0x10 c:/renesas/ra/e2studio_v2021-04_fsp_v3.0.0/toolchains/gcc_arm/9_2020q2/bin/../lib/gcc/arm-none-eabi/9.3.1/../../../../arm-none-eabi/lib/thumb/v8-m.main+fp/hard\libg_nano.a(lib_a-strcpy.o)
                0x000271c0                strcpy
 .text          0x000271d0       0x10 c:/renesas/ra/e2studio_v2021-04_fsp_v3.0.0/toolchains/gcc_arm/9_2020q2/bin/../lib/gcc/arm-none-eabi/9.3.1/../../../../arm-none-eabi/lib/thumb/v8-m.main+fp/hard\libg_nano.a(lib_a-strlen.o)
                0x000271d0                strlen
 .text._vsnprintf_r
                0x000271e0       0x58 c:/renesas/ra/e2studio_v2021-04_fsp_v3.0.0/toolchains/gcc_arm/9_2020q2/bin/../lib/gcc/arm-none-eabi/9.3.1/../../../../arm-none-eabi/lib/thumb/v8-m.main+fp/hard\libg_nano.a(lib_a-vsnprintf.o)
                0x000271e0                _vsniprintf_r
                0x000271e0                _vsnprintf_r
 .text.vsnprintf
                0x00027238       0x1c c:/renesas/ra/e2studio_v2021-04_fsp_v3.0.0/toolchains/gcc_arm/9_2020q2/bin/../lib/gcc/arm-none-eabi/9.3.1/../../../../arm-none-eabi/lib/thumb/v8-m.main+fp/hard\libg_nano.a(lib_a-vsnprintf.o)
                0x00027238                vsniprintf
                0x00027238                vsnprintf
 .text._vsprintf_r
                0x00027254       0x2c c:/renesas/ra/e2studio_v2021-04_fsp_v3.0.0/toolchains/gcc_arm/9_2020q2/bin/../lib/gcc/arm-none-eabi/9.3.1/../../../../arm-none-eabi/lib/thumb/v8-m.main+fp/hard\libg_nano.a(lib_a-vsprintf.o)
                0x00027254                _vsprintf_r
                0x00027254                _vsiprintf_r
 .text.vsprintf
                0x00027280       0x14 c:/renesas/ra/e2studio_v2021-04_fsp_v3.0.0/toolchains/gcc_arm/9_2020q2/bin/../lib/gcc/arm-none-eabi/9.3.1/../../../../arm-none-eabi/lib/thumb/v8-m.main+fp/hard\libg_nano.a(lib_a-vsprintf.o)
                0x00027280                vsiprintf
                0x00027280                vsprintf
 .text.__ssputs_r
                0x00027294       0xb6 c:/renesas/ra/e2studio_v2021-04_fsp_v3.0.0/toolchains/gcc_arm/9_2020q2/bin/../lib/gcc/arm-none-eabi/9.3.1/../../../../arm-none-eabi/lib/thumb/v8-m.main+fp/hard\libg_nano.a(lib_a-nano-svfprintf.o)
                0x00027294                __ssputs_r
 *fill*         0x0002734a        0x2 ff
 .text._svfprintf_r
                0x0002734c      0x200 c:/renesas/ra/e2studio_v2021-04_fsp_v3.0.0/toolchains/gcc_arm/9_2020q2/bin/../lib/gcc/arm-none-eabi/9.3.1/../../../../arm-none-eabi/lib/thumb/v8-m.main+fp/hard\libg_nano.a(lib_a-nano-svfprintf.o)
                0x0002734c                _svfiprintf_r
                0x0002734c                _svfprintf_r
 .text._printf_common
                0x0002754c       0xe0 c:/renesas/ra/e2studio_v2021-04_fsp_v3.0.0/toolchains/gcc_arm/9_2020q2/bin/../lib/gcc/arm-none-eabi/9.3.1/../../../../arm-none-eabi/lib/thumb/v8-m.main+fp/hard\libg_nano.a(lib_a-nano-vfprintf_i.o)
                0x0002754c                _printf_common
 .text._printf_i
                0x0002762c      0x24c c:/renesas/ra/e2studio_v2021-04_fsp_v3.0.0/toolchains/gcc_arm/9_2020q2/bin/../lib/gcc/arm-none-eabi/9.3.1/../../../../arm-none-eabi/lib/thumb/v8-m.main+fp/hard\libg_nano.a(lib_a-nano-vfprintf_i.o)
                0x0002762c                _printf_i
 .text.memchr   0x00027878       0x1c c:/renesas/ra/e2studio_v2021-04_fsp_v3.0.0/toolchains/gcc_arm/9_2020q2/bin/../lib/gcc/arm-none-eabi/9.3.1/../../../../arm-none-eabi/lib/thumb/v8-m.main+fp/hard\libg_nano.a(lib_a-memchr-stub.o)
                0x00027878                memchr
 .text.memmove  0x00027894       0x34 c:/renesas/ra/e2studio_v2021-04_fsp_v3.0.0/toolchains/gcc_arm/9_2020q2/bin/../lib/gcc/arm-none-eabi/9.3.1/../../../../arm-none-eabi/lib/thumb/v8-m.main+fp/hard\libg_nano.a(lib_a-memmove.o)
                0x00027894                memmove
 .text._free_r  0x000278c8       0xa0 c:/renesas/ra/e2studio_v2021-04_fsp_v3.0.0/toolchains/gcc_arm/9_2020q2/bin/../lib/gcc/arm-none-eabi/9.3.1/../../../../arm-none-eabi/lib/thumb/v8-m.main+fp/hard\libg_nano.a(lib_a-nano-freer.o)
                0x000278c8                _free_r
 .text._malloc_r
                0x00027968       0xb4 c:/renesas/ra/e2studio_v2021-04_fsp_v3.0.0/toolchains/gcc_arm/9_2020q2/bin/../lib/gcc/arm-none-eabi/9.3.1/../../../../arm-none-eabi/lib/thumb/v8-m.main+fp/hard\libg_nano.a(lib_a-nano-mallocr.o)
                0x00027968                _malloc_r
 .text._realloc_r
                0x00027a1c       0x4c c:/renesas/ra/e2studio_v2021-04_fsp_v3.0.0/toolchains/gcc_arm/9_2020q2/bin/../lib/gcc/arm-none-eabi/9.3.1/../../../../arm-none-eabi/lib/thumb/v8-m.main+fp/hard\libg_nano.a(lib_a-nano-reallocr.o)
                0x00027a1c                _realloc_r
 .text._sbrk_r  0x00027a68       0x20 c:/renesas/ra/e2studio_v2021-04_fsp_v3.0.0/toolchains/gcc_arm/9_2020q2/bin/../lib/gcc/arm-none-eabi/9.3.1/../../../../arm-none-eabi/lib/thumb/v8-m.main+fp/hard\libg_nano.a(lib_a-sbrkr.o)
                0x00027a68                _sbrk_r
 .text.__malloc_lock
                0x00027a88        0xc c:/renesas/ra/e2studio_v2021-04_fsp_v3.0.0/toolchains/gcc_arm/9_2020q2/bin/../lib/gcc/arm-none-eabi/9.3.1/../../../../arm-none-eabi/lib/thumb/v8-m.main+fp/hard\libg_nano.a(lib_a-mlock.o)
                0x00027a88                __malloc_lock
 .text.__malloc_unlock
                0x00027a94        0xc c:/renesas/ra/e2studio_v2021-04_fsp_v3.0.0/toolchains/gcc_arm/9_2020q2/bin/../lib/gcc/arm-none-eabi/9.3.1/../../../../arm-none-eabi/lib/thumb/v8-m.main+fp/hard\libg_nano.a(lib_a-mlock.o)
                0x00027a94                __malloc_unlock
 .text._malloc_usable_size_r
                0x00027aa0       0x10 c:/renesas/ra/e2studio_v2021-04_fsp_v3.0.0/toolchains/gcc_arm/9_2020q2/bin/../lib/gcc/arm-none-eabi/9.3.1/../../../../arm-none-eabi/lib/thumb/v8-m.main+fp/hard\libg_nano.a(lib_a-nano-msizer.o)
                0x00027aa0                _malloc_usable_size_r
 .text.__retarget_lock_acquire_recursive
                0x00027ab0        0x2 c:/renesas/ra/e2studio_v2021-04_fsp_v3.0.0/toolchains/gcc_arm/9_2020q2/bin/../lib/gcc/arm-none-eabi/9.3.1/../../../../arm-none-eabi/lib/thumb/v8-m.main+fp/hard\libg_nano.a(lib_a-lock.o)
                0x00027ab0                __retarget_lock_acquire_recursive
 .text.__retarget_lock_release_recursive
                0x00027ab2        0x2 c:/renesas/ra/e2studio_v2021-04_fsp_v3.0.0/toolchains/gcc_arm/9_2020q2/bin/../lib/gcc/arm-none-eabi/9.3.1/../../../../arm-none-eabi/lib/thumb/v8-m.main+fp/hard\libg_nano.a(lib_a-lock.o)
                0x00027ab2                __retarget_lock_release_recursive
 *(.version)
 .version       0x00027ab4       0x50 ./ra/fsp/src/bsp/mcu/all/bsp_common.o
 *(.init)
 .init          0x00027b04        0x4 c:/renesas/ra/e2studio_v2021-04_fsp_v3.0.0/toolchains/gcc_arm/9_2020q2/bin/../lib/gcc/arm-none-eabi/9.3.1/thumb/v8-m.main+fp/hard/crti.o
                0x00027b04                _init
 .init          0x00027b08        0x8 c:/renesas/ra/e2studio_v2021-04_fsp_v3.0.0/toolchains/gcc_arm/9_2020q2/bin/../lib/gcc/arm-none-eabi/9.3.1/thumb/v8-m.main+fp/hard/crtn.o
 *(.fini)
 .fini          0x00027b10        0x4 c:/renesas/ra/e2studio_v2021-04_fsp_v3.0.0/toolchains/gcc_arm/9_2020q2/bin/../lib/gcc/arm-none-eabi/9.3.1/thumb/v8-m.main+fp/hard/crti.o
                0x00027b10                _fini
 .fini          0x00027b14        0x8 c:/renesas/ra/e2studio_v2021-04_fsp_v3.0.0/toolchains/gcc_arm/9_2020q2/bin/../lib/gcc/arm-none-eabi/9.3.1/thumb/v8-m.main+fp/hard/crtn.o
 *fill*         0x00027b1c        0x4 ff
 .fini.__stub   0x00027b20       0x70 linker stubs
 *crtbegin.o(.ctors)
 *crtbegin?.o(.ctors)
 *(EXCLUDE_FILE(*crtend.o *crtend?.o) .ctors)
 *(SORT_BY_NAME(.ctors.*))
 *(.ctors)
 *crtbegin.o(.dtors)
 *crtbegin?.o(.dtors)
 *(EXCLUDE_FILE(*crtend.o *crtend?.o) .dtors)
 *(SORT_BY_NAME(.dtors.*))
 *(.dtors)
 *(.rodata*)
 .rodata.buzzerctrl
                0x00027b90        0xc ./tray/alarm_led.o
                0x00027b90                buzzerctrl
 .rodata.ledctrl
                0x00027b9c        0xc ./tray/alarm_led.o
                0x00027b9c                ledctrl
 .rodata        0x00027ba8       0x10 ./tray/entry.o
 .rodata.upDataRecv.str1.4
                0x00027bb8       0x25 ./tray/host.o
 *fill*         0x00027bdd        0x3 ff
 .rodata.upMsgFlowJump.str1.4
                0x00027be0       0x27 ./tray/host.o
 *fill*         0x00027c07        0x1 ff
 .rodata.__FUNCTION__.31081
                0x00027c08        0xe ./tray/host.o
 *fill*         0x00027c16        0x2 ff
 .rodata.__FUNCTION__.31899
                0x00027c18        0xb ./tray/host.o
 *fill*         0x00027c23        0x1 ff
 .rodata.logTrc.str1.4
                0x00027c24       0x28 ./tray/log.o
 .rodata.Pb_init.str1.4
                0x00027c4c        0x6 ./tray/pb.o
 *fill*         0x00027c52        0x2 ff
 .rodata.plcInitAddr.str1.4
                0x00027c54      0x176 ./tray/plc.o
 *fill*         0x00027dca        0x2 ff
 .rodata.tbl_init.str1.4
                0x00027dcc        0x6 ./tray/tray_bl.o
 *fill*         0x00027dd2        0x2 ff
 .rodata.g_can0_cfg
                0x00027dd4       0x18 ./ra_gen/hal_data.o
                0x00027dd4                g_can0_cfg
 .rodata.g_can0_extended_cfg
                0x00027dec       0x18 ./ra_gen/hal_data.o
                0x00027dec                g_can0_extended_cfg
 .rodata.g_can1_cfg
                0x00027e04       0x18 ./ra_gen/hal_data.o
                0x00027e04                g_can1_cfg
 .rodata.g_can1_extended_cfg
                0x00027e1c       0x18 ./ra_gen/hal_data.o
                0x00027e1c                g_can1_extended_cfg
 .rodata.g_cssdSpi_cfg
                0x00027e34       0x24 ./ra_gen/hal_data.o
                0x00027e34                g_cssdSpi_cfg
 .rodata.g_cssdSpi_ext_cfg
                0x00027e58        0xc ./ra_gen/hal_data.o
                0x00027e58                g_cssdSpi_ext_cfg
 .rodata.g_mcuflash_cfg
                0x00027e64       0x14 ./ra_gen/hal_data.o
                0x00027e64                g_mcuflash_cfg
 .rodata.g_mlosClockTimer_cfg
                0x00027e78       0x20 ./ra_gen/hal_data.o
                0x00027e78                g_mlosClockTimer_cfg
 .rodata.g_mlosClockTimer_extend
                0x00027e98       0x2c ./ra_gen/hal_data.o
                0x00027e98                g_mlosClockTimer_extend
 .rodata.g_mlosTaskElapsedTimer_cfg
                0x00027ec4       0x20 ./ra_gen/hal_data.o
                0x00027ec4                g_mlosTaskElapsedTimer_cfg
 .rodata.g_mlosTaskElapsedTimer_extend
                0x00027ee4       0x2c ./ra_gen/hal_data.o
                0x00027ee4                g_mlosTaskElapsedTimer_extend
 .rodata.g_transfer0
                0x00027f10        0xc ./ra_gen/hal_data.o
                0x00027f10                g_transfer0
 .rodata.g_transfer0_cfg
                0x00027f1c        0x8 ./ra_gen/hal_data.o
                0x00027f1c                g_transfer0_cfg
 .rodata.g_transfer0_cfg_extend
                0x00027f24        0x1 ./ra_gen/hal_data.o
                0x00027f24                g_transfer0_cfg_extend
 *fill*         0x00027f25        0x3 ff
 .rodata.g_transfer1
                0x00027f28        0xc ./ra_gen/hal_data.o
                0x00027f28                g_transfer1
 .rodata.g_transfer1_cfg
                0x00027f34        0x8 ./ra_gen/hal_data.o
                0x00027f34                g_transfer1_cfg
 .rodata.g_transfer1_cfg_extend
                0x00027f3c        0x1 ./ra_gen/hal_data.o
                0x00027f3c                g_transfer1_cfg_extend
 *fill*         0x00027f3d        0x3 ff
 .rodata.g_uart0_cfg
                0x00027f40       0x20 ./ra_gen/hal_data.o
                0x00027f40                g_uart0_cfg
 .rodata.g_uart0_cfg_extend
                0x00027f60       0x10 ./ra_gen/hal_data.o
                0x00027f60                g_uart0_cfg_extend
 .rodata.g_uart1_cfg
                0x00027f70       0x20 ./ra_gen/hal_data.o
                0x00027f70                g_uart1_cfg
 .rodata.g_uart1_cfg_extend
                0x00027f90       0x10 ./ra_gen/hal_data.o
                0x00027f90                g_uart1_cfg_extend
 .rodata.g_w5500spi_cfg
                0x00027fa0       0x24 ./ra_gen/hal_data.o
                0x00027fa0                g_w5500spi_cfg
 .rodata.g_w5500spi_ext_cfg
                0x00027fc4        0xc ./ra_gen/hal_data.o
                0x00027fc4                g_w5500spi_ext_cfg
 .rodata.g_bsp_pin_cfg
                0x00027fd0        0x8 ./ra_gen/pin_data.o
                0x00027fd0                g_bsp_pin_cfg
 .rodata.g_bsp_pin_cfg_data
                0x00027fd8      0x268 ./ra_gen/pin_data.o
                0x00027fd8                g_bsp_pin_cfg_data
 .rodata.g_interrupt_event_link_select
                0x00028240       0xc0 ./ra_gen/vector_data.o
                0x00028240                g_interrupt_event_link_select
 .rodata.g_transfer_on_dtc
                0x00028300       0x24 ./ra/fsp/src/r_dtc/r_dtc.o
                0x00028300                g_transfer_on_dtc
 .rodata.g_prcr_masks
                0x00028324        0x8 ./ra/fsp/src/bsp/mcu/all/bsp_register_protection.o
 .rodata.led_init.str1.4
                0x0002832c        0x4 ./public/u_led.o
 .rodata.setting_init.str1.4
                0x00028330        0x7 ./public/u_setting.o
 *fill*         0x00028337        0x1 ff
 .rodata.log_shell_cmd_handle.str1.4
                0x00028338        0x8 ./mlos/services/mlos_log.o
 .rodata.log_init.str1.4
                0x00028340       0x40 ./mlos/services/mlos_log.o
 .rodata.shell_cmd_help.str1.4
                0x00028380       0x48 ./mlos/services/mlos_shell.o
 .rodata.shell_cmd_reboot.str1.4
                0x000283c8       0x16 ./mlos/services/mlos_shell.o
 *fill*         0x000283de        0x2 ff
 .rodata.shell_cmd_mem.str1.4
                0x000283e0       0x38 ./mlos/services/mlos_shell.o
 .rodata.shell_cmd_buf_read.str1.4
                0x00028418       0x56 ./mlos/services/mlos_shell.o
 *fill*         0x0002846e        0x2 ff
 .rodata.shell_task.str1.4
                0x00028470       0x18 ./mlos/services/mlos_shell.o
 .rodata.shell_init.str1.4
                0x00028488       0x78 ./mlos/services/mlos_shell.o
 .rodata.rtimer_task_create.str1.4
                0x00028500        0x7 ./mlos/os/mlos_rtimer.o
 *fill*         0x00028507        0x1 ff
 .rodata.crc_hight_tab
                0x00028508      0x100 ./mllib/utp/public.o
                0x00028508                crc_hight_tab
 .rodata.crc_low_tab
                0x00028608      0x100 ./mllib/utp/public.o
                0x00028608                crc_low_tab
 .rodata.utp_init.str1.4
                0x00028708        0x9 ./mllib/utp/utp.o
 *fill*         0x00028711        0x3 ff
 .rodata.upper_ntp_init.str1.4
                0x00028714        0x6 ./mllib/upper/upper_ntp.o
 *fill*         0x0002871a        0x2 ff
 .rodata.tool_init.str1.4
                0x0002871c        0x5 ./mllib/tool/tool.o
 *fill*         0x00028721        0x3 ff
 .rodata.tool_shell_cmd_tskinfo.str1.4
                0x00028724       0x1c ./mllib/tool/tool_debug.o
                                 0x24 (size before relaxing)
 .rodata.tool_debug_int.str1.4
                0x00028740       0x58 ./mllib/tool/tool_debug.o
 .rodata.ntp_init.str1.4
                0x00028798        0x7 ./mllib/ntp/ntp.o
 .rodata.cssd_read_sector.str1.4
                0x00028798       0x1c ./mllib/mlflash/cssdcard/cs_sdcard.o
 .rodata.cssd_write_sector.str1.4
                0x000287b4       0x1d ./mllib/mlflash/cssdcard/cs_sdcard.o
 *fill*         0x000287d1        0x3 ff
 .rodata.csssd_card_init.str1.4
                0x000287d4       0x40 ./mllib/mlflash/cssdcard/cs_sdcard.o
 .rodata.ds_init.str1.4
                0x00028814        0x3 ./mllib/dataStorage/ds.o
 *fill*         0x00028817        0x1 ff
 .rodata.dsf_backup.str1.4
                0x00028818       0x1f ./mllib/dataStorage/ds_file.o
 *fill*         0x00028837        0x1 ff
 .rodata.dsf_write_line.str1.4
                0x00028838       0x1d ./mllib/dataStorage/ds_file.o
 *fill*         0x00028855        0x3 ff
 .rodata.dsf_write_page.str1.4
                0x00028858       0x16 ./mllib/dataStorage/ds_file.o
 *fill*         0x0002886e        0x2 ff
 .rodata.__FUNCTION__.27729
                0x00028870        0xf ./mllib/dataStorage/ds_file.o
 *fill*         0x0002887f        0x1 ff
 .rodata.__FUNCTION__.27736
                0x00028880        0xf ./mllib/dataStorage/ds_file.o
 *fill*         0x0002888f        0x1 ff
 .rodata.__FUNCTION__.27753
                0x00028890        0x9 ./mllib/dataStorage/ds_file.o
 *fill*         0x00028899        0x3 ff
 .rodata.ds_log_cache_write.str1.4
                0x0002889c       0x1e ./mllib/dataStorage/ds_log.o
 *fill*         0x000288ba        0x2 ff
 .rodata.__FUNCTION__.27729
                0x000288bc       0x13 ./mllib/dataStorage/ds_log.o
 *fill*         0x000288cf        0x1 ff
 .rodata.__FUNCTION__.27735
                0x000288d0        0xf ./mllib/dataStorage/ds_log.o
 *fill*         0x000288df        0x1 ff
 .rodata.ctp_init.str1.4
                0x000288e0        0x4 ./mllib/ctp/ctp.o
 .rodata._svfprintf_r.str1.1
                0x000288e4       0x11 c:/renesas/ra/e2studio_v2021-04_fsp_v3.0.0/toolchains/gcc_arm/9_2020q2/bin/../lib/gcc/arm-none-eabi/9.3.1/../../../../arm-none-eabi/lib/thumb/v8-m.main+fp/hard\libg_nano.a(lib_a-nano-svfprintf.o)
 .rodata._printf_i.str1.1
                0x000288f5       0x22 c:/renesas/ra/e2studio_v2021-04_fsp_v3.0.0/toolchains/gcc_arm/9_2020q2/bin/../lib/gcc/arm-none-eabi/9.3.1/../../../../arm-none-eabi/lib/thumb/v8-m.main+fp/hard\libg_nano.a(lib_a-nano-vfprintf_i.o)
 *fill*         0x00028917        0x1 ff
 .rodata.__sf_fake_stderr
                0x00028918       0x20 c:/renesas/ra/e2studio_v2021-04_fsp_v3.0.0/toolchains/gcc_arm/9_2020q2/bin/../lib/gcc/arm-none-eabi/9.3.1/../../../../arm-none-eabi/lib/thumb/v8-m.main+fp/hard\libc_nano.a(lib_a-findfp.o)
                0x00028918                __sf_fake_stderr
 .rodata.__sf_fake_stdin
                0x00028938       0x20 c:/renesas/ra/e2studio_v2021-04_fsp_v3.0.0/toolchains/gcc_arm/9_2020q2/bin/../lib/gcc/arm-none-eabi/9.3.1/../../../../arm-none-eabi/lib/thumb/v8-m.main+fp/hard\libc_nano.a(lib_a-findfp.o)
                0x00028938                __sf_fake_stdin
 .rodata.__sf_fake_stdout
                0x00028958       0x20 c:/renesas/ra/e2studio_v2021-04_fsp_v3.0.0/toolchains/gcc_arm/9_2020q2/bin/../lib/gcc/arm-none-eabi/9.3.1/../../../../arm-none-eabi/lib/thumb/v8-m.main+fp/hard\libc_nano.a(lib_a-findfp.o)
                0x00028958                __sf_fake_stdout
                0x00028978                __usb_dev_descriptor_start_fs = .
 *(.usb_device_desc_fs*)
                0x00028978                __usb_cfg_descriptor_start_fs = .
 *(.usb_config_desc_fs*)
                0x00028978                __usb_interface_descriptor_start_fs = .
 *(.usb_interface_desc_fs*)
                0x00028978                __usb_descriptor_end_fs = .
                0x00028978                __usb_dev_descriptor_start_hs = .
 *(.usb_device_desc_hs*)
                0x00028978                __usb_cfg_descriptor_start_hs = .
 *(.usb_config_desc_hs*)
                0x00028978                __usb_interface_descriptor_start_hs = .
 *(.usb_interface_desc_hs*)
                0x00028978                __usb_descriptor_end_hs = .
 *(.eh_frame*)
 .eh_frame      0x00028978        0x0 c:/renesas/ra/e2studio_v2021-04_fsp_v3.0.0/toolchains/gcc_arm/9_2020q2/bin/../lib/gcc/arm-none-eabi/9.3.1/thumb/v8-m.main+fp/hard/crtbegin.o
 .eh_frame      0x00028978        0x4 c:/renesas/ra/e2studio_v2021-04_fsp_v3.0.0/toolchains/gcc_arm/9_2020q2/bin/../lib/gcc/arm-none-eabi/9.3.1/thumb/v8-m.main+fp/hard/crtend.o
                0x0002897c                __ROM_End = .
                0x000001c0                __Vectors_Size = (__Vectors_End - __Vectors)

.glue_7         0x0002897c        0x0
 .glue_7        0x0002897c        0x0 linker stubs

.glue_7t        0x0002897c        0x0
 .glue_7t       0x0002897c        0x0 linker stubs

.vfp11_veneer   0x0002897c        0x0
 .vfp11_veneer  0x0002897c        0x0 linker stubs

.v4_bx          0x0002897c        0x0
 .v4_bx         0x0002897c        0x0 linker stubs

.iplt           0x0002897c        0x0
 .iplt          0x0002897c        0x0 c:/renesas/ra/e2studio_v2021-04_fsp_v3.0.0/toolchains/gcc_arm/9_2020q2/bin/../lib/gcc/arm-none-eabi/9.3.1/thumb/v8-m.main+fp/hard/crtbegin.o

.ARM.extab
 *(.ARM.extab* .gnu.linkonce.armextab.*)
                0x0002897c                __exidx_start = .

.ARM.exidx
 *(.ARM.exidx* .gnu.linkonce.armexidx.*)
                0x0002897c                __exidx_end = .
                0x0002897c                __etext = .
                0x20000000                __tz_RAM_S = ORIGIN (RAM)

.fsp_dtc_vector_table
                0x20000000      0x180
                0x20000000                . = ORIGIN (RAM)
 *(.fsp_dtc_vector_table)
 .fsp_dtc_vector_table
                0x20000000      0x180 ./ra/fsp/src/r_dtc/r_dtc.o

.data           0x20000180      0xa28 load address 0x0002897c
                0x20000180                __data_start__ = .
                0x20000180                . = ALIGN (0x4)
                0x20000180                __Code_In_RAM_Start = .
 *(.code_in_ram*)
 .code_in_ram   0x20000180      0x6a0 ./ra/fsp/src/r_flash_hp/r_flash_hp.o
 .code_in_ram.__stub
                0x20000820       0x10 linker stubs
                0x20000830                __Code_In_RAM_End = .
 *(vtable)
 *(.data.*)
 .data.gBoxAddr
                0x20000830       0x20 ./tray/entry.o
                0x20000830                gBoxAddr
 .data.gCAN0BoxNum
                0x20000850        0x1 ./tray/entry.o
                0x20000850                gCAN0BoxNum
 *fill*         0x20000851        0x3 
 .data.gCan0BoxIdx
                0x20000854       0x20 ./tray/entry.o
                0x20000854                gCan0BoxIdx
 .data.gChnModuAmt
                0x20000874        0x1 ./tray/entry.o
                0x20000874                gChnModuAmt
 *fill*         0x20000875        0x3 
 .data.gChnSmplBufAmt
                0x20000878        0x4 ./tray/entry.o
                0x20000878                gChnSmplBufAmt
 .data.gCurrentMax
                0x2000087c        0x4 ./tray/entry.o
                0x2000087c                gCurrentMax
 .data.gIsTraySmpl
                0x20000880        0x1 ./tray/entry.o
                0x20000880                gIsTraySmpl
 .data.gLowProtoVer
                0x20000881        0x1 ./tray/entry.o
                0x20000881                gLowProtoVer
 .data.gMediumSoftVer
                0x20000882        0x2 ./tray/entry.o
                0x20000882                gMediumSoftVer
 .data.gNdbdMcuProtoVer
                0x20000884        0x1 ./tray/entry.o
                0x20000884                gNdbdMcuProtoVer
 *fill*         0x20000885        0x1 
 .data.gProtoSmplVer
                0x20000886        0x2 ./tray/entry.o
                0x20000886                gProtoSmplVer
 .data.gProtoSoftVer
                0x20000888        0x2 ./tray/entry.o
                0x20000888                gProtoSoftVer
 .data.gSmplStoreVer
                0x2000088a        0x1 ./tray/entry.o
                0x2000088a                gSmplStoreVer
 .data.gTmpBoxChnAmt
                0x2000088b        0x1 ./tray/entry.o
                0x2000088b                gTmpBoxChnAmt
 .data.gTmpTmprSmplCellAmt
                0x2000088c        0x2 ./tray/entry.o
                0x2000088c                gTmpTmprSmplCellAmt
 .data.gTmpTmprSmplChnAmt
                0x2000088e        0x2 ./tray/entry.o
                0x2000088e                gTmpTmprSmplChnAmt
 .data.gTmpTmprSmplLocAmt
                0x20000890        0x1 ./tray/entry.o
                0x20000890                gTmpTmprSmplLocAmt
 .data.gTmpTmprSmplLocBase
                0x20000891        0x1 ./tray/entry.o
                0x20000891                gTmpTmprSmplLocBase
 .data.gTmpTrayAmt
                0x20000892        0x1 ./tray/entry.o
                0x20000892                gTmpTrayAmt
 .data.gTmpTrayBoxAmt
                0x20000893        0x1 ./tray/entry.o
                0x20000893                gTmpTrayBoxAmt
 .data.gTmprAmtPerCell
                0x20000894        0x1 ./tray/entry.o
                0x20000894                gTmprAmtPerCell
 .data.gTmprAmtPerSlot
                0x20000895        0x1 ./tray/entry.o
                0x20000895                gTmprAmtPerSlot
 *fill*         0x20000896        0x2 
 .data.gTmprSmplAddr
                0x20000898       0x10 ./tray/entry.o
                0x20000898                gTmprSmplAddr
 .data.gTrayDiskBufAmt
                0x200008a8        0x4 ./tray/entry.o
                0x200008a8                gTrayDiskBufAmt
 .data.gTraySmplBufAmt
                0x200008ac        0x4 ./tray/entry.o
                0x200008ac                gTraySmplBufAmt
 .data.gVoltageMax
                0x200008b0        0x4 ./tray/entry.o
                0x200008b0                gVoltageMax
 .data.gLogLvl  0x200008b4        0x1 ./tray/log.o
                0x200008b4                gLogLvl
 *fill*         0x200008b5        0x3 
 .data.gPlcIp   0x200008b8        0x4 ./tray/plc.o
                0x200008b8                gPlcIp
 .data.gPlcIp2  0x200008bc        0x4 ./tray/plc.o
                0x200008bc                gPlcIp2
 .data.gPlcMapTrayNum
                0x200008c0        0x1 ./tray/plc.o
                0x200008c0                gPlcMapTrayNum
 *fill*         0x200008c1        0x1 
 .data.gPlcPort
                0x200008c2        0x2 ./tray/plc.o
                0x200008c2                gPlcPort
 .data.gPlcPort2
                0x200008c4        0x2 ./tray/plc.o
                0x200008c4                gPlcPort2
 .data.gPlcReadAmtMax
                0x200008c6        0x1 ./tray/plc.o
                0x200008c6                gPlcReadAmtMax
 *fill*         0x200008c7        0x1 
 .data.gPlcTrayAddrBase
                0x200008c8        0x8 ./tray/plc.o
                0x200008c8                gPlcTrayAddrBase
 .data.gPlcTrayIdx
                0x200008d0        0x4 ./tray/plc.o
                0x200008d0                gPlcTrayIdx
 .data.g_can0_bit_timing_cfg
                0x200008d4       0x10 ./ra_gen/hal_data.o
                0x200008d4                g_can0_bit_timing_cfg
 .data.g_can0_mailbox
                0x200008e4      0x100 ./ra_gen/hal_data.o
                0x200008e4                g_can0_mailbox
 .data.g_can1_bit_timing_cfg
                0x200009e4       0x10 ./ra_gen/hal_data.o
                0x200009e4                g_can1_bit_timing_cfg
 .data.g_can1_mailbox
                0x200009f4      0x100 ./ra_gen/hal_data.o
                0x200009f4                g_can1_mailbox
 .data.g_transfer0_info
                0x20000af4       0x10 ./ra_gen/hal_data.o
                0x20000af4                g_transfer0_info
 .data.g_transfer1_info
                0x20000b04       0x10 ./ra_gen/hal_data.o
                0x20000b04                g_transfer1_info
 .data.g_uart0_baud_setting
                0x20000b14        0x4 ./ra_gen/hal_data.o
                0x20000b14                g_uart0_baud_setting
 .data.g_uart1_baud_setting
                0x20000b18        0x4 ./ra_gen/hal_data.o
                0x20000b18                g_uart1_baud_setting
 .data.g_configuration_area_data
                0x20000b1c       0x10 ./ra/fsp/src/r_flash_hp/r_flash_hp.o
 .data.mySetting
                0x20000b2c        0x4 ./public/u_setting.o
                0x20000b2c                mySetting
 .data.logPrintLevelMask
                0x20000b30        0x2 ./mlos/services/mlos_log.o
                0x20000b30                logPrintLevelMask
 *fill*         0x20000b32        0x2 
 .data.pCANCtrl
                0x20000b34        0x8 ./mllib/ctp/ra6m4/ctp_can_driver.o
                0x20000b34                pCANCtrl
 .data._impure_ptr
                0x20000b3c        0x4 c:/renesas/ra/e2studio_v2021-04_fsp_v3.0.0/toolchains/gcc_arm/9_2020q2/bin/../lib/gcc/arm-none-eabi/9.3.1/../../../../arm-none-eabi/lib/thumb/v8-m.main+fp/hard\libg_nano.a(lib_a-impure.o)
                0x20000b3c                _impure_ptr
 .data.impure_data
                0x20000b40       0x60 c:/renesas/ra/e2studio_v2021-04_fsp_v3.0.0/toolchains/gcc_arm/9_2020q2/bin/../lib/gcc/arm-none-eabi/9.3.1/../../../../arm-none-eabi/lib/thumb/v8-m.main+fp/hard\libg_nano.a(lib_a-impure.o)
 *(.data)
                0x20000ba0                . = ALIGN (0x4)
                0x20000ba0                PROVIDE (__preinit_array_start = .)
 *(.preinit_array)
                0x20000ba0                PROVIDE (__preinit_array_end = .)
                0x20000ba0                . = ALIGN (0x4)
                0x20000ba0                PROVIDE (__init_array_start = .)
 *(SORT_BY_NAME(.init_array.*))
 *(.init_array)
 .init_array    0x20000ba0        0x4 c:/renesas/ra/e2studio_v2021-04_fsp_v3.0.0/toolchains/gcc_arm/9_2020q2/bin/../lib/gcc/arm-none-eabi/9.3.1/thumb/v8-m.main+fp/hard/crtbegin.o
                0x20000ba4                PROVIDE (__init_array_end = .)
                0x20000ba4                . = ALIGN (0x4)
                [!provide]                PROVIDE (__fini_array_start = .)
 *(SORT_BY_NAME(.fini_array.*))
 *(.fini_array)
 .fini_array    0x20000ba4        0x4 c:/renesas/ra/e2studio_v2021-04_fsp_v3.0.0/toolchains/gcc_arm/9_2020q2/bin/../lib/gcc/arm-none-eabi/9.3.1/thumb/v8-m.main+fp/hard/crtbegin.o
                [!provide]                PROVIDE (__fini_array_end = .)
 *(.jcr*)
                0x20000ba8                . = ALIGN (0x4)
                0x20000ba8                __data_end__ = .

.igot.plt       0x20000ba8        0x0 load address 0x000293a4
 .igot.plt      0x20000ba8        0x0 c:/renesas/ra/e2studio_v2021-04_fsp_v3.0.0/toolchains/gcc_arm/9_2020q2/bin/../lib/gcc/arm-none-eabi/9.3.1/thumb/v8-m.main+fp/hard/crtbegin.o

.gnu.sgstubs    0x00029400        0x0
                0x00029400                . = (DEFINED (PROJECT_SECURE) && DEFINED (FLASH_NSC_START))?ABSOLUTE (FLASH_NSC_START):ALIGN (0x400)
                0x00029400                __tz_FLASH_C = DEFINED (FLASH_NSC_START)?ABSOLUTE (FLASH_NSC_START):__RESERVE_NS_RAM?ABSOLUTE ((FLASH_START + FLASH_LENGTH)):ALIGN (0x400)
                0x00029400                _start_sg = .
 *(.gnu.sgstubs*)
                0x00029400                . = ALIGN (0x20)
                0x00029400                _end_sg = .
                0x00030000                __tz_FLASH_N = DEFINED (FLASH_NS_START)?ABSOLUTE (FLASH_NS_START):__RESERVE_NS_RAM?ABSOLUTE ((FLASH_START + FLASH_LENGTH)):ALIGN (0x8000)
                0x00030000                FLASH_NS_IMAGE_START = DEFINED (FLASH_NS_IMAGE_START)?FLASH_NS_IMAGE_START:__tz_FLASH_N
                0x60000000                __tz_QSPI_FLASH_S = ORIGIN (QSPI_FLASH)

.qspi_flash     0x60000000        0x0
                0x60000000                __qspi_flash_start__ = .
 *(.qspi_flash*)
 *(.code_in_qspi*)
                0x60000000                __qspi_flash_end__ = .
                0x00000000                __qspi_flash_code_size__ = (__qspi_flash_end__ - __qspi_flash_start__)
                0x000293a4                __qspi_flash_code_addr__ = (__etext + (__data_end__ - __data_start__))

.qspi_non_retentive
                0x60000000        0x0 load address 0x000293a4
                0x60000000                __qspi_non_retentive_start__ = .
 *(.qspi_non_retentive*)
                0x60000000                __qspi_non_retentive_end__ = .
                0x00000000                __qspi_non_retentive_size__ = (__qspi_non_retentive_end__ - __qspi_non_retentive_start__)
                0x04000000                __qspi_region_max_size__ = 0x4000000
                0x60000000                __qspi_region_start_address__ = __qspi_flash_start__
                0x64000000                __qspi_region_end_address__ = (__qspi_flash_start__ + __qspi_region_max_size__)
                0x60000000                __tz_QSPI_FLASH_N = __qspi_non_retentive_end__
                0x68000000                __tz_OSPI_DEVICE_0_S = ORIGIN (OSPI_DEVICE_0)

.OSPI_DEVICE_0  0x68000000        0x0
                0x68000000                __ospi_device_0_start__ = .
 *(.ospi_device_0*)
 *(.code_in_ospi_device_0*)
                0x68000000                __ospi_device_0_end__ = .
                0x00000000                __ospi_device_0_code_size__ = (__ospi_device_0_end__ - __ospi_device_0_start__)
                0x000293a4                __ospi_device_0_code_addr__ = (__etext + (__data_end__ - __data_start__))

.ospi_device_0_non_retentive
                0x68000000        0x0 load address 0x000293a4
                0x68000000                __ospi_device_0_non_retentive_start__ = .
 *(.ospi_device_0_non_retentive*)
                0x68000000                __ospi_device_0_non_retentive_end__ = .
                0x00000000                __ospi_device_0_non_retentive_size__ = (__ospi_device_0_non_retentive_end__ - __ospi_device_0_non_retentive_start__)
                0x08000000                __ospi_device_0_region_max_size__ = 0x8000000
                0x68000000                __ospi_device_0_region_start_address__ = __ospi_device_0_start__
                0x70000000                __ospi_device_0_region_end_address__ = (__ospi_device_0_start__ + __ospi_device_0_region_max_size__)
                0x68000000                __tz_OSPI_DEVICE_0_N = __ospi_device_0_non_retentive_end__
                0x70000000                __tz_OSPI_DEVICE_1_S = ORIGIN (OSPI_DEVICE_1)

.OSPI_DEVICE_1  0x70000000        0x0
                0x70000000                __ospi_device_1_start__ = .
 *(.ospi_device_1*)
 *(.code_in_ospi_device_1*)
                0x70000000                __ospi_device_1_end__ = .
                0x00000000                __ospi_device_1_code_size__ = (__ospi_device_1_end__ - __ospi_device_1_start__)
                0x000293a4                __ospi_device_1_code_addr__ = (__etext + (__data_end__ - __data_start__))

.ospi_device_1_non_retentive
                0x70000000        0x0 load address 0x000293a4
                0x70000000                __ospi_device_1_non_retentive_start__ = .
 *(.ospi_device_1_non_retentive*)
                0x70000000                __ospi_device_1_non_retentive_end__ = .
                0x00000000                __ospi_device_1_non_retentive_size__ = (__ospi_device_1_non_retentive_end__ - __ospi_device_1_non_retentive_start__)
                0x10000000                __ospi_device_1_region_max_size__ = 0x10000000
                0x70000000                __ospi_device_1_region_start_address__ = __ospi_device_1_start__
                0x80000000                __ospi_device_1_region_end_address__ = (__ospi_device_1_start__ + __ospi_device_1_region_max_size__)
                0x70000000                __tz_OSPI_DEVICE_1_N = __ospi_device_1_non_retentive_end__

.noinit         0x20000ba8       0x18
                0x20000ba8                . = ALIGN (0x4)
                0x20000ba8                __noinit_start = .
 *(.noinit*)
 .noinit        0x20000ba8       0x18 ./ra/fsp/src/bsp/mcu/all/bsp_clocks.o
                0x20000bc0                . = ALIGN (0x8)
 *(.heap.*)
                0x20000bc0                __noinit_end = .

.bss            0x20000bc0    0x13a84
                0x20000bc0                . = ALIGN (0x4)
                0x20000bc0                __bss_start__ = .
 *(.bss*)
 .bss           0x20000bc0       0x1c c:/renesas/ra/e2studio_v2021-04_fsp_v3.0.0/toolchains/gcc_arm/9_2020q2/bin/../lib/gcc/arm-none-eabi/9.3.1/thumb/v8-m.main+fp/hard/crtbegin.o
 .bss.gBoxBypsSwBoardAmt
                0x20000bdc        0x1 ./tray/entry.o
                0x20000bdc                gBoxBypsSwBoardAmt
 .bss.gBoxVolSmplBoardAmt
                0x20000bdd        0x1 ./tray/entry.o
                0x20000bdd                gBoxVolSmplBoardAmt
 .bss.gNdbdCtrlByMcu
                0x20000bde        0x1 ./tray/entry.o
                0x20000bde                gNdbdCtrlByMcu
 .bss.gNdbdMcuUartIdx
                0x20000bdf        0x1 ./tray/entry.o
                0x20000bdf                gNdbdMcuUartIdx
 .bss.gSlotWaterTmprAmt
                0x20000be0        0x1 ./tray/entry.o
                0x20000be0                gSlotWaterTmprAmt
 .bss.gSpecsMapId
                0x20000be1        0x1 ./tray/entry.o
                0x20000be1                gSpecsMapId
 .bss.gTmpChnCellAmt
                0x20000be2        0x1 ./tray/entry.o
                0x20000be2                gTmpChnCellAmt
 .bss.gTmpFixtUartIdx
                0x20000be3        0x1 ./tray/entry.o
                0x20000be3                gTmpFixtUartIdx
 .bss.gTmpTmprSmplAmt
                0x20000be4        0x1 ./tray/entry.o
                0x20000be4                gTmpTmprSmplAmt
 .bss.gTmpTmprSmplCellBase
                0x20000be5        0x1 ./tray/entry.o
                0x20000be5                gTmpTmprSmplCellBase
 .bss.gTmpTmprSmplUartIdx
                0x20000be6        0x1 ./tray/entry.o
                0x20000be6                gTmpTmprSmplUartIdx
 .bss.gTrayBoxType
                0x20000be7        0x1 ./tray/entry.o
                0x20000be7                gTrayBoxType
 .bss.gUsedMode
                0x20000be8        0x1 ./tray/entry.o
                0x20000be8                gUsedMode
 .bss.gWaterTmprSmplAmt
                0x20000be9        0x1 ./tray/entry.o
                0x20000be9                gWaterTmprSmplAmt
 .bss.gWaterTmprSmplBase
                0x20000bea        0x1 ./tray/entry.o
                0x20000bea                gWaterTmprSmplBase
 .bss.gPlcAmt   0x20000beb        0x1 ./tray/plc.o
                0x20000beb                gPlcAmt
 .bss.gSmplDiskMgr
                0x20000bec        0x4 ./tray/tray.o
                0x20000bec                gSmplDiskMgr
 .bss.g_can0_mailbox_mask
                0x20000bf0       0x20 ./ra_gen/hal_data.o
                0x20000bf0                g_can0_mailbox_mask
 .bss.g_can1_mailbox_mask
                0x20000c10       0x20 ./ra_gen/hal_data.o
                0x20000c10                g_can1_mailbox_mask
 .bss.g_dtc_state_initialized.24782
                0x20000c30        0x1 ./ra/fsp/src/r_dtc/r_dtc.o
 *fill*         0x20000c31        0x3 
 .bss.g_bsp_group_irq_sources
                0x20000c34       0x40 ./ra/fsp/src/bsp/mcu/all/bsp_group_irq.o
 .bss.g_protect_counters
                0x20000c74        0x8 ./ra/fsp/src/bsp/mcu/all/bsp_register_protection.o
 .bss.current_heap_end.24622
                0x20000c7c        0x4 ./ra/fsp/src/bsp/mcu/all/bsp_sbrk.o
 .bss.SystemCoreClock
                0x20000c80        0x4 ./ra/fsp/src/bsp/cmsis/Device/RENESAS/Source/system.o
                0x20000c80                SystemCoreClock
 .bss.msClockTime
                0x20000c84        0x4 ./mlos/os/mlos_clock.o
                0x20000c84                msClockTime
 .bss.sysRealTime
                0x20000c88        0x8 ./mlos/os/mlos_clock.o
                0x20000c88                sysRealTime
 .bss.memBlockList
                0x20000c90        0xc ./mlos/os/mlos_malloc.o
 .bss.lastTime.27935
                0x20000c9c        0x4 ./mlos/os/mlos_rtimer.o
 .bss.toolDebugConnected
                0x20000ca0        0x1 ./mllib/tool/tool_debug.o
                0x20000ca0                toolDebugConnected
 *fill*         0x20000ca1        0x3 
 .bss.toolDebugPrintEnable
                0x20000ca4        0x4 ./mllib/tool/tool_debug.o
                0x20000ca4                toolDebugPrintEnable
 .bss.mcuFlashEvent
                0x20000ca8        0x4 ./mllib/mlflash/mcuflash/RA6M4/mcu_flash.o
                0x20000ca8                mcuFlashEvent
 .bss.pDSTask   0x20000cac        0x4 ./mllib/dataStorage/ds.o
                0x20000cac                pDSTask
 .bss.curCachePageLineOffset
                0x20000cb0        0x1 ./mllib/dataStorage/ds_log.o
                0x20000cb0                curCachePageLineOffset
 *fill*         0x20000cb1        0x3 
 .bss.logfile   0x20000cb4        0x4 ./mllib/dataStorage/ds_log.o
                0x20000cb4                logfile
 .bss.pLogQue   0x20000cb8        0x4 ./mllib/dataStorage/ds_log.o
                0x20000cb8                pLogQue
 .bss.pTrayCacheQue
                0x20000cbc       0x10 ./mllib/dataStorage/ds_tray.o
                0x20000cbc                pTrayCacheQue
 .bss.trayUsedNum
                0x20000ccc        0x1 ./mllib/dataStorage/ds_tray.o
                0x20000ccc                trayUsedNum
 *fill*         0x20000ccd        0x3 
 .bss.pCANRxQue
                0x20000cd0        0x8 ./mllib/ctp/ra6m4/ctp_can_driver.o
                0x20000cd0                pCANRxQue
 .bss.txCompletedFlag
                0x20000cd8        0x2 ./mllib/ctp/ra6m4/ctp_can_driver.o
                0x20000cd8                txCompletedFlag
 *fill*         0x20000cda        0x2 
 .bss.__malloc_free_list
                0x20000cdc        0x4 c:/renesas/ra/e2studio_v2021-04_fsp_v3.0.0/toolchains/gcc_arm/9_2020q2/bin/../lib/gcc/arm-none-eabi/9.3.1/../../../../arm-none-eabi/lib/thumb/v8-m.main+fp/hard\libg_nano.a(lib_a-nano-mallocr.o)
                0x20000cdc                __malloc_free_list
 .bss.__malloc_sbrk_start
                0x20000ce0        0x4 c:/renesas/ra/e2studio_v2021-04_fsp_v3.0.0/toolchains/gcc_arm/9_2020q2/bin/../lib/gcc/arm-none-eabi/9.3.1/../../../../arm-none-eabi/lib/thumb/v8-m.main+fp/hard\libg_nano.a(lib_a-nano-mallocr.o)
                0x20000ce0                __malloc_sbrk_start
 *(COMMON)
 COMMON         0x20000ce4        0x8 ./tray/box.o
                0x20000ce4                gBoxMsgBufTx
                0x20000ce8                gCanMgr
 COMMON         0x20000cec        0x4 ./tray/channel.o
                0x20000cec                gChnMgr
 COMMON         0x20000cf0        0x4 ./tray/entry.o
                0x20000cf0                gDevMgr
 COMMON         0x20000cf4        0x4 ./tray/flow.o
                0x20000cf4                gFlowCb
 COMMON         0x20000cf8        0x8 ./tray/func.o
                0x20000cf8                gMemFamily
 COMMON         0x20000d00       0x10 ./tray/host.o
                0x20000d00                gAbsTimeSec
                0x20000d04                gUpItfCb
                0x20000d08                recvUpBuf
                0x20000d0c                sendUpBuf
 COMMON         0x20000d10        0x4 ./tray/log.o
                0x20000d10                gLogBuf
 COMMON         0x20000d14       0x14 ./tray/pb.o
                0x20000d14                prsBed
 COMMON         0x20000d28        0x8 ./tray/plc.o
                0x20000d28                gPlcSendBuf
                0x20000d2c                gPlcMgr
 COMMON         0x20000d30        0x4 ./tray/timer.o
                0x20000d30                gTimerMgr
 COMMON         0x20000d34        0x4 ./tray/tray_bl.o
                0x20000d34                trayBl
 COMMON         0x20000d38        0x8 ./tray/uart.o
                0x20000d38                gUartSendBuf
                0x20000d3c                gUartMgr
 COMMON         0x20000d40        0x8 ./ra_gen/common_data.o
                0x20000d40                g_ioport_ctrl
 COMMON         0x20000d48      0x1b4 ./ra_gen/hal_data.o
                0x20000d48                g_qspi0_ctrl
                0x20000d58                g_can1_ctrl
                0x20000d80                g_cssdSpi_ctrl
                0x20000db0                g_mcuflash_ctrl
                0x20000df4                g_can0_ctrl
                0x20000e1c                g_w5500spi_ctrl
                0x20000e4c                g_transfer0_ctrl
                0x20000e54                g_mlosClockTimer_ctrl
                0x20000e74                g_mlosTaskElapsedTimer_ctrl
                0x20000e94                g_transfer1_ctrl
                0x20000e9c                g_uart1_ctrl
                0x20000ecc                g_uart0_ctrl
 COMMON         0x20000efc        0x4 ./ra/fsp/src/bsp/mcu/all/bsp_io.o
                0x20000efc                g_protect_pfswe_counter
 COMMON         0x20000f00      0x180 ./ra/fsp/src/bsp/mcu/all/bsp_irq.o
                0x20000f00                gp_renesas_isr_context
 COMMON         0x20001080       0x14 ./public/u_led.o
                0x20001080                led
 COMMON         0x20001094      0x40c ./mlos/services/mlos_log.o
                0x20001094                log
 COMMON         0x200014a0      0x4c4 ./mlos/services/mlos_shell.o
                0x200014a0                shell
 COMMON         0x20001964    0x10028 ./mlos/port/RA6M4/mlos_port.o
                0x20001964                memblock1
                0x20001978                sram1
                0x20011978                memblock2
 COMMON         0x2001198c       0x18 ./mlos/os/mlos.o
                0x2001198c                mlos
 COMMON         0x200119a4        0xc ./mlos/os/mlos_rtimer.o
                0x200119a4                pRtimerTask
                0x200119a8                pCurTmrList
                0x200119ac                pOvfTmrList
 COMMON         0x200119b0       0x8c ./mlos/os/mlos_task.o
                0x200119b0                pCurTaskgroup
                0x200119b4                lastSecondStatisticsTime
                0x200119b8                taskgroup
                0x20011a30                suspendTaskList
 COMMON         0x20011a3c       0x4c ./mllib/utp/utp.o
                0x20011a3c                utp
 COMMON         0x20011a88       0x14 ./mllib/upper/upper_ntp.o
                0x20011a88                upperNtp
 COMMON         0x20011a9c       0x10 ./mllib/tool/tool.o
                0x20011a9c                toolNtp
 COMMON         0x20011aac        0x4 ./mllib/tool/tool_debug.o
                0x20011aac                pOsinfoPrintTimer
 COMMON         0x20011ab0        0x4 ./mllib/ntp/w5500/ra6m4/ntp_w5500_spi_driver.o
                0x20011ab0                w5500spievent
 COMMON         0x20011ab4       0x24 ./mllib/ntp/w5500/ntp_w5500.o
                0x20011ab4                w5500
 COMMON         0x20011ad8        0x4 ./mllib/mlflash/cssdcard/RA6M4/cs_sd_spi_driver.o
                0x20011ad8                cssdSpievent
 *fill*         0x20011adc        0x4 
 COMMON         0x20011ae0      0x460 ./mllib/mlflash/cssdcard/cs_sdcard.o
                0x20011ae0                cardinfo
                0x20011b38                cssd
 COMMON         0x20011f40        0x4 ./mllib/dataStorage/ds.o
                0x20011f40                pDSTestTimer
 COMMON         0x20011f44      0x200 ./mllib/dataStorage/ds_file.o
                0x20011f44                dsfPageBuf
 COMMON         0x20012144      0x800 ./mllib/dataStorage/ds_log.o
                0x20012144                logCachePages
 COMMON         0x20012944       0x90 ./mllib/dataStorage/ds_tray.o
                0x20012944                trayFile
                0x20012954                trayDiskCache
 COMMON         0x200129d4     0x1c60 ./mllib/ctp/ctp.o
                0x200129d4                can2TxfrmBuf
                0x20012fd4                can2RxfrmBuf
                0x200135d4                can1RxfrmBuf
                0x20013bd4                ctp
                0x20013c1c                can1TxfrmBuf
                0x2001421c                ctpTxbuf
 COMMON         0x20014634        0x4 c:/renesas/ra/e2studio_v2021-04_fsp_v3.0.0/toolchains/gcc_arm/9_2020q2/bin/../lib/gcc/arm-none-eabi/9.3.1/../../../../arm-none-eabi/lib/thumb/v8-m.main+fp/hard\libg_nano.a(lib_a-reent.o)
                0x20014634                errno
 COMMON         0x20014638        0x9 c:/renesas/ra/e2studio_v2021-04_fsp_v3.0.0/toolchains/gcc_arm/9_2020q2/bin/../lib/gcc/arm-none-eabi/9.3.1/../../../../arm-none-eabi/lib/thumb/v8-m.main+fp/hard\libg_nano.a(lib_a-lock.o)
                0x20014638                __lock___atexit_recursive_mutex
                0x20014639                __lock___arc4random_mutex
                0x2001463a                __lock___env_recursive_mutex
                0x2001463b                __lock___sinit_recursive_mutex
                0x2001463c                __lock___malloc_recursive_mutex
                0x2001463d                __lock___at_quick_exit_mutex
                0x2001463e                __lock___dd_hash_mutex
                0x2001463f                __lock___tz_mutex
                0x20014640                __lock___sfp_recursive_mutex
                0x20014644                . = ALIGN (0x4)
 *fill*         0x20014641        0x3 
                0x20014644                __bss_end__ = .

.heap           0x20014644        0x4
                0x20014648                . = ALIGN (0x8)
 *fill*         0x20014644        0x4 
                0x20014648                __HeapBase = .
 *(.heap)
                0x20014648                __HeapLimit = .

.stack_dummy    0x20014648      0x400
                0x20014648                . = ALIGN (0x8)
                0x20014648                __StackLimit = .
 *(.stack)
 .stack         0x20014648      0x400 ./ra/fsp/src/bsp/cmsis/Device/RENESAS/Source/startup.o
                0x20014a48                __StackTop = .
 *(.stack*)
                0x20014a48                __StackTopAll = .
                0x20014a48                PROVIDE (__stack = __StackTopAll)
                0x20014a48                __RAM_segment_used_end__ = ALIGN (__StackTopAll, 0x4)
                0x20014c00                __tz_RAM_C = DEFINED (RAM_NSC_START)?ABSOLUTE (RAM_NSC_START):__RESERVE_NS_RAM?ABSOLUTE (RAM_NS_BUFFER_BLOCK_START):ALIGN (__RAM_segment_used_end__, 0x400)
                0x20016000                __tz_RAM_N = DEFINED (RAM_NS_START)?ABSOLUTE (RAM_NS_START):__RESERVE_NS_RAM?ABSOLUTE (RAM_NS_BUFFER_BLOCK_START):ALIGN (__tz_RAM_C, 0x2000)

.ns_buffer      0x20014a48        0x0
                0x20014a48                . = __RESERVE_NS_RAM?ABSOLUTE ((RAM_NS_BUFFER_START & 0xffffffe0)):.
 *(.ns_buffer*)

.data_flash     0x08000000        0x0
                0x08000000                . = ORIGIN (DATA_FLASH)
                0x08000000                __tz_DATA_FLASH_S = .
                0x08000000                __Data_Flash_Start = .
 *(.data_flash*)
                0x08000000                __Data_Flash_End = .
                0x08000000                __tz_DATA_FLASH_N = DEFINED (DATA_FLASH_NS_START)?ABSOLUTE (DATA_FLASH_NS_START):__RESERVE_NS_RAM?ABSOLUTE ((DATA_FLASH_START + DATA_FLASH_LENGTH)):ALIGN (0x400)
                0x90000000                __tz_SDRAM_S = ORIGIN (SDRAM)

.sdram          0x90000000        0x0
                0x90000000                __SDRAM_Start = .
 *(.sdram*)
 *(.frame*)
                0x90000000                __SDRAM_End = .
                0x90000000                __tz_SDRAM_N = __SDRAM_End
                0x00000000                __tz_ID_CODE_S = ORIGIN (ID_CODE)

.id_code        0x00000000        0x0
                0x00000000                __ID_Code_Start = .
 *(.id_code*)
                0x00000000                __ID_Code_End = .
                0x00000000                __tz_ID_CODE_N = __ID_Code_End
                0x0100a100                __tz_OPTION_SETTING_S = ORIGIN (OPTION_SETTING)

.option_setting
                0x0100a100       0x38
                0x0100a100                __OPTION_SETTING_Start = .
 *(.option_setting_ofs0)
 .option_setting_ofs0
                0x0100a100        0x4 ./ra/fsp/src/bsp/mcu/all/bsp_rom_registers.o
                0x0100a110                . = PROJECT_SECURE_OR_FLAT?(__OPTION_SETTING_Start + 0x10):__OPTION_SETTING_Start
 *fill*         0x0100a104        0xc ff
 *(.option_setting_dualsel)
 .option_setting_dualsel
                0x0100a110        0x4 ./ra/fsp/src/bsp/mcu/all/bsp_rom_registers.o
                0x0100a134                . = PROJECT_SECURE_OR_FLAT?(__OPTION_SETTING_Start + 0x34):__OPTION_SETTING_Start
 *fill*         0x0100a114       0x20 ff
 *(.option_setting_sas)
 .option_setting_sas
                0x0100a134        0x4 ./ra/fsp/src/bsp/mcu/all/bsp_rom_registers.o
                0x0100a138                __OPTION_SETTING_End = .
                0x0100a180                __tz_OPTION_SETTING_N = OPTION_SETTING_START_NS

.option_setting_ns
                0x0100a138        0x0
                0x0100a138                __OPTION_SETTING_NS_Start = .
 *(.option_setting_ofs1)
                0x0100a138                . = USE_OPTION_SETTING_NS?(__OPTION_SETTING_NS_Start + 0x10):__OPTION_SETTING_NS_Start
 *(.option_setting_banksel)
                0x0100a138                . = USE_OPTION_SETTING_NS?(__OPTION_SETTING_NS_Start + 0x40):__OPTION_SETTING_NS_Start
 *(.option_setting_bps0)
                0x0100a138                . = USE_OPTION_SETTING_NS?(__OPTION_SETTING_NS_Start + 0x44):__OPTION_SETTING_NS_Start
 *(.option_setting_bps1)
                0x0100a138                . = USE_OPTION_SETTING_NS?(__OPTION_SETTING_NS_Start + 0x48):__OPTION_SETTING_NS_Start
 *(.option_setting_bps2)
                0x0100a138                . = USE_OPTION_SETTING_NS?(__OPTION_SETTING_NS_Start + 0x60):__OPTION_SETTING_NS_Start
 *(.option_setting_pbps0)
                0x0100a138                . = USE_OPTION_SETTING_NS?(__OPTION_SETTING_NS_Start + 0x64):__OPTION_SETTING_NS_Start
 *(.option_setting_pbps1)
                0x0100a138                . = USE_OPTION_SETTING_NS?(__OPTION_SETTING_NS_Start + 0x68):__OPTION_SETTING_NS_Start
 *(.option_setting_pbps2)
                0x0100a138                __OPTION_SETTING_NS_End = .
                0x0100a200                __tz_OPTION_SETTING_S_S = ORIGIN (OPTION_SETTING_S)

.option_setting_s
                0x0100a200       0xcc
                0x0100a200                __OPTION_SETTING_S_Start = .
 *(.option_setting_ofs1_sec)
 .option_setting_ofs1_sec
                0x0100a200        0x4 ./ra/fsp/src/bsp/mcu/all/bsp_rom_registers.o
                0x0100a210                . = PROJECT_SECURE_OR_FLAT?(__OPTION_SETTING_S_Start + 0x10):__OPTION_SETTING_S_Start
 *fill*         0x0100a204        0xc ff
 *(.option_setting_banksel_sec)
 .option_setting_banksel_sec
                0x0100a210        0x4 ./ra/fsp/src/bsp/mcu/all/bsp_rom_registers.o
                0x0100a240                . = PROJECT_SECURE_OR_FLAT?(__OPTION_SETTING_S_Start + 0x40):__OPTION_SETTING_S_Start
 *fill*         0x0100a214       0x2c ff
 *(.option_setting_bps_sec0)
 .option_setting_bps_sec0
                0x0100a240        0x4 ./ra/fsp/src/bsp/mcu/all/bsp_rom_registers.o
                0x0100a244                . = PROJECT_SECURE_OR_FLAT?(__OPTION_SETTING_S_Start + 0x44):__OPTION_SETTING_S_Start
 *(.option_setting_bps_sec1)
 .option_setting_bps_sec1
                0x0100a244        0x4 ./ra/fsp/src/bsp/mcu/all/bsp_rom_registers.o
                0x0100a248                . = PROJECT_SECURE_OR_FLAT?(__OPTION_SETTING_S_Start + 0x48):__OPTION_SETTING_S_Start
 *(.option_setting_bps_sec2)
 .option_setting_bps_sec2
                0x0100a248        0x4 ./ra/fsp/src/bsp/mcu/all/bsp_rom_registers.o
                0x0100a260                . = PROJECT_SECURE_OR_FLAT?(__OPTION_SETTING_S_Start + 0x60):__OPTION_SETTING_S_Start
 *fill*         0x0100a24c       0x14 ff
 *(.option_setting_pbps_sec0)
 .option_setting_pbps_sec0
                0x0100a260        0x4 ./ra/fsp/src/bsp/mcu/all/bsp_rom_registers.o
                0x0100a264                . = PROJECT_SECURE_OR_FLAT?(__OPTION_SETTING_S_Start + 0x64):__OPTION_SETTING_S_Start
 *(.option_setting_pbps_sec1)
 .option_setting_pbps_sec1
                0x0100a264        0x4 ./ra/fsp/src/bsp/mcu/all/bsp_rom_registers.o
                0x0100a268                . = PROJECT_SECURE_OR_FLAT?(__OPTION_SETTING_S_Start + 0x68):__OPTION_SETTING_S_Start
 *(.option_setting_pbps_sec2)
 .option_setting_pbps_sec2
                0x0100a268        0x4 ./ra/fsp/src/bsp/mcu/all/bsp_rom_registers.o
                0x0100a280                . = PROJECT_SECURE_OR_FLAT?(__OPTION_SETTING_S_Start + 0x80):__OPTION_SETTING_S_Start
 *fill*         0x0100a26c       0x14 ff
 *(.option_setting_ofs1_sel)
 .option_setting_ofs1_sel
                0x0100a280        0x4 ./ra/fsp/src/bsp/mcu/all/bsp_rom_registers.o
                0x0100a290                . = PROJECT_SECURE_OR_FLAT?(__OPTION_SETTING_S_Start + 0x90):__OPTION_SETTING_S_Start
 *fill*         0x0100a284        0xc ff
 *(.option_setting_banksel_sel)
 .option_setting_banksel_sel
                0x0100a290        0x4 ./ra/fsp/src/bsp/mcu/all/bsp_rom_registers.o
                0x0100a2c0                . = PROJECT_SECURE_OR_FLAT?(__OPTION_SETTING_S_Start + 0xc0):__OPTION_SETTING_S_Start
 *fill*         0x0100a294       0x2c ff
 *(.option_setting_bps_sel0)
 .option_setting_bps_sel0
                0x0100a2c0        0x4 ./ra/fsp/src/bsp/mcu/all/bsp_rom_registers.o
                0x0100a2c4                . = PROJECT_SECURE_OR_FLAT?(__OPTION_SETTING_S_Start + 0xc4):__OPTION_SETTING_S_Start
 *(.option_setting_bps_sel1)
 .option_setting_bps_sel1
                0x0100a2c4        0x4 ./ra/fsp/src/bsp/mcu/all/bsp_rom_registers.o
                0x0100a2c8                . = PROJECT_SECURE_OR_FLAT?(__OPTION_SETTING_S_Start + 0xc8):__OPTION_SETTING_S_Start
 *(.option_setting_bps_sel2)
 .option_setting_bps_sel2
                0x0100a2c8        0x4 ./ra/fsp/src/bsp/mcu/all/bsp_rom_registers.o
                0x0100a2cc                __OPTION_SETTING_S_End = .
                0x0100a2cc                __tz_OPTION_SETTING_S_N = __OPTION_SETTING_S_End
OUTPUT(mc_r7fa6m4.elf elf32-littlearm)
LOAD linker stubs

.rel.dyn        0x0100a2cc        0x0
 .rel.iplt      0x0100a2cc        0x0 c:/renesas/ra/e2studio_v2021-04_fsp_v3.0.0/toolchains/gcc_arm/9_2020q2/bin/../lib/gcc/arm-none-eabi/9.3.1/thumb/v8-m.main+fp/hard/crtbegin.o

.ARM.attributes
                0x00000000       0x36
 .ARM.attributes
                0x00000000       0x22 c:/renesas/ra/e2studio_v2021-04_fsp_v3.0.0/toolchains/gcc_arm/9_2020q2/bin/../lib/gcc/arm-none-eabi/9.3.1/thumb/v8-m.main+fp/hard/crti.o
 .ARM.attributes
                0x00000022       0x38 c:/renesas/ra/e2studio_v2021-04_fsp_v3.0.0/toolchains/gcc_arm/9_2020q2/bin/../lib/gcc/arm-none-eabi/9.3.1/thumb/v8-m.main+fp/hard/crtbegin.o
 .ARM.attributes
                0x0000005a       0x3a ./tray/alarm_drive.o
 .ARM.attributes
                0x00000094       0x3a ./tray/alarm_led.o
 .ARM.attributes
                0x000000ce       0x3a ./tray/box.o
 .ARM.attributes
                0x00000108       0x3a ./tray/channel.o
 .ARM.attributes
                0x00000142       0x3a ./tray/entry.o
 .ARM.attributes
                0x0000017c       0x3a ./tray/flow.o
 .ARM.attributes
                0x000001b6       0x3a ./tray/func.o
 .ARM.attributes
                0x000001f0       0x3a ./tray/host.o
 .ARM.attributes
                0x0000022a       0x3a ./tray/log.o
 .ARM.attributes
                0x00000264       0x3a ./tray/pb.o
 .ARM.attributes
                0x0000029e       0x3a ./tray/plc.o
 .ARM.attributes
                0x000002d8       0x3a ./tray/protect.o
 .ARM.attributes
                0x00000312       0x3a ./tray/timer.o
 .ARM.attributes
                0x0000034c       0x3a ./tray/tray.o
 .ARM.attributes
                0x00000386       0x3a ./tray/tray_bl.o
 .ARM.attributes
                0x000003c0       0x3a ./tray/uart.o
 .ARM.attributes
                0x000003fa       0x3a ./src/hal_entry.o
 .ARM.attributes
                0x00000434       0x3a ./ra_gen/common_data.o
 .ARM.attributes
                0x0000046e       0x3a ./ra_gen/hal_data.o
 .ARM.attributes
                0x000004a8       0x3a ./ra_gen/main.o
 .ARM.attributes
                0x000004e2       0x3c ./ra_gen/pin_data.o
 .ARM.attributes
                0x0000051e       0x3c ./ra_gen/vector_data.o
 .ARM.attributes
                0x0000055a       0x3a ./ra/fsp/src/r_spi/r_spi.o
 .ARM.attributes
                0x00000594       0x3a ./ra/fsp/src/r_sci_uart/r_sci_uart.o
 .ARM.attributes
                0x000005ce       0x3a ./ra/fsp/src/r_ioport/r_ioport.o
 .ARM.attributes
                0x00000608       0x3a ./ra/fsp/src/r_gpt/r_gpt.o
 .ARM.attributes
                0x00000642       0x3a ./ra/fsp/src/r_flash_hp/r_flash_hp.o
 .ARM.attributes
                0x0000067c       0x3a ./ra/fsp/src/r_dtc/r_dtc.o
 .ARM.attributes
                0x000006b6       0x3a ./ra/fsp/src/r_can/r_can.o
 .ARM.attributes
                0x000006f0       0x3a ./ra/fsp/src/bsp/mcu/all/bsp_clocks.o
 .ARM.attributes
                0x0000072a       0x3a ./ra/fsp/src/bsp/mcu/all/bsp_common.o
 .ARM.attributes
                0x00000764       0x3a ./ra/fsp/src/bsp/mcu/all/bsp_group_irq.o
 .ARM.attributes
                0x0000079e       0x3c ./ra/fsp/src/bsp/mcu/all/bsp_io.o
 .ARM.attributes
                0x000007da       0x3a ./ra/fsp/src/bsp/mcu/all/bsp_irq.o
 .ARM.attributes
                0x00000814       0x3a ./ra/fsp/src/bsp/mcu/all/bsp_register_protection.o
 .ARM.attributes
                0x0000084e       0x3c ./ra/fsp/src/bsp/mcu/all/bsp_rom_registers.o
 .ARM.attributes
                0x0000088a       0x3a ./ra/fsp/src/bsp/mcu/all/bsp_sbrk.o
 .ARM.attributes
                0x000008c4       0x3a ./ra/fsp/src/bsp/cmsis/Device/RENESAS/Source/startup.o
 .ARM.attributes
                0x000008fe       0x3a ./ra/fsp/src/bsp/cmsis/Device/RENESAS/Source/system.o
 .ARM.attributes
                0x00000938       0x3a ./public/u_led.o
 .ARM.attributes
                0x00000972       0x3a ./public/u_setting.o
 .ARM.attributes
                0x000009ac       0x3a ./mlos/services/mlos_log.o
 .ARM.attributes
                0x000009e6       0x3a ./mlos/services/mlos_shell.o
 .ARM.attributes
                0x00000a20       0x3a ./mlos/port/RA6M4/mlos_port.o
 .ARM.attributes
                0x00000a5a       0x3a ./mlos/os/mlos.o
 .ARM.attributes
                0x00000a94       0x3a ./mlos/os/mlos_clock.o
 .ARM.attributes
                0x00000ace       0x3a ./mlos/os/mlos_list.o
 .ARM.attributes
                0x00000b08       0x3a ./mlos/os/mlos_ltimer.o
 .ARM.attributes
                0x00000b42       0x3a ./mlos/os/mlos_malloc.o
 .ARM.attributes
                0x00000b7c       0x3a ./mlos/os/mlos_mpump.o
 .ARM.attributes
                0x00000bb6       0x3a ./mlos/os/mlos_que.o
 .ARM.attributes
                0x00000bf0       0x3a ./mlos/os/mlos_rtimer.o
 .ARM.attributes
                0x00000c2a       0x3a ./mlos/os/mlos_task.o
 .ARM.attributes
                0x00000c64       0x3a ./mllib/utp/ra6m4/utp_uart_driver.o
 .ARM.attributes
                0x00000c9e       0x3a ./mllib/utp/public.o
 .ARM.attributes
                0x00000cd8       0x3a ./mllib/utp/utp.o
 .ARM.attributes
                0x00000d12       0x3a ./mllib/upper/upper_ntp.o
 .ARM.attributes
                0x00000d4c       0x3a ./mllib/tool/tool.o
 .ARM.attributes
                0x00000d86       0x3a ./mllib/tool/tool_debug.o
 .ARM.attributes
                0x00000dc0       0x3a ./mllib/tool/tool_ds.o
 .ARM.attributes
                0x00000dfa       0x3a ./mllib/tool/tool_iap.o
 .ARM.attributes
                0x00000e34       0x3a ./mllib/tool/tool_setting.o
 .ARM.attributes
                0x00000e6e       0x3a ./mllib/ntp/w5500/ra6m4/ntp_w5500_spi_driver.o
 .ARM.attributes
                0x00000ea8       0x3a ./mllib/ntp/w5500/ntp_w5500.o
 .ARM.attributes
                0x00000ee2       0x3a ./mllib/ntp/ntp.o
 .ARM.attributes
                0x00000f1c       0x3a ./mllib/ntp/ntp_usocket.o
 .ARM.attributes
                0x00000f56       0x3a ./mllib/mlflash/mcuflash/RA6M4/mcu_flash.o
 .ARM.attributes
                0x00000f90       0x3a ./mllib/mlflash/cssdcard/RA6M4/cs_sd_spi_driver.o
 .ARM.attributes
                0x00000fca       0x3a ./mllib/mlflash/cssdcard/cs_sdcard.o
 .ARM.attributes
                0x00001004       0x3a ./mllib/iap/RA6M4/iap_mcu_port.o
 .ARM.attributes
                0x0000103e       0x3a ./mllib/iap/iap.o
 .ARM.attributes
                0x00001078       0x3a ./mllib/dataStorage/ds.o
 .ARM.attributes
                0x000010b2       0x3a ./mllib/dataStorage/ds_file.o
 .ARM.attributes
                0x000010ec       0x3a ./mllib/dataStorage/ds_log.o
 .ARM.attributes
                0x00001126       0x3a ./mllib/dataStorage/ds_tray.o
 .ARM.attributes
                0x00001160       0x3a ./mllib/ctp/ra6m4/ctp_can_driver.o
 .ARM.attributes
                0x0000119a       0x3a ./mllib/ctp/ctp.o
 .ARM.attributes
                0x000011d4       0x3a ./app/u_app.o
 .ARM.attributes
                0x0000120e       0x38 c:/renesas/ra/e2studio_v2021-04_fsp_v3.0.0/toolchains/gcc_arm/9_2020q2/bin/../lib/gcc/arm-none-eabi/9.3.1/../../../../arm-none-eabi/lib/thumb/v8-m.main+fp/hard\libg_nano.a(lib_a-errno.o)
 .ARM.attributes
                0x00001246       0x36 c:/renesas/ra/e2studio_v2021-04_fsp_v3.0.0/toolchains/gcc_arm/9_2020q2/bin/../lib/gcc/arm-none-eabi/9.3.1/../../../../arm-none-eabi/lib/thumb/v8-m.main+fp/hard\libg_nano.a(lib_a-impure.o)
 .ARM.attributes
                0x0000127c       0x38 c:/renesas/ra/e2studio_v2021-04_fsp_v3.0.0/toolchains/gcc_arm/9_2020q2/bin/../lib/gcc/arm-none-eabi/9.3.1/../../../../arm-none-eabi/lib/thumb/v8-m.main+fp/hard\libg_nano.a(lib_a-memcmp.o)
 .ARM.attributes
                0x000012b4       0x38 c:/renesas/ra/e2studio_v2021-04_fsp_v3.0.0/toolchains/gcc_arm/9_2020q2/bin/../lib/gcc/arm-none-eabi/9.3.1/../../../../arm-none-eabi/lib/thumb/v8-m.main+fp/hard\libg_nano.a(lib_a-memcpy-stub.o)
 .ARM.attributes
                0x000012ec       0x38 c:/renesas/ra/e2studio_v2021-04_fsp_v3.0.0/toolchains/gcc_arm/9_2020q2/bin/../lib/gcc/arm-none-eabi/9.3.1/../../../../arm-none-eabi/lib/thumb/v8-m.main+fp/hard\libg_nano.a(lib_a-memset.o)
 .ARM.attributes
                0x00001324       0x38 c:/renesas/ra/e2studio_v2021-04_fsp_v3.0.0/toolchains/gcc_arm/9_2020q2/bin/../lib/gcc/arm-none-eabi/9.3.1/../../../../arm-none-eabi/lib/thumb/v8-m.main+fp/hard\libg_nano.a(lib_a-sprintf.o)
 .ARM.attributes
                0x0000135c       0x20 c:/renesas/ra/e2studio_v2021-04_fsp_v3.0.0/toolchains/gcc_arm/9_2020q2/bin/../lib/gcc/arm-none-eabi/9.3.1/../../../../arm-none-eabi/lib/thumb/v8-m.main+fp/hard\libg_nano.a(lib_a-strcmp.o)
 .ARM.attributes
                0x0000137c       0x38 c:/renesas/ra/e2studio_v2021-04_fsp_v3.0.0/toolchains/gcc_arm/9_2020q2/bin/../lib/gcc/arm-none-eabi/9.3.1/../../../../arm-none-eabi/lib/thumb/v8-m.main+fp/hard\libg_nano.a(lib_a-strcpy.o)
 .ARM.attributes
                0x000013b4       0x17 c:/renesas/ra/e2studio_v2021-04_fsp_v3.0.0/toolchains/gcc_arm/9_2020q2/bin/../lib/gcc/arm-none-eabi/9.3.1/../../../../arm-none-eabi/lib/thumb/v8-m.main+fp/hard\libg_nano.a(lib_a-strlen.o)
 .ARM.attributes
                0x000013cb       0x38 c:/renesas/ra/e2studio_v2021-04_fsp_v3.0.0/toolchains/gcc_arm/9_2020q2/bin/../lib/gcc/arm-none-eabi/9.3.1/../../../../arm-none-eabi/lib/thumb/v8-m.main+fp/hard\libg_nano.a(lib_a-vsnprintf.o)
 .ARM.attributes
                0x00001403       0x38 c:/renesas/ra/e2studio_v2021-04_fsp_v3.0.0/toolchains/gcc_arm/9_2020q2/bin/../lib/gcc/arm-none-eabi/9.3.1/../../../../arm-none-eabi/lib/thumb/v8-m.main+fp/hard\libg_nano.a(lib_a-vsprintf.o)
 .ARM.attributes
                0x0000143b       0x38 c:/renesas/ra/e2studio_v2021-04_fsp_v3.0.0/toolchains/gcc_arm/9_2020q2/bin/../lib/gcc/arm-none-eabi/9.3.1/../../../../arm-none-eabi/lib/thumb/v8-m.main+fp/hard\libg_nano.a(lib_a-nano-svfprintf.o)
 .ARM.attributes
                0x00001473       0x38 c:/renesas/ra/e2studio_v2021-04_fsp_v3.0.0/toolchains/gcc_arm/9_2020q2/bin/../lib/gcc/arm-none-eabi/9.3.1/../../../../arm-none-eabi/lib/thumb/v8-m.main+fp/hard\libg_nano.a(lib_a-nano-vfprintf_i.o)
 .ARM.attributes
                0x000014ab       0x38 c:/renesas/ra/e2studio_v2021-04_fsp_v3.0.0/toolchains/gcc_arm/9_2020q2/bin/../lib/gcc/arm-none-eabi/9.3.1/../../../../arm-none-eabi/lib/thumb/v8-m.main+fp/hard\libg_nano.a(lib_a-memchr-stub.o)
 .ARM.attributes
                0x000014e3       0x38 c:/renesas/ra/e2studio_v2021-04_fsp_v3.0.0/toolchains/gcc_arm/9_2020q2/bin/../lib/gcc/arm-none-eabi/9.3.1/../../../../arm-none-eabi/lib/thumb/v8-m.main+fp/hard\libg_nano.a(lib_a-memmove.o)
 .ARM.attributes
                0x0000151b       0x38 c:/renesas/ra/e2studio_v2021-04_fsp_v3.0.0/toolchains/gcc_arm/9_2020q2/bin/../lib/gcc/arm-none-eabi/9.3.1/../../../../arm-none-eabi/lib/thumb/v8-m.main+fp/hard\libg_nano.a(lib_a-nano-freer.o)
 .ARM.attributes
                0x00001553       0x38 c:/renesas/ra/e2studio_v2021-04_fsp_v3.0.0/toolchains/gcc_arm/9_2020q2/bin/../lib/gcc/arm-none-eabi/9.3.1/../../../../arm-none-eabi/lib/thumb/v8-m.main+fp/hard\libg_nano.a(lib_a-nano-mallocr.o)
 .ARM.attributes
                0x0000158b       0x38 c:/renesas/ra/e2studio_v2021-04_fsp_v3.0.0/toolchains/gcc_arm/9_2020q2/bin/../lib/gcc/arm-none-eabi/9.3.1/../../../../arm-none-eabi/lib/thumb/v8-m.main+fp/hard\libg_nano.a(lib_a-nano-reallocr.o)
 .ARM.attributes
                0x000015c3       0x38 c:/renesas/ra/e2studio_v2021-04_fsp_v3.0.0/toolchains/gcc_arm/9_2020q2/bin/../lib/gcc/arm-none-eabi/9.3.1/../../../../arm-none-eabi/lib/thumb/v8-m.main+fp/hard\libg_nano.a(lib_a-sbrkr.o)
 .ARM.attributes
                0x000015fb       0x38 c:/renesas/ra/e2studio_v2021-04_fsp_v3.0.0/toolchains/gcc_arm/9_2020q2/bin/../lib/gcc/arm-none-eabi/9.3.1/../../../../arm-none-eabi/lib/thumb/v8-m.main+fp/hard\libg_nano.a(lib_a-mlock.o)
 .ARM.attributes
                0x00001633       0x38 c:/renesas/ra/e2studio_v2021-04_fsp_v3.0.0/toolchains/gcc_arm/9_2020q2/bin/../lib/gcc/arm-none-eabi/9.3.1/../../../../arm-none-eabi/lib/thumb/v8-m.main+fp/hard\libg_nano.a(lib_a-nano-msizer.o)
 .ARM.attributes
                0x0000166b       0x38 c:/renesas/ra/e2studio_v2021-04_fsp_v3.0.0/toolchains/gcc_arm/9_2020q2/bin/../lib/gcc/arm-none-eabi/9.3.1/../../../../arm-none-eabi/lib/thumb/v8-m.main+fp/hard\libg_nano.a(lib_a-reent.o)
 .ARM.attributes
                0x000016a3       0x38 c:/renesas/ra/e2studio_v2021-04_fsp_v3.0.0/toolchains/gcc_arm/9_2020q2/bin/../lib/gcc/arm-none-eabi/9.3.1/../../../../arm-none-eabi/lib/thumb/v8-m.main+fp/hard\libg_nano.a(lib_a-lock.o)
 .ARM.attributes
                0x000016db       0x38 c:/renesas/ra/e2studio_v2021-04_fsp_v3.0.0/toolchains/gcc_arm/9_2020q2/bin/../lib/gcc/arm-none-eabi/9.3.1/../../../../arm-none-eabi/lib/thumb/v8-m.main+fp/hard\libc_nano.a(lib_a-findfp.o)
 .ARM.attributes
                0x00001713       0x36 c:/renesas/ra/e2studio_v2021-04_fsp_v3.0.0/toolchains/gcc_arm/9_2020q2/bin/../lib/gcc/arm-none-eabi/9.3.1/thumb/v8-m.main+fp/hard/crtend.o
 .ARM.attributes
                0x00001749       0x22 c:/renesas/ra/e2studio_v2021-04_fsp_v3.0.0/toolchains/gcc_arm/9_2020q2/bin/../lib/gcc/arm-none-eabi/9.3.1/thumb/v8-m.main+fp/hard/crtn.o

.comment        0x00000000       0x4c
 .comment       0x00000000       0x4c ./tray/alarm_drive.o
                                 0x4d (size before relaxing)
 .comment       0x0000004c       0x4d ./tray/alarm_led.o
 .comment       0x0000004c       0x4d ./tray/box.o
 .comment       0x0000004c       0x4d ./tray/channel.o
 .comment       0x0000004c       0x4d ./tray/entry.o
 .comment       0x0000004c       0x4d ./tray/flow.o
 .comment       0x0000004c       0x4d ./tray/func.o
 .comment       0x0000004c       0x4d ./tray/host.o
 .comment       0x0000004c       0x4d ./tray/log.o
 .comment       0x0000004c       0x4d ./tray/pb.o
 .comment       0x0000004c       0x4d ./tray/plc.o
 .comment       0x0000004c       0x4d ./tray/protect.o
 .comment       0x0000004c       0x4d ./tray/timer.o
 .comment       0x0000004c       0x4d ./tray/tray.o
 .comment       0x0000004c       0x4d ./tray/tray_bl.o
 .comment       0x0000004c       0x4d ./tray/uart.o
 .comment       0x0000004c       0x4d ./src/hal_entry.o
 .comment       0x0000004c       0x4d ./ra_gen/common_data.o
 .comment       0x0000004c       0x4d ./ra_gen/hal_data.o
 .comment       0x0000004c       0x4d ./ra_gen/main.o
 .comment       0x0000004c       0x4d ./ra_gen/pin_data.o
 .comment       0x0000004c       0x4d ./ra_gen/vector_data.o
 .comment       0x0000004c       0x4d ./ra/fsp/src/r_spi/r_spi.o
 .comment       0x0000004c       0x4d ./ra/fsp/src/r_sci_uart/r_sci_uart.o
 .comment       0x0000004c       0x4d ./ra/fsp/src/r_ioport/r_ioport.o
 .comment       0x0000004c       0x4d ./ra/fsp/src/r_gpt/r_gpt.o
 .comment       0x0000004c       0x4d ./ra/fsp/src/r_flash_hp/r_flash_hp.o
 .comment       0x0000004c       0x4d ./ra/fsp/src/r_dtc/r_dtc.o
 .comment       0x0000004c       0x4d ./ra/fsp/src/r_can/r_can.o
 .comment       0x0000004c       0x4d ./ra/fsp/src/bsp/mcu/all/bsp_clocks.o
 .comment       0x0000004c       0x4d ./ra/fsp/src/bsp/mcu/all/bsp_common.o
 .comment       0x0000004c       0x4d ./ra/fsp/src/bsp/mcu/all/bsp_group_irq.o
 .comment       0x0000004c       0x4d ./ra/fsp/src/bsp/mcu/all/bsp_io.o
 .comment       0x0000004c       0x4d ./ra/fsp/src/bsp/mcu/all/bsp_irq.o
 .comment       0x0000004c       0x4d ./ra/fsp/src/bsp/mcu/all/bsp_register_protection.o
 .comment       0x0000004c       0x4d ./ra/fsp/src/bsp/mcu/all/bsp_rom_registers.o
 .comment       0x0000004c       0x4d ./ra/fsp/src/bsp/mcu/all/bsp_sbrk.o
 .comment       0x0000004c       0x4d ./ra/fsp/src/bsp/cmsis/Device/RENESAS/Source/startup.o
 .comment       0x0000004c       0x4d ./ra/fsp/src/bsp/cmsis/Device/RENESAS/Source/system.o
 .comment       0x0000004c       0x4d ./public/u_led.o
 .comment       0x0000004c       0x4d ./public/u_setting.o
 .comment       0x0000004c       0x4d ./mlos/services/mlos_log.o
 .comment       0x0000004c       0x4d ./mlos/services/mlos_shell.o
 .comment       0x0000004c       0x4d ./mlos/port/RA6M4/mlos_port.o
 .comment       0x0000004c       0x4d ./mlos/os/mlos.o
 .comment       0x0000004c       0x4d ./mlos/os/mlos_clock.o
 .comment       0x0000004c       0x4d ./mlos/os/mlos_list.o
 .comment       0x0000004c       0x4d ./mlos/os/mlos_ltimer.o
 .comment       0x0000004c       0x4d ./mlos/os/mlos_malloc.o
 .comment       0x0000004c       0x4d ./mlos/os/mlos_mpump.o
 .comment       0x0000004c       0x4d ./mlos/os/mlos_que.o
 .comment       0x0000004c       0x4d ./mlos/os/mlos_rtimer.o
 .comment       0x0000004c       0x4d ./mlos/os/mlos_task.o
 .comment       0x0000004c       0x4d ./mllib/utp/ra6m4/utp_uart_driver.o
 .comment       0x0000004c       0x4d ./mllib/utp/public.o
 .comment       0x0000004c       0x4d ./mllib/utp/utp.o
 .comment       0x0000004c       0x4d ./mllib/upper/upper_ntp.o
 .comment       0x0000004c       0x4d ./mllib/tool/tool.o
 .comment       0x0000004c       0x4d ./mllib/tool/tool_debug.o
 .comment       0x0000004c       0x4d ./mllib/tool/tool_ds.o
 .comment       0x0000004c       0x4d ./mllib/tool/tool_iap.o
 .comment       0x0000004c       0x4d ./mllib/tool/tool_setting.o
 .comment       0x0000004c       0x4d ./mllib/ntp/w5500/ra6m4/ntp_w5500_spi_driver.o
 .comment       0x0000004c       0x4d ./mllib/ntp/w5500/ntp_w5500.o
 .comment       0x0000004c       0x4d ./mllib/ntp/ntp.o
 .comment       0x0000004c       0x4d ./mllib/ntp/ntp_usocket.o
 .comment       0x0000004c       0x4d ./mllib/mlflash/mcuflash/RA6M4/mcu_flash.o
 .comment       0x0000004c       0x4d ./mllib/mlflash/cssdcard/RA6M4/cs_sd_spi_driver.o
 .comment       0x0000004c       0x4d ./mllib/mlflash/cssdcard/cs_sdcard.o
 .comment       0x0000004c       0x4d ./mllib/iap/RA6M4/iap_mcu_port.o
 .comment       0x0000004c       0x4d ./mllib/iap/iap.o
 .comment       0x0000004c       0x4d ./mllib/dataStorage/ds.o
 .comment       0x0000004c       0x4d ./mllib/dataStorage/ds_file.o
 .comment       0x0000004c       0x4d ./mllib/dataStorage/ds_log.o
 .comment       0x0000004c       0x4d ./mllib/dataStorage/ds_tray.o
 .comment       0x0000004c       0x4d ./mllib/ctp/ra6m4/ctp_can_driver.o
 .comment       0x0000004c       0x4d ./mllib/ctp/ctp.o
 .comment       0x0000004c       0x4d ./app/u_app.o

.debug_info     0x00000000   0x2a0153
 .debug_info    0x00000000     0x9f81 ./tray/alarm_drive.o
 .debug_info    0x00009f81     0x9e41 ./tray/alarm_led.o
 .debug_info    0x00013dc2     0xf54b ./tray/box.o
 .debug_info    0x0002330d     0x45bb ./tray/channel.o
 .debug_info    0x000278c8     0xd6b8 ./tray/entry.o
 .debug_info    0x00034f80     0x512c ./tray/flow.o
 .debug_info    0x0003a0ac     0x1be8 ./tray/func.o
 .debug_info    0x0003bc94    0x166d1 ./tray/host.o
 .debug_info    0x00052365     0xc471 ./tray/log.o
 .debug_info    0x0005e7d6     0xa48f ./tray/pb.o
 .debug_info    0x00068c65     0xd6cf ./tray/plc.o
 .debug_info    0x00076334    0x10601 ./tray/protect.o
 .debug_info    0x00086935     0xc941 ./tray/timer.o
 .debug_info    0x00093276     0x5530 ./tray/tray.o
 .debug_info    0x000987a6     0xbfc7 ./tray/tray_bl.o
 .debug_info    0x000a476d     0xfa95 ./tray/uart.o
 .debug_info    0x000b4202     0x9db6 ./src/hal_entry.o
 .debug_info    0x000bdfb8     0x1984 ./ra_gen/common_data.o
 .debug_info    0x000bf93c     0xa888 ./ra_gen/hal_data.o
 .debug_info    0x000ca1c4     0x9b88 ./ra_gen/main.o
 .debug_info    0x000d3d4c     0x1138 ./ra_gen/pin_data.o
 .debug_info    0x000d4e84     0x10ea ./ra_gen/vector_data.o
 .debug_info    0x000d5f6e     0x82e0 ./ra/fsp/src/r_spi/r_spi.o
 .debug_info    0x000de24e     0x95ae ./ra/fsp/src/r_sci_uart/r_sci_uart.o
 .debug_info    0x000e77fc     0x6d24 ./ra/fsp/src/r_ioport/r_ioport.o
 .debug_info    0x000ee520     0x931c ./ra/fsp/src/r_gpt/r_gpt.o
 .debug_info    0x000f783c     0x88f3 ./ra/fsp/src/r_flash_hp/r_flash_hp.o
 .debug_info    0x0010012f     0x5c55 ./ra/fsp/src/r_dtc/r_dtc.o
 .debug_info    0x00105d84     0x5095 ./ra/fsp/src/r_can/r_can.o
 .debug_info    0x0010ae19     0x4ab1 ./ra/fsp/src/bsp/mcu/all/bsp_clocks.o
 .debug_info    0x0010f8ca     0x1154 ./ra/fsp/src/bsp/mcu/all/bsp_common.o
 .debug_info    0x00110a1e     0x1b89 ./ra/fsp/src/bsp/mcu/all/bsp_group_irq.o
 .debug_info    0x001125a7      0x990 ./ra/fsp/src/bsp/mcu/all/bsp_io.o
 .debug_info    0x00112f37     0x24eb ./ra/fsp/src/bsp/mcu/all/bsp_irq.o
 .debug_info    0x00115422     0x4028 ./ra/fsp/src/bsp/mcu/all/bsp_register_protection.o
 .debug_info    0x0011944a      0xaa7 ./ra/fsp/src/bsp/mcu/all/bsp_rom_registers.o
 .debug_info    0x00119ef1      0xa61 ./ra/fsp/src/bsp/mcu/all/bsp_sbrk.o
 .debug_info    0x0011a952      0xa51 ./ra/fsp/src/bsp/cmsis/Device/RENESAS/Source/startup.o
 .debug_info    0x0011b3a3     0x1173 ./ra/fsp/src/bsp/cmsis/Device/RENESAS/Source/system.o
 .debug_info    0x0011c516     0xa4d9 ./public/u_led.o
 .debug_info    0x001269ef     0xa32c ./public/u_setting.o
 .debug_info    0x00130d1b     0xa1ae ./mlos/services/mlos_log.o
 .debug_info    0x0013aec9     0xa97f ./mlos/services/mlos_shell.o
 .debug_info    0x00145848     0x9ede ./mlos/port/RA6M4/mlos_port.o
 .debug_info    0x0014f726     0x9ea0 ./mlos/os/mlos.o
 .debug_info    0x001595c6     0x9c84 ./mlos/os/mlos_clock.o
 .debug_info    0x0016324a      0xe0a ./mlos/os/mlos_list.o
 .debug_info    0x00164054     0x9d70 ./mlos/os/mlos_ltimer.o
 .debug_info    0x0016ddc4     0x9fb5 ./mlos/os/mlos_malloc.o
 .debug_info    0x00177d79     0xa3ac ./mlos/os/mlos_mpump.o
 .debug_info    0x00182125      0xbee ./mlos/os/mlos_que.o
 .debug_info    0x00182d13     0xa468 ./mlos/os/mlos_rtimer.o
 .debug_info    0x0018d17b     0xa674 ./mlos/os/mlos_task.o
 .debug_info    0x001977ef     0xa271 ./mllib/utp/ra6m4/utp_uart_driver.o
 .debug_info    0x001a1a60     0x9ecd ./mllib/utp/public.o
 .debug_info    0x001ab92d     0xa4f5 ./mllib/utp/utp.o
 .debug_info    0x001b5e22     0xa7e8 ./mllib/upper/upper_ntp.o
 .debug_info    0x001c060a     0xa8ba ./mllib/tool/tool.o
 .debug_info    0x001caec4     0xa822 ./mllib/tool/tool_debug.o
 .debug_info    0x001d56e6     0xa5d5 ./mllib/tool/tool_ds.o
 .debug_info    0x001dfcbb     0xaf33 ./mllib/tool/tool_iap.o
 .debug_info    0x001eabee     0xa3d4 ./mllib/tool/tool_setting.o
 .debug_info    0x001f4fc2     0xa042 ./mllib/ntp/w5500/ra6m4/ntp_w5500_spi_driver.o
 .debug_info    0x001ff004     0xb34f ./mllib/ntp/w5500/ntp_w5500.o
 .debug_info    0x0020a353     0x9e04 ./mllib/ntp/ntp.o
 .debug_info    0x00214157     0xa298 ./mllib/ntp/ntp_usocket.o
 .debug_info    0x0021e3ef     0xa00b ./mllib/mlflash/mcuflash/RA6M4/mcu_flash.o
 .debug_info    0x002283fa     0x9f42 ./mllib/mlflash/cssdcard/RA6M4/cs_sd_spi_driver.o
 .debug_info    0x0023233c     0xc7eb ./mllib/mlflash/cssdcard/cs_sdcard.o
 .debug_info    0x0023eb27     0xaa5c ./mllib/iap/RA6M4/iap_mcu_port.o
 .debug_info    0x00249583     0x9d85 ./mllib/iap/iap.o
 .debug_info    0x00253308     0xa346 ./mllib/dataStorage/ds.o
 .debug_info    0x0025d64e     0xa532 ./mllib/dataStorage/ds_file.o
 .debug_info    0x00267b80     0xa210 ./mllib/dataStorage/ds_log.o
 .debug_info    0x00271d90     0xa4b2 ./mllib/dataStorage/ds_tray.o
 .debug_info    0x0027c242     0xa3fa ./mllib/ctp/ra6m4/ctp_can_driver.o
 .debug_info    0x0028663c     0xd5dd ./mllib/ctp/ctp.o
 .debug_info    0x00293c19     0xc53a ./app/u_app.o

.debug_abbrev   0x00000000    0x13bea
 .debug_abbrev  0x00000000      0x326 ./tray/alarm_drive.o
 .debug_abbrev  0x00000326      0x33c ./tray/alarm_led.o
 .debug_abbrev  0x00000662      0x599 ./tray/box.o
 .debug_abbrev  0x00000bfb      0x492 ./tray/channel.o
 .debug_abbrev  0x0000108d      0x478 ./tray/entry.o
 .debug_abbrev  0x00001505      0x4da ./tray/flow.o
 .debug_abbrev  0x000019df      0x442 ./tray/func.o
 .debug_abbrev  0x00001e21      0x630 ./tray/host.o
 .debug_abbrev  0x00002451      0x46a ./tray/log.o
 .debug_abbrev  0x000028bb      0x447 ./tray/pb.o
 .debug_abbrev  0x00002d02      0x53c ./tray/plc.o
 .debug_abbrev  0x0000323e      0x4d7 ./tray/protect.o
 .debug_abbrev  0x00003715      0x456 ./tray/timer.o
 .debug_abbrev  0x00003b6b      0x422 ./tray/tray.o
 .debug_abbrev  0x00003f8d      0x3bb ./tray/tray_bl.o
 .debug_abbrev  0x00004348      0x5b5 ./tray/uart.o
 .debug_abbrev  0x000048fd      0x335 ./src/hal_entry.o
 .debug_abbrev  0x00004c32      0x227 ./ra_gen/common_data.o
 .debug_abbrev  0x00004e59      0x35a ./ra_gen/hal_data.o
 .debug_abbrev  0x000051b3      0x2e7 ./ra_gen/main.o
 .debug_abbrev  0x0000549a      0x1fb ./ra_gen/pin_data.o
 .debug_abbrev  0x00005695      0x1f2 ./ra_gen/vector_data.o
 .debug_abbrev  0x00005887      0x5e3 ./ra/fsp/src/r_spi/r_spi.o
 .debug_abbrev  0x00005e6a      0x5ec ./ra/fsp/src/r_sci_uart/r_sci_uart.o
 .debug_abbrev  0x00006456      0x4ac ./ra/fsp/src/r_ioport/r_ioport.o
 .debug_abbrev  0x00006902      0x5bc ./ra/fsp/src/r_gpt/r_gpt.o
 .debug_abbrev  0x00006ebe      0x606 ./ra/fsp/src/r_flash_hp/r_flash_hp.o
 .debug_abbrev  0x000074c4      0x4c8 ./ra/fsp/src/r_dtc/r_dtc.o
 .debug_abbrev  0x0000798c      0x5d2 ./ra/fsp/src/r_can/r_can.o
 .debug_abbrev  0x00007f5e      0x3b0 ./ra/fsp/src/bsp/mcu/all/bsp_clocks.o
 .debug_abbrev  0x0000830e      0x293 ./ra/fsp/src/bsp/mcu/all/bsp_common.o
 .debug_abbrev  0x000085a1      0x33e ./ra/fsp/src/bsp/mcu/all/bsp_group_irq.o
 .debug_abbrev  0x000088df      0x1c7 ./ra/fsp/src/bsp/mcu/all/bsp_io.o
 .debug_abbrev  0x00008aa6      0x333 ./ra/fsp/src/bsp/mcu/all/bsp_irq.o
 .debug_abbrev  0x00008dd9      0x34c ./ra/fsp/src/bsp/mcu/all/bsp_register_protection.o
 .debug_abbrev  0x00009125      0x1c9 ./ra/fsp/src/bsp/mcu/all/bsp_rom_registers.o
 .debug_abbrev  0x000092ee      0x24b ./ra/fsp/src/bsp/mcu/all/bsp_sbrk.o
 .debug_abbrev  0x00009539      0x240 ./ra/fsp/src/bsp/cmsis/Device/RENESAS/Source/startup.o
 .debug_abbrev  0x00009779      0x351 ./ra/fsp/src/bsp/cmsis/Device/RENESAS/Source/system.o
 .debug_abbrev  0x00009aca      0x4a3 ./public/u_led.o
 .debug_abbrev  0x00009f6d      0x3d8 ./public/u_setting.o
 .debug_abbrev  0x0000a345      0x4aa ./mlos/services/mlos_log.o
 .debug_abbrev  0x0000a7ef      0x4e8 ./mlos/services/mlos_shell.o
 .debug_abbrev  0x0000acd7      0x3cb ./mlos/port/RA6M4/mlos_port.o
 .debug_abbrev  0x0000b0a2      0x35c ./mlos/os/mlos.o
 .debug_abbrev  0x0000b3fe      0x327 ./mlos/os/mlos_clock.o
 .debug_abbrev  0x0000b725      0x310 ./mlos/os/mlos_list.o
 .debug_abbrev  0x0000ba35      0x31a ./mlos/os/mlos_ltimer.o
 .debug_abbrev  0x0000bd4f      0x3b4 ./mlos/os/mlos_malloc.o
 .debug_abbrev  0x0000c103      0x420 ./mlos/os/mlos_mpump.o
 .debug_abbrev  0x0000c523      0x27c ./mlos/os/mlos_que.o
 .debug_abbrev  0x0000c79f      0x464 ./mlos/os/mlos_rtimer.o
 .debug_abbrev  0x0000cc03      0x51c ./mlos/os/mlos_task.o
 .debug_abbrev  0x0000d11f      0x397 ./mllib/utp/ra6m4/utp_uart_driver.o
 .debug_abbrev  0x0000d4b6      0x384 ./mllib/utp/public.o
 .debug_abbrev  0x0000d83a      0x4b2 ./mllib/utp/utp.o
 .debug_abbrev  0x0000dcec      0x4f2 ./mllib/upper/upper_ntp.o
 .debug_abbrev  0x0000e1de      0x4ef ./mllib/tool/tool.o
 .debug_abbrev  0x0000e6cd      0x50d ./mllib/tool/tool_debug.o
 .debug_abbrev  0x0000ebda      0x46e ./mllib/tool/tool_ds.o
 .debug_abbrev  0x0000f048      0x485 ./mllib/tool/tool_iap.o
 .debug_abbrev  0x0000f4cd      0x39c ./mllib/tool/tool_setting.o
 .debug_abbrev  0x0000f869      0x414 ./mllib/ntp/w5500/ra6m4/ntp_w5500_spi_driver.o
 .debug_abbrev  0x0000fc7d      0x55f ./mllib/ntp/w5500/ntp_w5500.o
 .debug_abbrev  0x000101dc      0x34b ./mllib/ntp/ntp.o
 .debug_abbrev  0x00010527      0x403 ./mllib/ntp/ntp_usocket.o
 .debug_abbrev  0x0001092a      0x42c ./mllib/mlflash/mcuflash/RA6M4/mcu_flash.o
 .debug_abbrev  0x00010d56      0x433 ./mllib/mlflash/cssdcard/RA6M4/cs_sd_spi_driver.o
 .debug_abbrev  0x00011189      0x504 ./mllib/mlflash/cssdcard/cs_sdcard.o
 .debug_abbrev  0x0001168d      0x3d4 ./mllib/iap/RA6M4/iap_mcu_port.o
 .debug_abbrev  0x00011a61      0x350 ./mllib/iap/iap.o
 .debug_abbrev  0x00011db1      0x489 ./mllib/dataStorage/ds.o
 .debug_abbrev  0x0001223a      0x42c ./mllib/dataStorage/ds_file.o
 .debug_abbrev  0x00012666      0x398 ./mllib/dataStorage/ds_log.o
 .debug_abbrev  0x000129fe      0x3fd ./mllib/dataStorage/ds_tray.o
 .debug_abbrev  0x00012dfb      0x404 ./mllib/ctp/ra6m4/ctp_can_driver.o
 .debug_abbrev  0x000131ff      0x64c ./mllib/ctp/ctp.o
 .debug_abbrev  0x0001384b      0x39f ./app/u_app.o

.debug_loc      0x00000000    0x31267
 .debug_loc     0x00000000      0x1bc ./tray/alarm_drive.o
 .debug_loc     0x000001bc      0x13c ./tray/alarm_led.o
 .debug_loc     0x000002f8     0x2845 ./tray/box.o
 .debug_loc     0x00002b3d     0x15a3 ./tray/channel.o
 .debug_loc     0x000040e0     0x119c ./tray/entry.o
 .debug_loc     0x0000527c     0x32aa ./tray/flow.o
 .debug_loc     0x00008526     0x1802 ./tray/func.o
 .debug_loc     0x00009d28     0x9c2b ./tray/host.o
 .debug_loc     0x00013953      0x16c ./tray/log.o
 .debug_loc     0x00013abf      0x232 ./tray/pb.o
 .debug_loc     0x00013cf1     0x10b8 ./tray/plc.o
 .debug_loc     0x00014da9     0x3ade ./tray/protect.o
 .debug_loc     0x00018887      0x328 ./tray/timer.o
 .debug_loc     0x00018baf     0x23e7 ./tray/tray.o
 .debug_loc     0x0001af96       0x42 ./tray/tray_bl.o
 .debug_loc     0x0001afd8     0x3272 ./tray/uart.o
 .debug_loc     0x0001e24a       0x25 ./src/hal_entry.o
 .debug_loc     0x0001e26f     0x18c2 ./ra/fsp/src/r_spi/r_spi.o
 .debug_loc     0x0001fb31     0x1279 ./ra/fsp/src/r_sci_uart/r_sci_uart.o
 .debug_loc     0x00020daa      0xf44 ./ra/fsp/src/r_ioport/r_ioport.o
 .debug_loc     0x00021cee      0xe4a ./ra/fsp/src/r_gpt/r_gpt.o
 .debug_loc     0x00022b38     0x24a1 ./ra/fsp/src/r_flash_hp/r_flash_hp.o
 .debug_loc     0x00024fd9      0x524 ./ra/fsp/src/r_dtc/r_dtc.o
 .debug_loc     0x000254fd      0xd01 ./ra/fsp/src/r_can/r_can.o
 .debug_loc     0x000261fe      0x1c7 ./ra/fsp/src/bsp/mcu/all/bsp_clocks.o
 .debug_loc     0x000263c5       0x22 ./ra/fsp/src/bsp/mcu/all/bsp_common.o
 .debug_loc     0x000263e7       0xb7 ./ra/fsp/src/bsp/mcu/all/bsp_group_irq.o
 .debug_loc     0x0002649e       0xe3 ./ra/fsp/src/bsp/mcu/all/bsp_irq.o
 .debug_loc     0x00026581      0x105 ./ra/fsp/src/bsp/mcu/all/bsp_register_protection.o
 .debug_loc     0x00026686       0xf8 ./ra/fsp/src/bsp/mcu/all/bsp_sbrk.o
 .debug_loc     0x0002677e       0x6c ./ra/fsp/src/bsp/cmsis/Device/RENESAS/Source/system.o
 .debug_loc     0x000267ea      0x342 ./public/u_led.o
 .debug_loc     0x00026b2c      0x17b ./public/u_setting.o
 .debug_loc     0x00026ca7      0x15c ./mlos/services/mlos_log.o
 .debug_loc     0x00026e03      0x794 ./mlos/services/mlos_shell.o
 .debug_loc     0x00027597      0x113 ./mlos/port/RA6M4/mlos_port.o
 .debug_loc     0x000276aa      0x119 ./mlos/os/mlos.o
 .debug_loc     0x000277c3      0x545 ./mlos/os/mlos_list.o
 .debug_loc     0x00027d08       0x15 ./mlos/os/mlos_ltimer.o
 .debug_loc     0x00027d1d      0x1c6 ./mlos/os/mlos_malloc.o
 .debug_loc     0x00027ee3      0x4e8 ./mlos/os/mlos_mpump.o
 .debug_loc     0x000283cb      0x19f ./mlos/os/mlos_que.o
 .debug_loc     0x0002856a      0x2d9 ./mlos/os/mlos_rtimer.o
 .debug_loc     0x00028843      0x4bc ./mlos/os/mlos_task.o
 .debug_loc     0x00028cff      0x1b5 ./mllib/utp/ra6m4/utp_uart_driver.o
 .debug_loc     0x00028eb4      0x304 ./mllib/utp/public.o
 .debug_loc     0x000291b8      0x445 ./mllib/utp/utp.o
 .debug_loc     0x000295fd      0x37d ./mllib/upper/upper_ntp.o
 .debug_loc     0x0002997a      0x604 ./mllib/tool/tool.o
 .debug_loc     0x00029f7e      0x50a ./mllib/tool/tool_debug.o
 .debug_loc     0x0002a488      0x932 ./mllib/tool/tool_ds.o
 .debug_loc     0x0002adba      0xe5a ./mllib/tool/tool_iap.o
 .debug_loc     0x0002bc14      0x4f6 ./mllib/tool/tool_setting.o
 .debug_loc     0x0002c10a      0x2b9 ./mllib/ntp/w5500/ra6m4/ntp_w5500_spi_driver.o
 .debug_loc     0x0002c3c3      0xeeb ./mllib/ntp/w5500/ntp_w5500.o
 .debug_loc     0x0002d2ae       0xdd ./mllib/ntp/ntp.o
 .debug_loc     0x0002d38b      0x124 ./mllib/ntp/ntp_usocket.o
 .debug_loc     0x0002d4af      0x2c5 ./mllib/mlflash/mcuflash/RA6M4/mcu_flash.o
 .debug_loc     0x0002d774      0x281 ./mllib/mlflash/cssdcard/RA6M4/cs_sd_spi_driver.o
 .debug_loc     0x0002d9f5     0x1411 ./mllib/mlflash/cssdcard/cs_sdcard.o
 .debug_loc     0x0002ee06      0x477 ./mllib/iap/RA6M4/iap_mcu_port.o
 .debug_loc     0x0002f27d       0x30 ./mllib/iap/iap.o
 .debug_loc     0x0002f2ad      0x2b1 ./mllib/dataStorage/ds.o
 .debug_loc     0x0002f55e      0x4b5 ./mllib/dataStorage/ds_file.o
 .debug_loc     0x0002fa13      0x116 ./mllib/dataStorage/ds_log.o
 .debug_loc     0x0002fb29      0x6e3 ./mllib/dataStorage/ds_tray.o
 .debug_loc     0x0003020c      0x2fd ./mllib/ctp/ra6m4/ctp_can_driver.o
 .debug_loc     0x00030509      0xd5e ./mllib/ctp/ctp.o

.debug_aranges  0x00000000     0x2478
 .debug_aranges
                0x00000000       0x48 ./tray/alarm_drive.o
 .debug_aranges
                0x00000048       0x28 ./tray/alarm_led.o
 .debug_aranges
                0x00000070      0x1c8 ./tray/box.o
 .debug_aranges
                0x00000238      0x128 ./tray/channel.o
 .debug_aranges
                0x00000360       0x40 ./tray/entry.o
 .debug_aranges
                0x000003a0      0x178 ./tray/flow.o
 .debug_aranges
                0x00000518       0xb8 ./tray/func.o
 .debug_aranges
                0x000005d0      0x4b0 ./tray/host.o
 .debug_aranges
                0x00000a80       0x38 ./tray/log.o
 .debug_aranges
                0x00000ab8       0x40 ./tray/pb.o
 .debug_aranges
                0x00000af8       0xb0 ./tray/plc.o
 .debug_aranges
                0x00000ba8      0x1e8 ./tray/protect.o
 .debug_aranges
                0x00000d90       0x58 ./tray/timer.o
 .debug_aranges
                0x00000de8      0x128 ./tray/tray.o
 .debug_aranges
                0x00000f10       0x28 ./tray/tray_bl.o
 .debug_aranges
                0x00000f38      0x1d8 ./tray/uart.o
 .debug_aranges
                0x00001110       0x28 ./src/hal_entry.o
 .debug_aranges
                0x00001138       0x20 ./ra_gen/common_data.o
 .debug_aranges
                0x00001158       0x20 ./ra_gen/hal_data.o
 .debug_aranges
                0x00001178       0x20 ./ra_gen/main.o
 .debug_aranges
                0x00001198       0x18 ./ra_gen/pin_data.o
 .debug_aranges
                0x000011b0       0x18 ./ra_gen/vector_data.o
 .debug_aranges
                0x000011c8       0x80 ./ra/fsp/src/r_spi/r_spi.o
 .debug_aranges
                0x00001248       0x90 ./ra/fsp/src/r_sci_uart/r_sci_uart.o
 .debug_aranges
                0x000012d8       0xa0 ./ra/fsp/src/r_ioport/r_ioport.o
 .debug_aranges
                0x00001378       0xd8 ./ra/fsp/src/r_gpt/r_gpt.o
 .debug_aranges
                0x00001450      0x138 ./ra/fsp/src/r_flash_hp/r_flash_hp.o
 .debug_aranges
                0x00001588       0x68 ./ra/fsp/src/r_dtc/r_dtc.o
 .debug_aranges
                0x000015f0       0x88 ./ra/fsp/src/r_can/r_can.o
 .debug_aranges
                0x00001678       0x48 ./ra/fsp/src/bsp/mcu/all/bsp_clocks.o
 .debug_aranges
                0x000016c0       0x30 ./ra/fsp/src/bsp/mcu/all/bsp_common.o
 .debug_aranges
                0x000016f0       0x28 ./ra/fsp/src/bsp/mcu/all/bsp_group_irq.o
 .debug_aranges
                0x00001718       0x18 ./ra/fsp/src/bsp/mcu/all/bsp_io.o
 .debug_aranges
                0x00001730       0x20 ./ra/fsp/src/bsp/mcu/all/bsp_irq.o
 .debug_aranges
                0x00001750       0x28 ./ra/fsp/src/bsp/mcu/all/bsp_register_protection.o
 .debug_aranges
                0x00001778       0x18 ./ra/fsp/src/bsp/mcu/all/bsp_rom_registers.o
 .debug_aranges
                0x00001790       0x20 ./ra/fsp/src/bsp/mcu/all/bsp_sbrk.o
 .debug_aranges
                0x000017b0       0x28 ./ra/fsp/src/bsp/cmsis/Device/RENESAS/Source/startup.o
 .debug_aranges
                0x000017d8       0x28 ./ra/fsp/src/bsp/cmsis/Device/RENESAS/Source/system.o
 .debug_aranges
                0x00001800       0x68 ./public/u_led.o
 .debug_aranges
                0x00001868       0x38 ./public/u_setting.o
 .debug_aranges
                0x000018a0       0x48 ./mlos/services/mlos_log.o
 .debug_aranges
                0x000018e8       0x98 ./mlos/services/mlos_shell.o
 .debug_aranges
                0x00001980       0x48 ./mlos/port/RA6M4/mlos_port.o
 .debug_aranges
                0x000019c8       0x40 ./mlos/os/mlos.o
 .debug_aranges
                0x00001a08       0x28 ./mlos/os/mlos_clock.o
 .debug_aranges
                0x00001a30       0x58 ./mlos/os/mlos_list.o
 .debug_aranges
                0x00001a88       0x20 ./mlos/os/mlos_ltimer.o
 .debug_aranges
                0x00001aa8       0x40 ./mlos/os/mlos_malloc.o
 .debug_aranges
                0x00001ae8       0x58 ./mlos/os/mlos_mpump.o
 .debug_aranges
                0x00001b40       0x40 ./mlos/os/mlos_que.o
 .debug_aranges
                0x00001b80       0x50 ./mlos/os/mlos_rtimer.o
 .debug_aranges
                0x00001bd0       0x60 ./mlos/os/mlos_task.o
 .debug_aranges
                0x00001c30       0x38 ./mllib/utp/ra6m4/utp_uart_driver.o
 .debug_aranges
                0x00001c68       0x40 ./mllib/utp/public.o
 .debug_aranges
                0x00001ca8       0x50 ./mllib/utp/utp.o
 .debug_aranges
                0x00001cf8       0x60 ./mllib/upper/upper_ntp.o
 .debug_aranges
                0x00001d58       0x58 ./mllib/tool/tool.o
 .debug_aranges
                0x00001db0       0x60 ./mllib/tool/tool_debug.o
 .debug_aranges
                0x00001e10       0x60 ./mllib/tool/tool_ds.o
 .debug_aranges
                0x00001e70       0xa8 ./mllib/tool/tool_iap.o
 .debug_aranges
                0x00001f18       0x30 ./mllib/tool/tool_setting.o
 .debug_aranges
                0x00001f48       0x60 ./mllib/ntp/w5500/ra6m4/ntp_w5500_spi_driver.o
 .debug_aranges
                0x00001fa8       0xa8 ./mllib/ntp/w5500/ntp_w5500.o
 .debug_aranges
                0x00002050       0x20 ./mllib/ntp/ntp.o
 .debug_aranges
                0x00002070       0x28 ./mllib/ntp/ntp_usocket.o
 .debug_aranges
                0x00002098       0x40 ./mllib/mlflash/mcuflash/RA6M4/mcu_flash.o
 .debug_aranges
                0x000020d8       0x80 ./mllib/mlflash/cssdcard/RA6M4/cs_sd_spi_driver.o
 .debug_aranges
                0x00002158       0xd8 ./mllib/mlflash/cssdcard/cs_sdcard.o
 .debug_aranges
                0x00002230       0x28 ./mllib/iap/RA6M4/iap_mcu_port.o
 .debug_aranges
                0x00002258       0x28 ./mllib/iap/iap.o
 .debug_aranges
                0x00002280       0x48 ./mllib/dataStorage/ds.o
 .debug_aranges
                0x000022c8       0x58 ./mllib/dataStorage/ds_file.o
 .debug_aranges
                0x00002320       0x30 ./mllib/dataStorage/ds_log.o
 .debug_aranges
                0x00002350       0x40 ./mllib/dataStorage/ds_tray.o
 .debug_aranges
                0x00002390       0x30 ./mllib/ctp/ra6m4/ctp_can_driver.o
 .debug_aranges
                0x000023c0       0x98 ./mllib/ctp/ctp.o
 .debug_aranges
                0x00002458       0x20 ./app/u_app.o

.debug_ranges   0x00000000     0x2dc8
 .debug_ranges  0x00000000       0x38 ./tray/alarm_drive.o
 .debug_ranges  0x00000038       0x18 ./tray/alarm_led.o
 .debug_ranges  0x00000050      0x200 ./tray/box.o
 .debug_ranges  0x00000250      0x220 ./tray/channel.o
 .debug_ranges  0x00000470       0xa8 ./tray/entry.o
 .debug_ranges  0x00000518      0x198 ./tray/flow.o
 .debug_ranges  0x000006b0       0xa8 ./tray/func.o
 .debug_ranges  0x00000758      0x6c8 ./tray/host.o
 .debug_ranges  0x00000e20       0x28 ./tray/log.o
 .debug_ranges  0x00000e48       0x30 ./tray/pb.o
 .debug_ranges  0x00000e78       0xa0 ./tray/plc.o
 .debug_ranges  0x00000f18      0x310 ./tray/protect.o
 .debug_ranges  0x00001228       0x48 ./tray/timer.o
 .debug_ranges  0x00001270      0x148 ./tray/tray.o
 .debug_ranges  0x000013b8       0x18 ./tray/tray_bl.o
 .debug_ranges  0x000013d0      0x268 ./tray/uart.o
 .debug_ranges  0x00001638       0x18 ./src/hal_entry.o
 .debug_ranges  0x00001650       0x10 ./ra_gen/common_data.o
 .debug_ranges  0x00001660       0x10 ./ra_gen/hal_data.o
 .debug_ranges  0x00001670       0x10 ./ra_gen/main.o
 .debug_ranges  0x00001680      0x208 ./ra/fsp/src/r_spi/r_spi.o
 .debug_ranges  0x00001888      0x1d0 ./ra/fsp/src/r_sci_uart/r_sci_uart.o
 .debug_ranges  0x00001a58       0xd8 ./ra/fsp/src/r_ioport/r_ioport.o
 .debug_ranges  0x00001b30      0x138 ./ra/fsp/src/r_gpt/r_gpt.o
 .debug_ranges  0x00001c68      0x218 ./ra/fsp/src/r_flash_hp/r_flash_hp.o
 .debug_ranges  0x00001e80       0x70 ./ra/fsp/src/r_dtc/r_dtc.o
 .debug_ranges  0x00001ef0       0xf8 ./ra/fsp/src/r_can/r_can.o
 .debug_ranges  0x00001fe8       0x50 ./ra/fsp/src/bsp/mcu/all/bsp_clocks.o
 .debug_ranges  0x00002038       0x20 ./ra/fsp/src/bsp/mcu/all/bsp_common.o
 .debug_ranges  0x00002058       0x48 ./ra/fsp/src/bsp/mcu/all/bsp_group_irq.o
 .debug_ranges  0x000020a0       0x40 ./ra/fsp/src/bsp/mcu/all/bsp_irq.o
 .debug_ranges  0x000020e0       0x30 ./ra/fsp/src/bsp/mcu/all/bsp_register_protection.o
 .debug_ranges  0x00002110       0x10 ./ra/fsp/src/bsp/mcu/all/bsp_sbrk.o
 .debug_ranges  0x00002120       0x18 ./ra/fsp/src/bsp/cmsis/Device/RENESAS/Source/startup.o
 .debug_ranges  0x00002138       0x18 ./ra/fsp/src/bsp/cmsis/Device/RENESAS/Source/system.o
 .debug_ranges  0x00002150       0x58 ./public/u_led.o
 .debug_ranges  0x000021a8       0x28 ./public/u_setting.o
 .debug_ranges  0x000021d0       0x38 ./mlos/services/mlos_log.o
 .debug_ranges  0x00002208       0x88 ./mlos/services/mlos_shell.o
 .debug_ranges  0x00002290       0x38 ./mlos/port/RA6M4/mlos_port.o
 .debug_ranges  0x000022c8       0x30 ./mlos/os/mlos.o
 .debug_ranges  0x000022f8       0x18 ./mlos/os/mlos_clock.o
 .debug_ranges  0x00002310       0x48 ./mlos/os/mlos_list.o
 .debug_ranges  0x00002358       0x10 ./mlos/os/mlos_ltimer.o
 .debug_ranges  0x00002368       0x30 ./mlos/os/mlos_malloc.o
 .debug_ranges  0x00002398       0x48 ./mlos/os/mlos_mpump.o
 .debug_ranges  0x000023e0       0x30 ./mlos/os/mlos_que.o
 .debug_ranges  0x00002410       0x40 ./mlos/os/mlos_rtimer.o
 .debug_ranges  0x00002450       0x98 ./mlos/os/mlos_task.o
 .debug_ranges  0x000024e8       0x28 ./mllib/utp/ra6m4/utp_uart_driver.o
 .debug_ranges  0x00002510       0x30 ./mllib/utp/public.o
 .debug_ranges  0x00002540       0x40 ./mllib/utp/utp.o
 .debug_ranges  0x00002580       0x50 ./mllib/upper/upper_ntp.o
 .debug_ranges  0x000025d0       0x48 ./mllib/tool/tool.o
 .debug_ranges  0x00002618       0x50 ./mllib/tool/tool_debug.o
 .debug_ranges  0x00002668       0x50 ./mllib/tool/tool_ds.o
 .debug_ranges  0x000026b8       0x98 ./mllib/tool/tool_iap.o
 .debug_ranges  0x00002750       0x20 ./mllib/tool/tool_setting.o
 .debug_ranges  0x00002770       0x50 ./mllib/ntp/w5500/ra6m4/ntp_w5500_spi_driver.o
 .debug_ranges  0x000027c0       0x98 ./mllib/ntp/w5500/ntp_w5500.o
 .debug_ranges  0x00002858       0x10 ./mllib/ntp/ntp.o
 .debug_ranges  0x00002868       0x18 ./mllib/ntp/ntp_usocket.o
 .debug_ranges  0x00002880       0x30 ./mllib/mlflash/mcuflash/RA6M4/mcu_flash.o
 .debug_ranges  0x000028b0       0x70 ./mllib/mlflash/cssdcard/RA6M4/cs_sd_spi_driver.o
 .debug_ranges  0x00002920      0x278 ./mllib/mlflash/cssdcard/cs_sdcard.o
 .debug_ranges  0x00002b98       0x18 ./mllib/iap/RA6M4/iap_mcu_port.o
 .debug_ranges  0x00002bb0       0x18 ./mllib/iap/iap.o
 .debug_ranges  0x00002bc8       0x38 ./mllib/dataStorage/ds.o
 .debug_ranges  0x00002c00       0x48 ./mllib/dataStorage/ds_file.o
 .debug_ranges  0x00002c48       0x20 ./mllib/dataStorage/ds_log.o
 .debug_ranges  0x00002c68       0x48 ./mllib/dataStorage/ds_tray.o
 .debug_ranges  0x00002cb0       0x38 ./mllib/ctp/ra6m4/ctp_can_driver.o
 .debug_ranges  0x00002ce8       0xd0 ./mllib/ctp/ctp.o
 .debug_ranges  0x00002db8       0x10 ./app/u_app.o

.debug_line     0x00000000    0x3d336
 .debug_line    0x00000000      0x5e6 ./tray/alarm_drive.o
 .debug_line    0x000005e6      0x583 ./tray/alarm_led.o
 .debug_line    0x00000b69     0x2810 ./tray/box.o
 .debug_line    0x00003379     0x1a75 ./tray/channel.o
 .debug_line    0x00004dee     0x25cf ./tray/entry.o
 .debug_line    0x000073bd     0x24dd ./tray/flow.o
 .debug_line    0x0000989a     0x1187 ./tray/func.o
 .debug_line    0x0000aa21     0x69db ./tray/host.o
 .debug_line    0x000113fc      0x72e ./tray/log.o
 .debug_line    0x00011b2a      0x7d9 ./tray/pb.o
 .debug_line    0x00012303     0x172b ./tray/plc.o
 .debug_line    0x00013a2e     0x31df ./tray/protect.o
 .debug_line    0x00016c0d      0x8ff ./tray/timer.o
 .debug_line    0x0001750c     0x1b28 ./tray/tray.o
 .debug_line    0x00019034      0x5f8 ./tray/tray_bl.o
 .debug_line    0x0001962c     0x2238 ./tray/uart.o
 .debug_line    0x0001b864      0x5c6 ./src/hal_entry.o
 .debug_line    0x0001be2a      0x3a9 ./ra_gen/common_data.o
 .debug_line    0x0001c1d3      0x4ca ./ra_gen/hal_data.o
 .debug_line    0x0001c69d      0x4c4 ./ra_gen/main.o
 .debug_line    0x0001cb61      0x2d2 ./ra_gen/pin_data.o
 .debug_line    0x0001ce33      0x322 ./ra_gen/vector_data.o
 .debug_line    0x0001d155     0x129a ./ra/fsp/src/r_spi/r_spi.o
 .debug_line    0x0001e3ef     0x11d3 ./ra/fsp/src/r_sci_uart/r_sci_uart.o
 .debug_line    0x0001f5c2      0xabb ./ra/fsp/src/r_ioport/r_ioport.o
 .debug_line    0x0002007d      0xddf ./ra/fsp/src/r_gpt/r_gpt.o
 .debug_line    0x00020e5c     0x18f9 ./ra/fsp/src/r_flash_hp/r_flash_hp.o
 .debug_line    0x00022755      0x7a4 ./ra/fsp/src/r_dtc/r_dtc.o
 .debug_line    0x00022ef9     0x1049 ./ra/fsp/src/r_can/r_can.o
 .debug_line    0x00023f42      0x6f6 ./ra/fsp/src/bsp/mcu/all/bsp_clocks.o
 .debug_line    0x00024638      0x3c4 ./ra/fsp/src/bsp/mcu/all/bsp_common.o
 .debug_line    0x000249fc      0x3a3 ./ra/fsp/src/bsp/mcu/all/bsp_group_irq.o
 .debug_line    0x00024d9f      0x2a6 ./ra/fsp/src/bsp/mcu/all/bsp_io.o
 .debug_line    0x00025045      0x443 ./ra/fsp/src/bsp/mcu/all/bsp_irq.o
 .debug_line    0x00025488      0x413 ./ra/fsp/src/bsp/mcu/all/bsp_register_protection.o
 .debug_line    0x0002589b      0x2b1 ./ra/fsp/src/bsp/mcu/all/bsp_rom_registers.o
 .debug_line    0x00025b4c      0x32c ./ra/fsp/src/bsp/mcu/all/bsp_sbrk.o
 .debug_line    0x00025e78      0x2fa ./ra/fsp/src/bsp/cmsis/Device/RENESAS/Source/startup.o
 .debug_line    0x00026172      0x484 ./ra/fsp/src/bsp/cmsis/Device/RENESAS/Source/system.o
 .debug_line    0x000265f6      0xa2a ./public/u_led.o
 .debug_line    0x00027020      0x7eb ./public/u_setting.o
 .debug_line    0x0002780b      0x7c2 ./mlos/services/mlos_log.o
 .debug_line    0x00027fcd      0xc13 ./mlos/services/mlos_shell.o
 .debug_line    0x00028be0      0x6ba ./mlos/port/RA6M4/mlos_port.o
 .debug_line    0x0002929a      0x650 ./mlos/os/mlos.o
 .debug_line    0x000298ea      0x54a ./mlos/os/mlos_clock.o
 .debug_line    0x00029e34      0x779 ./mlos/os/mlos_list.o
 .debug_line    0x0002a5ad      0x569 ./mlos/os/mlos_ltimer.o
 .debug_line    0x0002ab16      0x6b2 ./mlos/os/mlos_malloc.o
 .debug_line    0x0002b1c8      0x867 ./mlos/os/mlos_mpump.o
 .debug_line    0x0002ba2f      0x3be ./mlos/os/mlos_que.o
 .debug_line    0x0002bded      0x85b ./mlos/os/mlos_rtimer.o
 .debug_line    0x0002c648      0xb92 ./mlos/os/mlos_task.o
 .debug_line    0x0002d1da      0x75f ./mllib/utp/ra6m4/utp_uart_driver.o
 .debug_line    0x0002d939      0x6e8 ./mllib/utp/public.o
 .debug_line    0x0002e021      0x94c ./mllib/utp/utp.o
 .debug_line    0x0002e96d      0x93a ./mllib/upper/upper_ntp.o
 .debug_line    0x0002f2a7      0xa7a ./mllib/tool/tool.o
 .debug_line    0x0002fd21      0xabb ./mllib/tool/tool_debug.o
 .debug_line    0x000307dc      0xb6d ./mllib/tool/tool_ds.o
 .debug_line    0x00031349      0xdd0 ./mllib/tool/tool_iap.o
 .debug_line    0x00032119      0x7fe ./mllib/tool/tool_setting.o
 .debug_line    0x00032917      0xbba ./mllib/ntp/w5500/ra6m4/ntp_w5500_spi_driver.o
 .debug_line    0x000334d1     0x1778 ./mllib/ntp/w5500/ntp_w5500.o
 .debug_line    0x00034c49      0x5b4 ./mllib/ntp/ntp.o
 .debug_line    0x000351fd      0x6c7 ./mllib/ntp/ntp_usocket.o
 .debug_line    0x000358c4      0x742 ./mllib/mlflash/mcuflash/RA6M4/mcu_flash.o
 .debug_line    0x00036006      0x9af ./mllib/mlflash/cssdcard/RA6M4/cs_sd_spi_driver.o
 .debug_line    0x000369b5     0x1628 ./mllib/mlflash/cssdcard/cs_sdcard.o
 .debug_line    0x00037fdd      0xbeb ./mllib/iap/RA6M4/iap_mcu_port.o
 .debug_line    0x00038bc8      0x5bd ./mllib/iap/iap.o
 .debug_line    0x00039185      0x748 ./mllib/dataStorage/ds.o
 .debug_line    0x000398cd      0xafd ./mllib/dataStorage/ds_file.o
 .debug_line    0x0003a3ca      0x6bf ./mllib/dataStorage/ds_log.o
 .debug_line    0x0003aa89      0x955 ./mllib/dataStorage/ds_tray.o
 .debug_line    0x0003b3de      0x78e ./mllib/ctp/ra6m4/ctp_can_driver.o
 .debug_line    0x0003bb6c      0xfce ./mllib/ctp/ctp.o
 .debug_line    0x0003cb3a      0x7fc ./app/u_app.o

.debug_str      0x00000000    0x18af4
 .debug_str     0x00000000     0x7479 ./tray/alarm_drive.o
                               0x7876 (size before relaxing)
 .debug_str     0x00007479       0x7f ./tray/alarm_led.o
                               0x785b (size before relaxing)
 .debug_str     0x000074f8     0x2300 ./tray/box.o
                               0x9b5d (size before relaxing)
 .debug_str     0x000097f8      0x2b3 ./tray/channel.o
                               0x2349 (size before relaxing)
 .debug_str     0x00009aab      0x990 ./tray/entry.o
                               0x9a47 (size before relaxing)
 .debug_str     0x0000a43b      0x628 ./tray/flow.o
                               0x2467 (size before relaxing)
 .debug_str     0x0000aa63      0x1a9 ./tray/func.o
                                0x85a (size before relaxing)
 .debug_str     0x0000ac0c     0x13bf ./tray/host.o
                               0xad6d (size before relaxing)
 .debug_str     0x0000bfcb       0x7a ./tray/log.o
                               0x904f (size before relaxing)
 .debug_str     0x0000c045      0x3c8 ./tray/pb.o
                               0x7bc6 (size before relaxing)
 .debug_str     0x0000c40d      0x26a ./tray/plc.o
                               0x976b (size before relaxing)
 .debug_str     0x0000c677      0x4f9 ./tray/protect.o
                               0x9a99 (size before relaxing)
 .debug_str     0x0000cb70       0x98 ./tray/timer.o
                               0x93ac (size before relaxing)
 .debug_str     0x0000cc08      0x2bf ./tray/tray.o
                               0x2814 (size before relaxing)
 .debug_str     0x0000cec7       0x51 ./tray/tray_bl.o
                               0x8f73 (size before relaxing)
 .debug_str     0x0000cf18      0x8aa ./tray/uart.o
                               0x9dc6 (size before relaxing)
 .debug_str     0x0000d7c2       0xdd ./src/hal_entry.o
                               0x78a6 (size before relaxing)
 .debug_str     0x0000d89f       0x26 ./ra_gen/common_data.o
                               0x3107 (size before relaxing)
 .debug_str     0x0000d8c5     0x15d6 ./ra_gen/hal_data.o
                               0x8d64 (size before relaxing)
 .debug_str     0x0000ee9b       0x11 ./ra_gen/main.o
                               0x7706 (size before relaxing)
 .debug_str     0x0000eeac      0x4ea ./ra_gen/pin_data.o
                               0x1bdd (size before relaxing)
 .debug_str     0x0000f396     0x199a ./ra_gen/vector_data.o
                               0x1f61 (size before relaxing)
 .debug_str     0x00010d30     0x1dd4 ./ra/fsp/src/r_spi/r_spi.o
                               0x4d26 (size before relaxing)
 .debug_str     0x00012b04      0x2e5 ./ra/fsp/src/r_sci_uart/r_sci_uart.o
                               0x6042 (size before relaxing)
 .debug_str     0x00012de9      0x87f ./ra/fsp/src/r_ioport/r_ioport.o
                               0x50f3 (size before relaxing)
 .debug_str     0x00013668      0x3ed ./ra/fsp/src/r_gpt/r_gpt.o
                               0x5aa9 (size before relaxing)
 .debug_str     0x00013a55      0x8d8 ./ra/fsp/src/r_flash_hp/r_flash_hp.o
                               0x4883 (size before relaxing)
 .debug_str     0x0001432d      0x1e0 ./ra/fsp/src/r_dtc/r_dtc.o
                               0x3d86 (size before relaxing)
 .debug_str     0x0001450d      0x392 ./ra/fsp/src/r_can/r_can.o
                               0x3607 (size before relaxing)
 .debug_str     0x0001489f      0x47f ./ra/fsp/src/bsp/mcu/all/bsp_clocks.o
                               0x2054 (size before relaxing)
 .debug_str     0x00014d1e       0xdf ./ra/fsp/src/bsp/mcu/all/bsp_common.o
                               0x1d4a (size before relaxing)
 .debug_str     0x00014dfd      0x1de ./ra/fsp/src/bsp/mcu/all/bsp_group_irq.o
                               0x2239 (size before relaxing)
 .debug_str     0x00014fdb       0x23 ./ra/fsp/src/bsp/mcu/all/bsp_io.o
                                0x5ea (size before relaxing)
 .debug_str     0x00014ffe      0x2d9 ./ra/fsp/src/bsp/mcu/all/bsp_irq.o
                               0x2718 (size before relaxing)
 .debug_str     0x000152d7       0x88 ./ra/fsp/src/bsp/mcu/all/bsp_register_protection.o
                               0x1b61 (size before relaxing)
 .debug_str     0x0001535f      0x15d ./ra/fsp/src/bsp/mcu/all/bsp_rom_registers.o
                                0x724 (size before relaxing)
 .debug_str     0x000154bc       0xad ./ra/fsp/src/bsp/mcu/all/bsp_sbrk.o
                                0x67a (size before relaxing)
 .debug_str     0x00015569       0x82 ./ra/fsp/src/bsp/cmsis/Device/RENESAS/Source/startup.o
                                0x660 (size before relaxing)
 .debug_str     0x000155eb      0x1b8 ./ra/fsp/src/bsp/cmsis/Device/RENESAS/Source/system.o
                                0xa09 (size before relaxing)
 .debug_str     0x000157a3      0x177 ./public/u_led.o
                               0x7ab1 (size before relaxing)
 .debug_str     0x0001591a       0xdf ./public/u_setting.o
                               0x7b56 (size before relaxing)
 .debug_str     0x000159f9      0x1c5 ./mlos/services/mlos_log.o
                               0x79f3 (size before relaxing)
 .debug_str     0x00015bbe      0x375 ./mlos/services/mlos_shell.o
                               0x7da5 (size before relaxing)
 .debug_str     0x00015f33       0xcd ./mlos/port/RA6M4/mlos_port.o
                               0x78ae (size before relaxing)
 .debug_str     0x00016000       0x8e ./mlos/os/mlos.o
                               0x789a (size before relaxing)
 .debug_str     0x0001608e       0x3a ./mlos/os/mlos_clock.o
                               0x779b (size before relaxing)
 .debug_str     0x000160c8      0x105 ./mlos/os/mlos_list.o
                                0x7a2 (size before relaxing)
 .debug_str     0x000161cd       0x19 ./mlos/os/mlos_ltimer.o
                               0x7842 (size before relaxing)
 .debug_str     0x000161e6       0x4d ./mlos/os/mlos_malloc.o
                               0x79b5 (size before relaxing)
 .debug_str     0x00016233      0x181 ./mlos/os/mlos_mpump.o
                               0x7aa2 (size before relaxing)
 .debug_str     0x000163b4       0xab ./mlos/os/mlos_que.o
                                0x674 (size before relaxing)
 .debug_str     0x0001645f      0x138 ./mlos/os/mlos_rtimer.o
                               0x7c33 (size before relaxing)
 .debug_str     0x00016597      0x1ca ./mlos/os/mlos_task.o
                               0x7cc2 (size before relaxing)
 .debug_str     0x00016761       0x70 ./mllib/utp/ra6m4/utp_uart_driver.o
                               0x7a6c (size before relaxing)
 .debug_str     0x000167d1       0x8c ./mllib/utp/public.o
                               0x7885 (size before relaxing)
 .debug_str     0x0001685d       0x96 ./mllib/utp/utp.o
                               0x7b43 (size before relaxing)
 .debug_str     0x000168f3      0x214 ./mllib/upper/upper_ntp.o
                               0x7eb1 (size before relaxing)
 .debug_str     0x00016b07      0x24e ./mllib/tool/tool.o
                               0x7f39 (size before relaxing)
 .debug_str     0x00016d55      0x242 ./mllib/tool/tool_debug.o
                               0x7e22 (size before relaxing)
 .debug_str     0x00016f97      0x24b ./mllib/tool/tool_ds.o
                               0x7bf8 (size before relaxing)
 .debug_str     0x000171e2      0x5fa ./mllib/tool/tool_iap.o
                               0x8043 (size before relaxing)
 .debug_str     0x000177dc       0x61 ./mllib/tool/tool_setting.o
                               0x7d4d (size before relaxing)
 .debug_str     0x0001783d       0xe2 ./mllib/ntp/w5500/ra6m4/ntp_w5500_spi_driver.o
                               0x7905 (size before relaxing)
 .debug_str     0x0001791f      0x2bf ./mllib/ntp/w5500/ntp_w5500.o
                               0x7dec (size before relaxing)
 .debug_str     0x00017bde       0x4e ./mllib/ntp/ntp.o
                               0x7840 (size before relaxing)
 .debug_str     0x00017c2c       0x41 ./mllib/ntp/ntp_usocket.o
                               0x7b4e (size before relaxing)
 .debug_str     0x00017c6d       0xac ./mllib/mlflash/mcuflash/RA6M4/mcu_flash.o
                               0x792d (size before relaxing)
 .debug_str     0x00017d19      0x128 ./mllib/mlflash/cssdcard/RA6M4/cs_sd_spi_driver.o
                               0x78d7 (size before relaxing)
 .debug_str     0x00017e41      0x47d ./mllib/mlflash/cssdcard/cs_sdcard.o
                               0x7f46 (size before relaxing)
 .debug_str     0x000182be       0x6a ./mllib/iap/RA6M4/iap_mcu_port.o
                               0x78df (size before relaxing)
 .debug_str     0x00018328       0x2c ./mllib/iap/iap.o
                               0x7844 (size before relaxing)
 .debug_str     0x00018354      0x16a ./mllib/dataStorage/ds.o
                               0x7b6a (size before relaxing)
 .debug_str     0x000184be       0xf4 ./mllib/dataStorage/ds_file.o
                               0x7ab3 (size before relaxing)
 .debug_str     0x000185b2       0x82 ./mllib/dataStorage/ds_log.o
                               0x7a8f (size before relaxing)
 .debug_str     0x00018634       0xe5 ./mllib/dataStorage/ds_tray.o
                               0x7bbe (size before relaxing)
 .debug_str     0x00018719       0xec ./mllib/ctp/ra6m4/ctp_can_driver.o
                               0x7a3f (size before relaxing)
 .debug_str     0x00018805      0x2d3 ./mllib/ctp/ctp.o
                               0x9837 (size before relaxing)
 .debug_str     0x00018ad8       0x1c ./app/u_app.o
                               0x933e (size before relaxing)

.debug_frame    0x00000000     0x6c94
 .debug_frame   0x00000000       0xac ./tray/alarm_drive.o
 .debug_frame   0x000000ac       0x40 ./tray/alarm_led.o
 .debug_frame   0x000000ec      0x588 ./tray/box.o
 .debug_frame   0x00000674      0x338 ./tray/channel.o
 .debug_frame   0x000009ac       0xb8 ./tray/entry.o
 .debug_frame   0x00000a64      0x51c ./tray/flow.o
 .debug_frame   0x00000f80      0x29c ./tray/func.o
 .debug_frame   0x0000121c      0xfa4 ./tray/host.o
 .debug_frame   0x000021c0       0xa8 ./tray/log.o
 .debug_frame   0x00002268       0xa8 ./tray/pb.o
 .debug_frame   0x00002310      0x224 ./tray/plc.o
 .debug_frame   0x00002534      0x6e8 ./tray/protect.o
 .debug_frame   0x00002c1c       0xb8 ./tray/timer.o
 .debug_frame   0x00002cd4      0x414 ./tray/tray.o
 .debug_frame   0x000030e8       0x44 ./tray/tray_bl.o
 .debug_frame   0x0000312c      0x554 ./tray/uart.o
 .debug_frame   0x00003680       0x40 ./src/hal_entry.o
 .debug_frame   0x000036c0       0x20 ./ra_gen/common_data.o
 .debug_frame   0x000036e0       0x28 ./ra_gen/hal_data.o
 .debug_frame   0x00003708       0x28 ./ra_gen/main.o
 .debug_frame   0x00003730      0x188 ./ra/fsp/src/r_spi/r_spi.o
 .debug_frame   0x000038b8      0x1ac ./ra/fsp/src/r_sci_uart/r_sci_uart.o
 .debug_frame   0x00003a64      0x178 ./ra/fsp/src/r_ioport/r_ioport.o
 .debug_frame   0x00003bdc      0x210 ./ra/fsp/src/r_gpt/r_gpt.o
 .debug_frame   0x00003dec      0x3e0 ./ra/fsp/src/r_flash_hp/r_flash_hp.o
 .debug_frame   0x000041cc       0xe8 ./ra/fsp/src/r_dtc/r_dtc.o
 .debug_frame   0x000042b4      0x1a0 ./ra/fsp/src/r_can/r_can.o
 .debug_frame   0x00004454       0x88 ./ra/fsp/src/bsp/mcu/all/bsp_clocks.o
 .debug_frame   0x000044dc       0x40 ./ra/fsp/src/bsp/mcu/all/bsp_common.o
 .debug_frame   0x0000451c       0x3c ./ra/fsp/src/bsp/mcu/all/bsp_group_irq.o
 .debug_frame   0x00004558       0x34 ./ra/fsp/src/bsp/mcu/all/bsp_irq.o
 .debug_frame   0x0000458c       0x48 ./ra/fsp/src/bsp/mcu/all/bsp_register_protection.o
 .debug_frame   0x000045d4       0x28 ./ra/fsp/src/bsp/mcu/all/bsp_sbrk.o
 .debug_frame   0x000045fc       0x38 ./ra/fsp/src/bsp/cmsis/Device/RENESAS/Source/startup.o
 .debug_frame   0x00004634       0x3c ./ra/fsp/src/bsp/cmsis/Device/RENESAS/Source/system.o
 .debug_frame   0x00004670       0xe4 ./public/u_led.o
 .debug_frame   0x00004754       0x7c ./public/u_setting.o
 .debug_frame   0x000047d0       0xa8 ./mlos/services/mlos_log.o
 .debug_frame   0x00004878      0x1cc ./mlos/services/mlos_shell.o
 .debug_frame   0x00004a44       0x94 ./mlos/port/RA6M4/mlos_port.o
 .debug_frame   0x00004ad8       0x68 ./mlos/os/mlos.o
 .debug_frame   0x00004b40       0x38 ./mlos/os/mlos_clock.o
 .debug_frame   0x00004b78       0xd4 ./mlos/os/mlos_list.o
 .debug_frame   0x00004c4c       0x28 ./mlos/os/mlos_ltimer.o
 .debug_frame   0x00004c74       0x80 ./mlos/os/mlos_malloc.o
 .debug_frame   0x00004cf4       0xe4 ./mlos/os/mlos_mpump.o
 .debug_frame   0x00004dd8       0x78 ./mlos/os/mlos_que.o
 .debug_frame   0x00004e50       0xe8 ./mlos/os/mlos_rtimer.o
 .debug_frame   0x00004f38      0x108 ./mlos/os/mlos_task.o
 .debug_frame   0x00005040       0x78 ./mllib/utp/ra6m4/utp_uart_driver.o
 .debug_frame   0x000050b8       0x80 ./mllib/utp/public.o
 .debug_frame   0x00005138       0xdc ./mllib/utp/utp.o
 .debug_frame   0x00005214       0xf8 ./mllib/upper/upper_ntp.o
 .debug_frame   0x0000530c       0xf4 ./mllib/tool/tool.o
 .debug_frame   0x00005400       0xfc ./mllib/tool/tool_debug.o
 .debug_frame   0x000054fc      0x108 ./mllib/tool/tool_ds.o
 .debug_frame   0x00005604      0x208 ./mllib/tool/tool_iap.o
 .debug_frame   0x0000580c       0x74 ./mllib/tool/tool_setting.o
 .debug_frame   0x00005880       0xf8 ./mllib/ntp/w5500/ra6m4/ntp_w5500_spi_driver.o
 .debug_frame   0x00005978      0x200 ./mllib/ntp/w5500/ntp_w5500.o
 .debug_frame   0x00005b78       0x34 ./mllib/ntp/ntp.o
 .debug_frame   0x00005bac       0x44 ./mllib/ntp/ntp_usocket.o
 .debug_frame   0x00005bf0       0x88 ./mllib/mlflash/mcuflash/RA6M4/mcu_flash.o
 .debug_frame   0x00005c78      0x12c ./mllib/mlflash/cssdcard/RA6M4/cs_sd_spi_driver.o
 .debug_frame   0x00005da4      0x2f8 ./mllib/mlflash/cssdcard/cs_sdcard.o
 .debug_frame   0x0000609c       0x30 ./mllib/iap/RA6M4/iap_mcu_port.o
 .debug_frame   0x000060cc       0x38 ./mllib/iap/iap.o
 .debug_frame   0x00006104       0xa4 ./mllib/dataStorage/ds.o
 .debug_frame   0x000061a8       0xf0 ./mllib/dataStorage/ds_file.o
 .debug_frame   0x00006298       0x64 ./mllib/dataStorage/ds_log.o
 .debug_frame   0x000062fc       0xd0 ./mllib/dataStorage/ds_tray.o
 .debug_frame   0x000063cc       0x6c ./mllib/ctp/ra6m4/ctp_can_driver.o
 .debug_frame   0x00006438      0x1b4 ./mllib/ctp/ctp.o
 .debug_frame   0x000065ec       0x28 ./app/u_app.o
 .debug_frame   0x00006614       0x20 c:/renesas/ra/e2studio_v2021-04_fsp_v3.0.0/toolchains/gcc_arm/9_2020q2/bin/../lib/gcc/arm-none-eabi/9.3.1/../../../../arm-none-eabi/lib/thumb/v8-m.main+fp/hard\libg_nano.a(lib_a-errno.o)
 .debug_frame   0x00006634       0x2c c:/renesas/ra/e2studio_v2021-04_fsp_v3.0.0/toolchains/gcc_arm/9_2020q2/bin/../lib/gcc/arm-none-eabi/9.3.1/../../../../arm-none-eabi/lib/thumb/v8-m.main+fp/hard\libg_nano.a(lib_a-memcmp.o)
 .debug_frame   0x00006660       0x28 c:/renesas/ra/e2studio_v2021-04_fsp_v3.0.0/toolchains/gcc_arm/9_2020q2/bin/../lib/gcc/arm-none-eabi/9.3.1/../../../../arm-none-eabi/lib/thumb/v8-m.main+fp/hard\libg_nano.a(lib_a-memcpy-stub.o)
 .debug_frame   0x00006688       0x20 c:/renesas/ra/e2studio_v2021-04_fsp_v3.0.0/toolchains/gcc_arm/9_2020q2/bin/../lib/gcc/arm-none-eabi/9.3.1/../../../../arm-none-eabi/lib/thumb/v8-m.main+fp/hard\libg_nano.a(lib_a-memset.o)
 .debug_frame   0x000066a8       0x6c c:/renesas/ra/e2studio_v2021-04_fsp_v3.0.0/toolchains/gcc_arm/9_2020q2/bin/../lib/gcc/arm-none-eabi/9.3.1/../../../../arm-none-eabi/lib/thumb/v8-m.main+fp/hard\libg_nano.a(lib_a-sprintf.o)
 .debug_frame   0x00006714       0x20 c:/renesas/ra/e2studio_v2021-04_fsp_v3.0.0/toolchains/gcc_arm/9_2020q2/bin/../lib/gcc/arm-none-eabi/9.3.1/../../../../arm-none-eabi/lib/thumb/v8-m.main+fp/hard\libg_nano.a(lib_a-strcmp.o)
 .debug_frame   0x00006734       0x20 c:/renesas/ra/e2studio_v2021-04_fsp_v3.0.0/toolchains/gcc_arm/9_2020q2/bin/../lib/gcc/arm-none-eabi/9.3.1/../../../../arm-none-eabi/lib/thumb/v8-m.main+fp/hard\libg_nano.a(lib_a-strcpy.o)
 .debug_frame   0x00006754       0x4c c:/renesas/ra/e2studio_v2021-04_fsp_v3.0.0/toolchains/gcc_arm/9_2020q2/bin/../lib/gcc/arm-none-eabi/9.3.1/../../../../arm-none-eabi/lib/thumb/v8-m.main+fp/hard\libg_nano.a(lib_a-vsnprintf.o)
 .debug_frame   0x000067a0       0x3c c:/renesas/ra/e2studio_v2021-04_fsp_v3.0.0/toolchains/gcc_arm/9_2020q2/bin/../lib/gcc/arm-none-eabi/9.3.1/../../../../arm-none-eabi/lib/thumb/v8-m.main+fp/hard\libg_nano.a(lib_a-vsprintf.o)
 .debug_frame   0x000067dc       0x90 c:/renesas/ra/e2studio_v2021-04_fsp_v3.0.0/toolchains/gcc_arm/9_2020q2/bin/../lib/gcc/arm-none-eabi/9.3.1/../../../../arm-none-eabi/lib/thumb/v8-m.main+fp/hard\libg_nano.a(lib_a-nano-svfprintf.o)
 .debug_frame   0x0000686c       0x60 c:/renesas/ra/e2studio_v2021-04_fsp_v3.0.0/toolchains/gcc_arm/9_2020q2/bin/../lib/gcc/arm-none-eabi/9.3.1/../../../../arm-none-eabi/lib/thumb/v8-m.main+fp/hard\libg_nano.a(lib_a-nano-vfprintf_i.o)
 .debug_frame   0x000068cc       0x28 c:/renesas/ra/e2studio_v2021-04_fsp_v3.0.0/toolchains/gcc_arm/9_2020q2/bin/../lib/gcc/arm-none-eabi/9.3.1/../../../../arm-none-eabi/lib/thumb/v8-m.main+fp/hard\libg_nano.a(lib_a-memchr-stub.o)
 .debug_frame   0x000068f4       0x28 c:/renesas/ra/e2studio_v2021-04_fsp_v3.0.0/toolchains/gcc_arm/9_2020q2/bin/../lib/gcc/arm-none-eabi/9.3.1/../../../../arm-none-eabi/lib/thumb/v8-m.main+fp/hard\libg_nano.a(lib_a-memmove.o)
 .debug_frame   0x0000691c       0x38 c:/renesas/ra/e2studio_v2021-04_fsp_v3.0.0/toolchains/gcc_arm/9_2020q2/bin/../lib/gcc/arm-none-eabi/9.3.1/../../../../arm-none-eabi/lib/thumb/v8-m.main+fp/hard\libg_nano.a(lib_a-nano-freer.o)
 .debug_frame   0x00006954       0x30 c:/renesas/ra/e2studio_v2021-04_fsp_v3.0.0/toolchains/gcc_arm/9_2020q2/bin/../lib/gcc/arm-none-eabi/9.3.1/../../../../arm-none-eabi/lib/thumb/v8-m.main+fp/hard\libg_nano.a(lib_a-nano-mallocr.o)
 .debug_frame   0x00006984       0x3c c:/renesas/ra/e2studio_v2021-04_fsp_v3.0.0/toolchains/gcc_arm/9_2020q2/bin/../lib/gcc/arm-none-eabi/9.3.1/../../../../arm-none-eabi/lib/thumb/v8-m.main+fp/hard\libg_nano.a(lib_a-nano-reallocr.o)
 .debug_frame   0x000069c0       0x2c c:/renesas/ra/e2studio_v2021-04_fsp_v3.0.0/toolchains/gcc_arm/9_2020q2/bin/../lib/gcc/arm-none-eabi/9.3.1/../../../../arm-none-eabi/lib/thumb/v8-m.main+fp/hard\libg_nano.a(lib_a-sbrkr.o)
 .debug_frame   0x000069ec       0x30 c:/renesas/ra/e2studio_v2021-04_fsp_v3.0.0/toolchains/gcc_arm/9_2020q2/bin/../lib/gcc/arm-none-eabi/9.3.1/../../../../arm-none-eabi/lib/thumb/v8-m.main+fp/hard\libg_nano.a(lib_a-mlock.o)
 .debug_frame   0x00006a1c       0x20 c:/renesas/ra/e2studio_v2021-04_fsp_v3.0.0/toolchains/gcc_arm/9_2020q2/bin/../lib/gcc/arm-none-eabi/9.3.1/../../../../arm-none-eabi/lib/thumb/v8-m.main+fp/hard\libg_nano.a(lib_a-nano-msizer.o)
 .debug_frame   0x00006a3c       0x5c c:/renesas/ra/e2studio_v2021-04_fsp_v3.0.0/toolchains/gcc_arm/9_2020q2/bin/../lib/gcc/arm-none-eabi/9.3.1/../../../../arm-none-eabi/lib/thumb/v8-m.main+fp/hard\libg_nano.a(lib_a-reent.o)
 .debug_frame   0x00006a98       0xb0 c:/renesas/ra/e2studio_v2021-04_fsp_v3.0.0/toolchains/gcc_arm/9_2020q2/bin/../lib/gcc/arm-none-eabi/9.3.1/../../../../arm-none-eabi/lib/thumb/v8-m.main+fp/hard\libg_nano.a(lib_a-lock.o)
 .debug_frame   0x00006b48      0x14c c:/renesas/ra/e2studio_v2021-04_fsp_v3.0.0/toolchains/gcc_arm/9_2020q2/bin/../lib/gcc/arm-none-eabi/9.3.1/../../../../arm-none-eabi/lib/thumb/v8-m.main+fp/hard\libc_nano.a(lib_a-findfp.o)
